EXPORTS
	_ZN11HgMediawall11qt_metacallEN11QMetaObject4CallEiPPv @ 1 NONAME
	_ZN11HgMediawall11qt_metacastEPKc @ 2 NONAME
	_ZN11HgMediawall16staticMetaObjectE @ 3 NONAME DATA 16
	_ZN11HgMediawall19getStaticMetaObjectEv @ 4 NONAME
	_ZN11HgMediawallC1EP13QGraphicsItem @ 5 NONAME
	_ZN11HgMediawallC2EP13QGraphicsItem @ 6 NONAME
	_ZN11HgMediawallD0Ev @ 7 NONAME
	_ZN11HgMediawallD1Ev @ 8 NONAME
	_ZN11HgMediawallD2Ev @ 9 NONAME
	_ZN6HgGrid11qt_metacallEN11QMetaObject4CallEiPPv @ 10 NONAME
	_ZN6HgGrid11qt_metacastEPKc @ 11 NONAME
	_ZN6HgGrid16staticMetaObjectE @ 12 NONAME DATA 16
	_ZN6HgGrid19getStaticMetaObjectEv @ 13 NONAME
	_ZN6HgGridC1EN2Qt11OrientationEP13QGraphicsItem @ 14 NONAME
	_ZN6HgGridC2EN2Qt11OrientationEP13QGraphicsItem @ 15 NONAME
	_ZN6HgGridD0Ev @ 16 NONAME
	_ZN6HgGridD1Ev @ 17 NONAME
	_ZN6HgGridD2Ev @ 18 NONAME
	_ZN8HgWidget11dataChangedERK11QModelIndexS2_ @ 19 NONAME
	_ZN8HgWidget11eventFilterEP7QObjectP6QEvent @ 20 NONAME
	_ZN8HgWidget11longPressedERK11QModelIndexRK7QPointF @ 21 NONAME
	_ZN8HgWidget11qt_metacallEN11QMetaObject4CallEiPPv @ 22 NONAME
	_ZN8HgWidget11qt_metacastEPKc @ 23 NONAME
	_ZN8HgWidget12setScrollBarEP11HbScrollBar @ 24 NONAME
	_ZN8HgWidget14clearSelectionEv @ 25 NONAME
	_ZN8HgWidget14getItemOutlineERK11QModelIndexR9QPolygonF @ 26 NONAME
	_ZN8HgWidget14scrollingEndedEv @ 27 NONAME
	_ZN8HgWidget15setCurrentIndexERK11QModelIndex6QFlagsIN19QItemSelectionModel13SelectionFlagEE @ 28 NONAME
	_ZN8HgWidget16scrollingStartedEv @ 29 NONAME
	_ZN8HgWidget16setSelectionModeENS_13SelectionModeEb @ 30 NONAME
	_ZN8HgWidget16staticMetaObjectE @ 31 NONAME DATA 16
	_ZN8HgWidget17setSelectionModelEP19QItemSelectionModel @ 32 NONAME
	_ZN8HgWidget18orientationChangedEN2Qt11OrientationE @ 33 NONAME
	_ZN8HgWidget18setScrollBarPolicyENS_15ScrollBarPolicyE @ 34 NONAME
	_ZN8HgWidget19getStaticMetaObjectEv @ 35 NONAME
	_ZN8HgWidget19setLongPressEnabledEb @ 36 NONAME
	_ZN8HgWidget24aboutToChangeOrientationEv @ 37 NONAME
	_ZN8HgWidget5eventEP6QEvent @ 38 NONAME
	_ZN8HgWidget8scrollToERK11QModelIndex @ 39 NONAME
	_ZN8HgWidget8setModelEP18QAbstractItemModel @ 40 NONAME
	_ZN8HgWidget9activatedERK11QModelIndex @ 41 NONAME
	_ZN8HgWidget9selectAllEv @ 42 NONAME
	_ZN8HgWidgetC1ER15HgWidgetPrivateP13QGraphicsItem @ 43 NONAME
	_ZN8HgWidgetC2ER15HgWidgetPrivateP13QGraphicsItem @ 44 NONAME
	_ZN8HgWidgetD0Ev @ 45 NONAME
	_ZN8HgWidgetD1Ev @ 46 NONAME
	_ZN8HgWidgetD2Ev @ 47 NONAME
	_ZNK11HgMediawall10metaObjectEv @ 48 NONAME
	_ZNK6HgGrid10metaObjectEv @ 49 NONAME
	_ZNK8HgWidget10metaObjectEv @ 50 NONAME
	_ZNK8HgWidget12currentIndexEv @ 51 NONAME
	_ZNK8HgWidget13selectionModeEv @ 52 NONAME
	_ZNK8HgWidget14selectionModelEv @ 53 NONAME
	_ZNK8HgWidget15scrollBarPolicyEv @ 54 NONAME
	_ZNK8HgWidget15scrollDirectionEv @ 55 NONAME
	_ZNK8HgWidget16longPressEnabledEv @ 56 NONAME
	_ZNK8HgWidget21getVisibleItemIndicesEv @ 57 NONAME
	_ZNK8HgWidget5modelEv @ 58 NONAME
	_ZNK8HgWidget9scrollBarEv @ 59 NONAME
	_ZTI11HgMediawall @ 60 NONAME
	_ZTI6HgGrid @ 61 NONAME
	_ZTI8HgWidget @ 62 NONAME
	_ZTV11HgMediawall @ 63 NONAME
	_ZTV6HgGrid @ 64 NONAME
	_ZTV8HgWidget @ 65 NONAME
	_ZThn16_N11HgMediawallD0Ev @ 66 NONAME
	_ZThn16_N11HgMediawallD1Ev @ 67 NONAME
	_ZThn16_N6HgGridD0Ev @ 68 NONAME
	_ZThn16_N6HgGridD1Ev @ 69 NONAME
	_ZThn16_N8HgWidgetD0Ev @ 70 NONAME
	_ZThn16_N8HgWidgetD1Ev @ 71 NONAME
	_ZThn8_N11HgMediawallD0Ev @ 72 NONAME
	_ZThn8_N11HgMediawallD1Ev @ 73 NONAME
	_ZThn8_N6HgGridD0Ev @ 74 NONAME
	_ZThn8_N6HgGridD1Ev @ 75 NONAME
	_ZThn8_N8HgWidgetD0Ev @ 76 NONAME
	_ZThn8_N8HgWidgetD1Ev @ 77 NONAME
	_ZN11HgMediawall16setTitleFontSpecERK10HbFontSpec @ 78 NONAME
	_ZN11HgMediawall22setDescriptionFontSpecERK10HbFontSpec @ 79 NONAME
	_ZNK11HgMediawall13titleFontSpecEv @ 80 NONAME
	_ZNK11HgMediawall19descriptionFontSpecEv @ 81 NONAME
	_ZN8HgWidget22setIndexFeedbackPolicyENS_19IndexFeedbackPolicyE @ 82 NONAME
	_ZNK8HgWidget19indexFeedbackPolicyEv @ 83 NONAME
	_ZN8HgWidget15setDefaultImageE6QImage @ 84 NONAME
	_ZN11HgMediawallC1ER18HgMediawallPrivateP13QGraphicsItem @ 85 NONAME
	_ZN11HgMediawallC2ER18HgMediawallPrivateP13QGraphicsItem @ 86 NONAME
	_ZN6HgGridC1EN2Qt11OrientationER13HgGridPrivateP13QGraphicsItem @ 87 NONAME
	_ZN6HgGridC2EN2Qt11OrientationER13HgGridPrivateP13QGraphicsItem @ 88 NONAME
	_ZN8HgWidgetC1EP13QGraphicsItem @ 89 NONAME
	_ZN8HgWidgetC2EP13QGraphicsItem @ 90 NONAME
	_ZN8HgWidget11setItemSizeERK6QSizeF @ 91 NONAME
	_ZN8HgWidget14setItemSpacingERK6QSizeF @ 92 NONAME
	_ZN8HgWidget17setItemSizePolicyENS_14ItemSizePolicyE @ 93 NONAME
	_ZNK8HgWidget11itemSpacingEv @ 94 NONAME
	_ZNK8HgWidget14itemSizePolicyEv @ 95 NONAME
	_ZNK8HgWidget8itemSizeEv @ 96 NONAME
	_ZN11HgMediawall17enableReflectionsEb @ 97 NONAME
	_ZN11HgMediawall25setFrontItemPositionDeltaERK7QPointF @ 98 NONAME
	_ZNK11HgMediawall18reflectionsEnabledEv @ 99 NONAME
	_ZNK11HgMediawall22frontItemPositionDeltaEv @ 100 NONAME
	_ZN11HgMediawall19animationAboutToEndERK11QModelIndex @ 101 NONAME
	_ZN6HgGrid18setEffect3dEnabledEb @ 102 NONAME
	_ZNK6HgGrid15effect3dEnabledEv @ 103 NONAME
	_ZN11HgMediawall6polishER17HbStyleParameters @ 104 NONAME
	_ZN6HgGrid11setRowCountEiN2Qt11OrientationE @ 105 NONAME
	_ZN6HgGrid14setPinchLevelsE5QPairIiiEN2Qt11OrientationE @ 106 NONAME
	_ZN6HgGrid15setPinchEnabledEb @ 107 NONAME
	_ZN6HgGrid17emptySpacePressedEv @ 108 NONAME
	_ZNK6HgGrid11pinchLevelsEN2Qt11OrientationE @ 109 NONAME
	_ZNK6HgGrid12pinchEnabledEv @ 110 NONAME
	_ZNK6HgGrid8rowCountEN2Qt11OrientationE @ 111 NONAME
	_ZN6HgGrid21setReflectionsEnabledEb @ 112 NONAME
	_ZNK6HgGrid18reflectionsEnabledEv @ 113 NONAME

