EXPORTS
	_ZN17HgCacheProxyModel10insertRowsEiiRK11QModelIndex @ 1 NONAME
	_ZN17HgCacheProxyModel10releaseAllEv @ 2 NONAME
	_ZN17HgCacheProxyModel10removeRowsEiiRK11QModelIndex @ 3 NONAME
	_ZN17HgCacheProxyModel11dataUpdatedEii @ 4 NONAME
	_ZN17HgCacheProxyModel11qt_metacallEN11QMetaObject4CallEiPPv @ 5 NONAME
	_ZN17HgCacheProxyModel11qt_metacastEPKc @ 6 NONAME
	_ZN17HgCacheProxyModel11resizeCacheEii @ 7 NONAME
	_ZN17HgCacheProxyModel11setItemDataERK11QModelIndexRK4QMapIi8QVariantE @ 8 NONAME
	_ZN17HgCacheProxyModel11setSortRoleEi @ 9 NONAME
	_ZN17HgCacheProxyModel12DataProviderEv @ 10 NONAME
	_ZN17HgCacheProxyModel12dropMimeDataEPK9QMimeDataN2Qt10DropActionEiiRK11QModelIndex @ 11 NONAME
	_ZN17HgCacheProxyModel13insertColumnsEiiRK11QModelIndex @ 12 NONAME
	_ZN17HgCacheProxyModel13removeColumnsEiiRK11QModelIndex @ 13 NONAME
	_ZN17HgCacheProxyModel13setFilterRoleEi @ 14 NONAME
	_ZN17HgCacheProxyModel13setHeaderDataEiN2Qt11OrientationERK8QVarianti @ 15 NONAME
	_ZN17HgCacheProxyModel15setDataProviderEP19HgDataProviderModelii @ 16 NONAME
	_ZN17HgCacheProxyModel15setFilterRegExpERK7QRegExp @ 17 NONAME
	_ZN17HgCacheProxyModel15sourceRowsMovedERK11QModelIndexiiS2_i @ 18 NONAME
	_ZN17HgCacheProxyModel16sourceModelResetEv @ 19 NONAME
	_ZN17HgCacheProxyModel16staticMetaObjectE @ 20 NONAME DATA 16
	_ZN17HgCacheProxyModel17sourceDataChangedERK11QModelIndexS2_ @ 21 NONAME
	_ZN17HgCacheProxyModel17sourceRowsRemovedERK11QModelIndexii @ 22 NONAME
	_ZN17HgCacheProxyModel18setFilterKeyColumnEi @ 23 NONAME
	_ZN17HgCacheProxyModel18setSortLocaleAwareEb @ 24 NONAME
	_ZN17HgCacheProxyModel18sourceColumnsMovedERK11QModelIndexiiS2_i @ 25 NONAME
	_ZN17HgCacheProxyModel18sourceRowsInsertedERK11QModelIndexii @ 26 NONAME
	_ZN17HgCacheProxyModel19getStaticMetaObjectEv @ 27 NONAME
	_ZN17HgCacheProxyModel19sourceLayoutChangedEv @ 28 NONAME
	_ZN17HgCacheProxyModel20setDynamicSortFilterEb @ 29 NONAME
	_ZN17HgCacheProxyModel20sourceColumnsRemovedERK11QModelIndexii @ 30 NONAME
	_ZN17HgCacheProxyModel21sourceColumnsInsertedERK11QModelIndexii @ 31 NONAME
	_ZN17HgCacheProxyModel22setSortCaseSensitivityEN2Qt15CaseSensitivityE @ 32 NONAME
	_ZN17HgCacheProxyModel23sourceHeaderDataChangedEN2Qt11OrientationEii @ 33 NONAME
	_ZN17HgCacheProxyModel24setFilterCaseSensitivityEN2Qt15CaseSensitivityE @ 34 NONAME
	_ZN17HgCacheProxyModel24sourceRowsAboutToBeMovedERK11QModelIndexiiS2_i @ 35 NONAME
	_ZN17HgCacheProxyModel25sourceModelAboutToBeResetEv @ 36 NONAME
	_ZN17HgCacheProxyModel26sourceRowsAboutToBeRemovedERK11QModelIndexii @ 37 NONAME
	_ZN17HgCacheProxyModel27sourceColumnsAboutToBeMovedERK11QModelIndexiiS2_i @ 38 NONAME
	_ZN17HgCacheProxyModel27sourceRowsAboutToBeInsertedERK11QModelIndexii @ 39 NONAME
	_ZN17HgCacheProxyModel28sourceLayoutAboutToBeChangedEv @ 40 NONAME
	_ZN17HgCacheProxyModel29sourceColumnsAboutToBeRemovedERK11QModelIndexii @ 41 NONAME
	_ZN17HgCacheProxyModel30sourceColumnsAboutToBeInsertedERK11QModelIndexii @ 42 NONAME
	_ZN17HgCacheProxyModel4sortEiN2Qt9SortOrderE @ 43 NONAME
	_ZN17HgCacheProxyModel6revertEv @ 44 NONAME
	_ZN17HgCacheProxyModel6submitEv @ 45 NONAME
	_ZN17HgCacheProxyModel7releaseEii @ 46 NONAME
	_ZN17HgCacheProxyModel7requestEiiN23HgBufferManagerObserver14HgRequestOrderE @ 47 NONAME
	_ZN17HgCacheProxyModel7setDataERK11QModelIndexRK8QVarianti @ 48 NONAME
	_ZN17HgCacheProxyModel9fetchMoreERK11QModelIndex @ 49 NONAME
	_ZN17HgCacheProxyModelC1EP7QObject @ 50 NONAME
	_ZN17HgCacheProxyModelC2EP7QObject @ 51 NONAME
	_ZN17HgCacheProxyModelD0Ev @ 52 NONAME
	_ZN17HgCacheProxyModelD1Ev @ 53 NONAME
	_ZN17HgCacheProxyModelD2Ev @ 54 NONAME
	_ZN19HgDataProviderModel10clearCacheEv @ 55 NONAME
	_ZN19HgDataProviderModel10createIconEi7QPixmap @ 56 NONAME
	_ZN19HgDataProviderModel10insertItemEi5QPairI8QVariantiEb @ 57 NONAME
	_ZN19HgDataProviderModel10insertItemEiP5QListI5QPairI8QVariantiEEb @ 58 NONAME
	_ZN19HgDataProviderModel10removeItemEib @ 59 NONAME
	_ZN19HgDataProviderModel10resetModelEv @ 60 NONAME
	_ZN19HgDataProviderModel10updateIconEi8QVariantb @ 61 NONAME
	_ZN19HgDataProviderModel11qt_metacallEN11QMetaObject4CallEiPPv @ 62 NONAME
	_ZN19HgDataProviderModel11qt_metacastEPKc @ 63 NONAME
	_ZN19HgDataProviderModel11removeItemsEiib @ 64 NONAME
	_ZN19HgDataProviderModel11setIconModeENS_22HgDataProviderIconModeE @ 65 NONAME
	_ZN19HgDataProviderModel12doInsertItemEiP5QListI5QPairI8QVariantiEEb @ 66 NONAME
	_ZN19HgDataProviderModel13releasePixmapEi @ 67 NONAME
	_ZN19HgDataProviderModel15emitDataChangedEiib @ 68 NONAME
	_ZN19HgDataProviderModel16registerObserverEP27HgDataProviderModelObserver @ 69 NONAME
	_ZN19HgDataProviderModel16staticMetaObjectE @ 70 NONAME DATA 16
	_ZN19HgDataProviderModel17resizeQPixmapPoolEi @ 71 NONAME
	_ZN19HgDataProviderModel19getStaticMetaObjectEv @ 72 NONAME
	_ZN19HgDataProviderModel6updateEi8QVariantib @ 73 NONAME
	_ZN19HgDataProviderModel6updateEiP5QListI5QPairI8QVariantiEEb @ 74 NONAME
	_ZN19HgDataProviderModel7newItemE5QPairI8QVariantiEb @ 75 NONAME
	_ZN19HgDataProviderModel7newItemEP5QListI5QPairI8QVariantiEEb @ 76 NONAME
	_ZN19HgDataProviderModel7releaseE5QListIiEb @ 77 NONAME
	_ZN19HgDataProviderModel7requestE5QListIiEb @ 78 NONAME
	_ZN19HgDataProviderModel8iconModeEv @ 79 NONAME
	_ZN19HgDataProviderModel9clearItemEib @ 80 NONAME
	_ZN19HgDataProviderModel9getPixmapEi @ 81 NONAME
	_ZN19HgDataProviderModel9resetIconEi @ 82 NONAME
	_ZN19HgDataProviderModelC2EP7QObject @ 83 NONAME
	_ZN19HgDataProviderModelD0Ev @ 84 NONAME
	_ZN19HgDataProviderModelD1Ev @ 85 NONAME
	_ZN19HgDataProviderModelD2Ev @ 86 NONAME
	_ZNK17HgCacheProxyModel10filterRoleEv @ 87 NONAME
	_ZNK17HgCacheProxyModel10headerDataEiN2Qt11OrientationEi @ 88 NONAME
	_ZNK17HgCacheProxyModel10metaObjectEv @ 89 NONAME
	_ZNK17HgCacheProxyModel10sortColumnEv @ 90 NONAME
	_ZNK17HgCacheProxyModel11columnCountERK11QModelIndex @ 91 NONAME
	_ZNK17HgCacheProxyModel11hasChildrenERK11QModelIndex @ 92 NONAME
	_ZNK17HgCacheProxyModel11mapToSourceERK11QModelIndex @ 93 NONAME
	_ZNK17HgCacheProxyModel11mapToSourceEii @ 94 NONAME
	_ZNK17HgCacheProxyModel12canFetchMoreERK11QModelIndex @ 95 NONAME
	_ZNK17HgCacheProxyModel12filterRegExpEv @ 96 NONAME
	_ZNK17HgCacheProxyModel15filterKeyColumnEv @ 97 NONAME
	_ZNK17HgCacheProxyModel17dynamicSortFilterEv @ 98 NONAME
	_ZNK17HgCacheProxyModel17isSortLocaleAwareEv @ 99 NONAME
	_ZNK17HgCacheProxyModel17setBufferPositionEi @ 100 NONAME
	_ZNK17HgCacheProxyModel19sortCaseSensitivityEv @ 101 NONAME
	_ZNK17HgCacheProxyModel20supportedDropActionsEv @ 102 NONAME
	_ZNK17HgCacheProxyModel21filterCaseSensitivityEv @ 103 NONAME
	_ZNK17HgCacheProxyModel22mapToDataProviderIndexEi @ 104 NONAME
	_ZNK17HgCacheProxyModel24mapFromDataProviderIndexEi @ 105 NONAME
	_ZNK17HgCacheProxyModel4dataERK11QModelIndexi @ 106 NONAME
	_ZNK17HgCacheProxyModel4spanERK11QModelIndex @ 107 NONAME
	_ZNK17HgCacheProxyModel5buddyERK11QModelIndex @ 108 NONAME
	_ZNK17HgCacheProxyModel5countEv @ 109 NONAME
	_ZNK17HgCacheProxyModel5flagsERK11QModelIndex @ 110 NONAME
	_ZNK17HgCacheProxyModel5indexEiiRK11QModelIndex @ 111 NONAME
	_ZNK17HgCacheProxyModel5matchERK11QModelIndexiRK8QVarianti6QFlagsIN2Qt9MatchFlagEE @ 112 NONAME
	_ZNK17HgCacheProxyModel6parentERK11QModelIndex @ 113 NONAME
	_ZNK17HgCacheProxyModel8itemDataERK11QModelIndex @ 114 NONAME
	_ZNK17HgCacheProxyModel8mimeDataERK5QListI11QModelIndexE @ 115 NONAME
	_ZNK17HgCacheProxyModel8rowCountERK11QModelIndex @ 116 NONAME
	_ZNK17HgCacheProxyModel8sortRoleEv @ 117 NONAME
	_ZNK17HgCacheProxyModel9mimeTypesEv @ 118 NONAME
	_ZNK17HgCacheProxyModel9sortOrderEv @ 119 NONAME
	_ZNK19HgDataProviderModel10metaObjectEv @ 120 NONAME
	_ZNK19HgDataProviderModel11columnCountERK11QModelIndex @ 121 NONAME
	_ZNK19HgDataProviderModel4dataERK11QModelIndexi @ 122 NONAME
	_ZNK19HgDataProviderModel4dataEii @ 123 NONAME
	_ZNK19HgDataProviderModel5countEv @ 124 NONAME
	_ZNK19HgDataProviderModel5indexEiiRK11QModelIndex @ 125 NONAME
	_ZNK19HgDataProviderModel6parentERK11QModelIndex @ 126 NONAME
	_ZNK19HgDataProviderModel8itemDataERK11QModelIndex @ 127 NONAME
	_ZNK19HgDataProviderModel8rowCountERK11QModelIndex @ 128 NONAME
	_ZTI17HgCacheProxyModel @ 129 NONAME
	_ZTI19HgDataProviderModel @ 130 NONAME
	_ZTV17HgCacheProxyModel @ 131 NONAME
	_ZTV19HgDataProviderModel @ 132 NONAME
	_ZThn12_N17HgCacheProxyModel11dataUpdatedEii @ 133 NONAME
	_ZThn8_N17HgCacheProxyModel7releaseEii @ 134 NONAME
	_ZThn8_N17HgCacheProxyModel7requestEiiN23HgBufferManagerObserver14HgRequestOrderE @ 135 NONAME
	_ZNK17HgCacheProxyModel8isCachedEi @ 136 NONAME
	_ZNK19HgDataProviderModel8isCachedEi @ 137 NONAME
	_ZThn12_NK17HgCacheProxyModel8isCachedEi @ 138 NONAME

