EXPORTS
	?ConstructL@CFlexPeriodic@@AAEXXZ @ 1 NONAME ; void CFlexPeriodic::ConstructL(void)
	?ConstructL@CFlexTimer@@IAEXXZ @ 2 NONAME ; void CFlexTimer::ConstructL(void)
	?At@CFlexTimer@@QAEXABVTTime@@@Z @ 3 NONAME ; void CFlexTimer::At(class TTime const &)
	?Configure@CFlexTimer@@QAEHVTTimeIntervalMicroSeconds@@@Z @ 4 NONAME ; int CFlexTimer::Configure(class TTimeIntervalMicroSeconds)
	?AtUTC@RFlexTimer@@QAEXAAVTRequestStatus@@ABVTTime@@@Z @ 5 NONAME ; void RFlexTimer::AtUTC(class TRequestStatus &, class TTime const &)
	?After@RFlexTimer@@QAEXAAVTRequestStatus@@VTTimeIntervalMicroSeconds32@@@Z @ 6 NONAME ; void RFlexTimer::After(class TRequestStatus &, class TTimeIntervalMicroSeconds32)
	??1CFlexPeriodic@@UAE@XZ @ 7 NONAME ; CFlexPeriodic::~CFlexPeriodic(void)
	?DoCancel@CFlexTimer@@MAEXXZ @ 8 NONAME ; void CFlexTimer::DoCancel(void)
	?Configure@CFlexPeriodic@@QAEHVTTimeIntervalMicroSeconds@@0@Z @ 9 NONAME ; int CFlexPeriodic::Configure(class TTimeIntervalMicroSeconds, class TTimeIntervalMicroSeconds)
	?After@CFlexTimer@@QAEXVTTimeIntervalMicroSeconds@@@Z @ 10 NONAME ; void CFlexTimer::After(class TTimeIntervalMicroSeconds)
	?Configure@CFlexTimer@@QAEHVTTimeIntervalMicroSeconds32@@@Z @ 11 NONAME ; int CFlexTimer::Configure(class TTimeIntervalMicroSeconds32)
	?After@CFlexTimer@@QAEXVTTimeIntervalMicroSeconds32@@@Z @ 12 NONAME ; void CFlexTimer::After(class TTimeIntervalMicroSeconds32)
	?Configure@CFlexPeriodic@@QAEHVTTimeIntervalMicroSeconds32@@0@Z @ 13 NONAME ; int CFlexPeriodic::Configure(class TTimeIntervalMicroSeconds32, class TTimeIntervalMicroSeconds32)
	?NewL@CFlexPeriodic@@SAPAV1@H@Z @ 14 NONAME ; class CFlexPeriodic * CFlexPeriodic::NewL(int)
	?AtUTC@CFlexTimer@@QAEXABVTTime@@@Z @ 15 NONAME ; void CFlexTimer::AtUTC(class TTime const &)
	??1RFlexTimer@@QAE@XZ @ 16 NONAME ; RFlexTimer::~RFlexTimer(void)
	?After@RFlexTimer@@QAEXAAVTRequestStatus@@VTTimeIntervalMicroSeconds@@@Z @ 17 NONAME ; void RFlexTimer::After(class TRequestStatus &, class TTimeIntervalMicroSeconds)
	?AfterTicks@RFlexTimer@@QAEXAAVTRequestStatus@@H@Z @ 18 NONAME ; void RFlexTimer::AfterTicks(class TRequestStatus &, int)
	??0CFlexPeriodic@@AAE@H@Z @ 19 NONAME ; CFlexPeriodic::CFlexPeriodic(int)
	?At@RFlexTimer@@QAEXAAVTRequestStatus@@ABVTTime@@@Z @ 20 NONAME ; void RFlexTimer::At(class TRequestStatus &, class TTime const &)
	?Configure@RFlexTimer@@QAEHVTTimeIntervalMicroSeconds@@@Z @ 21 NONAME ; int RFlexTimer::Configure(class TTimeIntervalMicroSeconds)
	?Cancel@RFlexTimer@@QAEXXZ @ 22 NONAME ; void RFlexTimer::Cancel(void)
	?Configure@RFlexTimer@@QAEHVTTimeIntervalMicroSeconds32@@@Z @ 23 NONAME ; int RFlexTimer::Configure(class TTimeIntervalMicroSeconds32)
	??0CFlexTimer@@IAE@H@Z @ 24 NONAME ; CFlexTimer::CFlexTimer(int)
	?Start@CFlexPeriodic@@QAEXVTTimeIntervalMicroSeconds32@@0VTCallBack@@1@Z @ 25 NONAME ; void CFlexPeriodic::Start(class TTimeIntervalMicroSeconds32, class TTimeIntervalMicroSeconds32, class TCallBack, class TCallBack)
	??1CFlexTimer@@UAE@XZ @ 26 NONAME ; CFlexTimer::~CFlexTimer(void)
	?Start@CFlexPeriodic@@QAEXVTTimeIntervalMicroSeconds@@0VTCallBack@@1@Z @ 27 NONAME ; void CFlexPeriodic::Start(class TTimeIntervalMicroSeconds, class TTimeIntervalMicroSeconds, class TCallBack, class TCallBack)
	?Connect@RFlexTimer@@QAEHXZ @ 28 NONAME ; int RFlexTimer::Connect(void)
	??0RFlexTimer@@QAE@XZ @ 29 NONAME ; RFlexTimer::RFlexTimer(void)

