EXPORTS
	_Z20PreallocateHALBufferv @ 1 NONAME
	_Z21CloseAllPanicWindowsLv @ 2 NONAME
	_ZN10CTestAppUi10ConstructLEv @ 3 NONAME
	_ZN10CTestAppUi15ProcessCommandLEi @ 4 NONAME
	_ZN10CTestAppUiC2EP12CTmsTestStepRK7TDesC16iii @ 5 NONAME
	_ZN10CTestAppUiD0Ev @ 6 NONAME
	_ZN10CTestAppUiD1Ev @ 7 NONAME
	_ZN10CTestAppUiD2Ev @ 8 NONAME
	_ZN12CTmsTestStep13SetTestStepIDERK7TDesC16 @ 9 NONAME
	_ZN12CTmsTestStep17RecordTestResultLEv @ 10 NONAME
	_ZN12CTmsTestStep20CloseTMSGraphicsStepEv @ 11 NONAME
	_ZN12CTmsTestStep20SetOverallTestStepIDERK7TDesC16 @ 12 NONAME
	_ZN12CTmsTestStep24MultipleResultsForSameIDEi @ 13 NONAME
	_ZN12CTmsTestStep7MQCTestEiPKhi @ 14 NONAME
	_ZN12CTmsTestStep8MQCTestLEiPKhi @ 15 NONAME
	_ZN12CTmsTestStepC2Ev @ 16 NONAME
	_ZN12CTmsTestStepD0Ev @ 17 NONAME
	_ZN12CTmsTestStepD1Ev @ 18 NONAME
	_ZN12CTmsTestStepD2Ev @ 19 NONAME
	_ZN13CTestCoeAppUi10ConstructLEv @ 20 NONAME
	_ZN13CTestCoeAppUiC2EP12CTmsTestStep @ 21 NONAME
	_ZN13CTestCoeAppUiD0Ev @ 22 NONAME
	_ZN13CTestCoeAppUiD1Ev @ 23 NONAME
	_ZN13CTestCoeAppUiD2Ev @ 24 NONAME
	_ZN16CAutoTestManager13StartAutoTestEv @ 25 NONAME
	_ZN16CAutoTestManager17SetTestCaseNumberEi @ 26 NONAME
	_ZN16CAutoTestManager18FinishAllTestCasesENS_11TTestResultE @ 27 NONAME
	_ZN16CAutoTestManager4NewLEP12MAutoTestApp @ 28 NONAME
	_ZN16CAutoTestManagerC1EP12MAutoTestApp @ 29 NONAME
	_ZN16CAutoTestManagerC2EP12MAutoTestApp @ 30 NONAME
	_ZN16CAutoTestManagerD0Ev @ 31 NONAME
	_ZN16CAutoTestManagerD1Ev @ 32 NONAME
	_ZN16CAutoTestManagerD2Ev @ 33 NONAME
	_ZNK10CTestAppUi10ReduceRectER5TRect @ 34 NONAME
	_ZTI10CTestAppUi @ 35 NONAME
	_ZTI12CTmsTestStep @ 36 NONAME
	_ZTI13CTestCoeAppUi @ 37 NONAME
	_ZTI16CAutoTestManager @ 38 NONAME
	_ZTV10CTestAppUi @ 39 NONAME
	_ZTV12CTmsTestStep @ 40 NONAME
	_ZTV13CTestCoeAppUi @ 41 NONAME
	_ZTV16CAutoTestManager @ 42 NONAME
	_ZThn24_N10CTestAppUi15ProcessCommandLEi @ 43 NONAME

