EXPORTS
	??0RXIMPSrvContextClient@@QAE@XZ @ 1 NONAME ; RXIMPSrvContextClient::RXIMPSrvContextClient(void)
	??0RXIMPSrvRootClient@@QAE@XZ @ 2 NONAME ; RXIMPSrvRootClient::RXIMPSrvRootClient(void)
	??0TXIMPProcessStartupParam@@QAE@XZ @ 3 NONAME ; TXIMPProcessStartupParam::TXIMPProcessStartupParam(void)
	?CancelListening@RXIMPSrvContextClient@@QAEXXZ @ 4 NONAME ; void RXIMPSrvContextClient::CancelListening(void)
	?Close@RXIMPSrvContextClient@@QAEXXZ @ 5 NONAME ; void RXIMPSrvContextClient::Close(void)
	?Close@RXIMPSrvRootClient@@QAEXXZ @ 6 NONAME ; void RXIMPSrvRootClient::Close(void)
	?Connect@RXIMPSrvRootClient@@QAEHXZ @ 7 NONAME ; int RXIMPSrvRootClient::Connect(void)
	?ConnectL@RXIMPSrvContextClient@@QAEXVTUid@@@Z @ 8 NONAME ; void RXIMPSrvContextClient::ConnectL(class TUid)
	?ConnectToServer@XIMPProcessStarter@@SAHABVTDesC16@@0PBV?$TArray@VTXIMPProcessStartupParam@@@@AAVRSessionBase@@0ABVTVersion@@H@Z @ 9 NONAME ; int XIMPProcessStarter::ConnectToServer(class TDesC16 const &, class TDesC16 const &, class TArray<class TXIMPProcessStartupParam> const *, class RSessionBase &, class TDesC16 const &, class TVersion const &, int)
	?DoQueueOperation@RXIMPSrvContextClient@@QAEHHABVTDesC8@@AAVTXIMPRequestId@@@Z @ 10 NONAME ; int RXIMPSrvContextClient::DoQueueOperation(int, class TDesC8 const &, class TXIMPRequestId &)
	?DropTopEvent@RXIMPSrvContextClient@@QAEHXZ @ 11 NONAME ; int RXIMPSrvContextClient::DropTopEvent(void)
	?FetchTopEventDataLC@RXIMPSrvContextClient@@QAEPAVHBufC8@@XZ @ 12 NONAME ; class HBufC8 * RXIMPSrvContextClient::FetchTopEventDataLC(void)
	?FetchTopEventReqId@RXIMPSrvContextClient@@QAEHAAVTXIMPRequestId@@@Z @ 13 NONAME ; int RXIMPSrvContextClient::FetchTopEventReqId(class TXIMPRequestId &)
	?FullExePathForClienLocation@XIMPProcessStarter@@SAXABVTDesC16@@AAV?$TBuf@$0BAA@@@@Z @ 14 NONAME ; void XIMPProcessStarter::FullExePathForClienLocation(class TDesC16 const &, class TBuf<256> &)
	?GetContextFeaturesL@RXIMPSrvContextClient@@QBEPAVHBufC8@@XZ @ 15 NONAME ; class HBufC8 * RXIMPSrvContextClient::GetContextFeaturesL(void) const
	?GetKnownProtocolsL@RXIMPSrvRootClient@@QAEPAVHBufC8@@XZ @ 16 NONAME ; class HBufC8 * RXIMPSrvRootClient::GetKnownProtocolsL(void)
	?GetSupportedFrameworkFeaturesL@RXIMPSrvRootClient@@QAEPAVHBufC8@@XZ @ 17 NONAME ; class HBufC8 * RXIMPSrvRootClient::GetSupportedFrameworkFeaturesL(void)
	?InstallEventFilterL@RXIMPSrvContextClient@@QAEXABVTDesC8@@@Z @ 18 NONAME ; void RXIMPSrvContextClient::InstallEventFilterL(class TDesC8 const &)
	?ListenEvent@RXIMPSrvContextClient@@QAEXAAVTRequestStatus@@@Z @ 19 NONAME ; void RXIMPSrvContextClient::ListenEvent(class TRequestStatus &)
	?Set@TXIMPProcessStartupParam@@QAEXHH@Z @ 20 NONAME ; void TXIMPProcessStartupParam::Set(int, int)
	?StartInstance@XIMPProcessStarter@@SAHABVTDesC16@@0PBV?$TArray@VTXIMPProcessStartupParam@@@@@Z @ 21 NONAME ; int XIMPProcessStarter::StartInstance(class TDesC16 const &, class TDesC16 const &, class TArray<class TXIMPProcessStartupParam> const *)
	?DoQueueOperation2@RXIMPSrvContextClient@@QAEHHABVTDesC8@@AAVTXIMPRequestId@@@Z @ 22 NONAME ; int RXIMPSrvContextClient::DoQueueOperation2(int, class TDesC8 const &, class TXIMPRequestId &)

