EXPORTS
	??0CXIMPSrvSessionAdapter@@QAE@AAVMXIMPSrv@@@Z @ 1 NONAME ; CXIMPSrvSessionAdapter::CXIMPSrvSessionAdapter(class MXIMPSrv &)
	??0TXIMPBlockTraceHandler@@QAE@PBG@Z @ 2 NONAME ; TXIMPBlockTraceHandler::TXIMPBlockTraceHandler(unsigned short const *)
	??0TXIMPRequestIdBuilder@@QAE@XZ @ 3 NONAME ; TXIMPRequestIdBuilder::TXIMPRequestIdBuilder(void)
	??1CXIMPSrvSessionAdapter@@UAE@XZ @ 4 NONAME ; CXIMPSrvSessionAdapter::~CXIMPSrvSessionAdapter(void)
	??1TXIMPBlockTraceHandler@@QAE@XZ @ 5 NONAME ; TXIMPBlockTraceHandler::~TXIMPBlockTraceHandler(void)
	?BuildRequestId@TXIMPRequestIdBuilder@@QBE?AVTXIMPRequestId@@XZ @ 6 NONAME ; class TXIMPRequestId TXIMPRequestIdBuilder::BuildRequestId(void) const
	?ExternalizeL@XIMPRBuf16Helper@@SAXABVRBuf16@@AAVRWriteStream@@@Z @ 7 NONAME ; void XIMPRBuf16Helper::ExternalizeL(class RBuf16 const &, class RWriteStream &)
	?ExternalizeL@XIMPRBuf8Helper@@SAXABVRBuf8@@AAVRWriteStream@@@Z @ 8 NONAME ; void XIMPRBuf8Helper::ExternalizeL(class RBuf8 const &, class RWriteStream &)
	?GrowIfNeededL@XIMPRBuf16Helper@@SAXAAVRBuf16@@H@Z @ 9 NONAME ; void XIMPRBuf16Helper::GrowIfNeededL(class RBuf16 &, int)
	?GrowIfNeededL@XIMPRBuf8Helper@@SAXAAVRBuf8@@H@Z @ 10 NONAME ; void XIMPRBuf8Helper::GrowIfNeededL(class RBuf8 &, int)
	?InternalizeL@XIMPRBuf16Helper@@SAXAAVRBuf16@@AAVRReadStream@@@Z @ 11 NONAME ; void XIMPRBuf16Helper::InternalizeL(class RBuf16 &, class RReadStream &)
	?InternalizeL@XIMPRBuf8Helper@@SAXAAVRBuf8@@AAVRReadStream@@@Z @ 12 NONAME ; void XIMPRBuf8Helper::InternalizeL(class RBuf8 &, class RReadStream &)
	?NormalExit@TXIMPBlockTraceHandler@@QAEXXZ @ 13 NONAME ; void TXIMPBlockTraceHandler::NormalExit(void)
	?PackArrayL@TXIMPHBuf8Packer@@SAPAVHBufC8@@ABV?$RPointerArray@VHBufC8@@@@@Z @ 14 NONAME ; class HBufC8 * TXIMPHBuf8Packer::PackArrayL(class RPointerArray<class HBufC8> const &)
	?Panic@NXIMPPrivPanic@@YAXW4TReason@1@@Z @ 15 NONAME ; void NXIMPPrivPanic::Panic(enum NXIMPPrivPanic::TReason)
	?Server@CXIMPSrvSessionAdapter@@IAEAAVMXIMPSrv@@XZ @ 16 NONAME ; class MXIMPSrv & CXIMPSrvSessionAdapter::Server(void)
	?ServiceError@CXIMPSrvSessionAdapter@@UAEXABVRMessage2@@H@Z @ 17 NONAME ; void CXIMPSrvSessionAdapter::ServiceError(class RMessage2 const &, int)
	?ServiceL@CXIMPSrvSessionAdapter@@UAEXABVRMessage2@@@Z @ 18 NONAME ; void CXIMPSrvSessionAdapter::ServiceL(class RMessage2 const &)
	?SetNewValueL@XIMPRBuf16Helper@@SAXAAVRBuf16@@ABVTDesC16@@@Z @ 19 NONAME ; void XIMPRBuf16Helper::SetNewValueL(class RBuf16 &, class TDesC16 const &)
	?SetNewValueL@XIMPRBuf8Helper@@SAXAAVRBuf8@@ABVTDesC8@@@Z @ 20 NONAME ; void XIMPRBuf8Helper::SetNewValueL(class RBuf8 &, class TDesC8 const &)
	?SetProtocolId@TXIMPRequestIdBuilder@@QAEXK@Z @ 21 NONAME ; void TXIMPRequestIdBuilder::SetProtocolId(unsigned long)
	?SetRequestId@TXIMPRequestIdBuilder@@QAEXK@Z @ 22 NONAME ; void TXIMPRequestIdBuilder::SetRequestId(unsigned long)
	?SetSessionId@TXIMPRequestIdBuilder@@QAEXK@Z @ 23 NONAME ; void TXIMPRequestIdBuilder::SetSessionId(unsigned long)
	?Trace@XIMPTrace@@SAXV?$TRefByValue@$$CBVTDesC16@@@@ZZ @ 24 NONAME ; void XIMPTrace::Trace(class TRefByValue<class TDesC16 const >, ...)
	?UnPackArrayL@TXIMPHBuf8Packer@@SAXAAV?$RPointerArray@VHBufC8@@@@ABVTDesC8@@@Z @ 25 NONAME ; void TXIMPHBuf8Packer::UnPackArrayL(class RPointerArray<class HBufC8> &, class TDesC8 const &)

