EXPORTS
	??0CXIMPApiDataObjBase@@QAE@XZ @ 1 NONAME ; CXIMPApiDataObjBase::CXIMPApiDataObjBase(void)
	??0CXIMPApiEventBase@@QAE@XZ @ 2 NONAME ; CXIMPApiEventBase::CXIMPApiEventBase(void)
	??0CXIMPApiObjBase@@IAE@XZ @ 3 NONAME ; CXIMPApiObjBase::CXIMPApiObjBase(void)
	??0CXIMPConfigurationItemBase@@QAE@AAVMXIMPItemParentBase@@@Z @ 4 NONAME ; CXIMPConfigurationItemBase::CXIMPConfigurationItemBase(class MXIMPItemParentBase &)
	??0CXIMPSubscriptionItemBase@@QAE@AAVMXIMPItemParentBase@@@Z @ 5 NONAME ; CXIMPSubscriptionItemBase::CXIMPSubscriptionItemBase(class MXIMPItemParentBase &)
	??1CXIMPApiDataObjBase@@UAE@XZ @ 6 NONAME ; CXIMPApiDataObjBase::~CXIMPApiDataObjBase(void)
	??1CXIMPApiEventBase@@UAE@XZ @ 7 NONAME ; CXIMPApiEventBase::~CXIMPApiEventBase(void)
	??1CXIMPApiObjBase@@UAE@XZ @ 8 NONAME ; CXIMPApiObjBase::~CXIMPApiObjBase(void)
	??1CXIMPConfigurationItemBase@@UAE@XZ @ 9 NONAME ; CXIMPConfigurationItemBase::~CXIMPConfigurationItemBase(void)
	??1CXIMPSubscriptionItemBase@@MAE@XZ @ 10 NONAME ; CXIMPSubscriptionItemBase::~CXIMPSubscriptionItemBase(void)
	??9CXIMPIdentityImp@@QBEHABV0@@Z @ 11 NONAME ; int CXIMPIdentityImp::operator!=(class CXIMPIdentityImp const &) const
	?Accessor@FeaturePluginHolder@@SAPAVMApiDataObjFactoryAccessor@@H@Z @ 12 NONAME ; class MApiDataObjFactoryAccessor * FeaturePluginHolder::Accessor(int)
	?AccessorCount@FeaturePluginHolder@@SAHXZ @ 13 NONAME ; int FeaturePluginHolder::AccessorCount(void)
	?ActivateSubscriberL@CXIMPSubscriptionItemBase@@QAEXPAV1@@Z @ 14 NONAME ; void CXIMPSubscriptionItemBase::ActivateSubscriberL(class CXIMPSubscriptionItemBase *)
	?ActivateSubscriberL@CXIMPSubscriptionItemBase@@UAEXPAVMXIMPPscContext@@@Z @ 15 NONAME ; void CXIMPSubscriptionItemBase::ActivateSubscriberL(class MXIMPPscContext *)
	?AddConfiguratorL@CXIMPConfigurationItemBase@@QAEXPAV1@@Z @ 16 NONAME ; void CXIMPConfigurationItemBase::AddConfiguratorL(class CXIMPConfigurationItemBase *)
	?AddConfiguratorL@CXIMPConfigurationItemBase@@QAEXPAVMXIMPPscContext@@@Z @ 17 NONAME ; void CXIMPConfigurationItemBase::AddConfiguratorL(class MXIMPPscContext *)
	?AddFeatureL@CXIMPFeatureInfoImp@@QAEHABVTDesC8@@@Z @ 18 NONAME ; int CXIMPFeatureInfoImp::AddFeatureL(class TDesC8 const &)
	?AddSubscriberL@CXIMPSubscriptionItemBase@@QAEXPAV1@@Z @ 19 NONAME ; void CXIMPSubscriptionItemBase::AddSubscriberL(class CXIMPSubscriptionItemBase *)
	?AddSubscriberL@CXIMPSubscriptionItemBase@@QAEXPAVMXIMPPscContext@@@Z @ 20 NONAME ; void CXIMPSubscriptionItemBase::AddSubscriberL(class MXIMPPscContext *)
	?AppendParamL@CXIMPRequestCompleteEventImp@@QAEXPAVCXIMPApiDataObjBase@@@Z @ 21 NONAME ; void CXIMPRequestCompleteEventImp::AppendParamL(class CXIMPApiDataObjBase *)
	?BaseConstructL@CXIMPConfigurationItemBase@@QAEXXZ @ 22 NONAME ; void CXIMPConfigurationItemBase::BaseConstructL(void)
	?BaseConstructL@CXIMPSubscriptionItemBase@@QAEXXZ @ 23 NONAME ; void CXIMPSubscriptionItemBase::BaseConstructL(void)
	?ChangeStatusAfterAdd@CXIMPSubscriptionItemBase@@QAEXXZ @ 24 NONAME ; void CXIMPSubscriptionItemBase::ChangeStatusAfterAdd(void)
	?ChangeStatusAfterRemove@CXIMPSubscriptionItemBase@@QAEXXZ @ 25 NONAME ; void CXIMPSubscriptionItemBase::ChangeStatusAfterRemove(void)
	?CleanIfExpired@CXIMPSubscriptionItemBase@@QAEHXZ @ 26 NONAME ; int CXIMPSubscriptionItemBase::CleanIfExpired(void)
	?Compare@CXIMPIdentityImp@@QBEHABV1@@Z @ 27 NONAME ; int CXIMPIdentityImp::Compare(class CXIMPIdentityImp const &) const
	?CompletionResultImp@CXIMPRequestCompleteEventImp@@QAEAAVCXIMPStatusImp@@XZ @ 28 NONAME ; class CXIMPStatusImp & CXIMPRequestCompleteEventImp::CompletionResultImp(void)
	?ConfigurationStatus@CXIMPConfigurationItemBase@@QAE?AW4TConfigurationStatus@1@PAVMXIMPPscContext@@@Z @ 29 NONAME ; enum CXIMPConfigurationItemBase::TConfigurationStatus CXIMPConfigurationItemBase::ConfigurationStatus(class MXIMPPscContext *)
	?Context@CXIMPSubscriptionItemBase@@QAEAAVMXIMPPscContext@@H@Z @ 30 NONAME ; class MXIMPPscContext & CXIMPSubscriptionItemBase::Context(int)
	?ContextCount@CXIMPSubscriptionItemBase@@QBEHXZ @ 31 NONAME ; int CXIMPSubscriptionItemBase::ContextCount(void) const
	?ContextStateImp@CXIMPContextStateEventImp@@QAEAAVCXIMPContextStateImp@@XZ @ 32 NONAME ; class CXIMPContextStateImp & CXIMPContextStateEventImp::ContextStateImp(void)
	?CountOfSubscribers@CXIMPSubscriptionItemBase@@QAEHXZ @ 33 NONAME ; int CXIMPSubscriptionItemBase::CountOfSubscribers(void)
	?DataSubscriptionState@CXIMPSubscriptionItemBase@@QAEABVMXIMPDataSubscriptionState@@XZ @ 34 NONAME ; class MXIMPDataSubscriptionState const & CXIMPSubscriptionItemBase::DataSubscriptionState(void)
	?ExternalizeL@CXIMPContextEventFilter@@QBEXAAVRWriteStream@@@Z @ 35 NONAME ; void CXIMPContextEventFilter::ExternalizeL(class RWriteStream &) const
	?ExternalizeL@XIMPApiDataObjFactory@@SAXAAVRWriteStream@@ABV?$RArray@USXIMPReqParam@@@@@Z @ 36 NONAME ; void XIMPApiDataObjFactory::ExternalizeL(class RWriteStream &, class RArray<struct SXIMPReqParam> const &)
	?ExternalizeL@XIMPApiDataObjFactory@@SAXAAVRWriteStream@@ABVCXIMPApiDataObjBase@@@Z @ 37 NONAME ; void XIMPApiDataObjFactory::ExternalizeL(class RWriteStream &, class CXIMPApiDataObjBase const &)
	?ForceClose@CXIMPConfigurationItemBase@@QAEXXZ @ 38 NONAME ; void CXIMPConfigurationItemBase::ForceClose(void)
	?ForceClose@CXIMPSubscriptionItemBase@@QAEXXZ @ 39 NONAME ; void CXIMPSubscriptionItemBase::ForceClose(void)
	?HandleUnknownGetInterface@CXIMPApiObjBase@@IBEPAXJW4TIfGetOps@MXIMPBase@@@Z @ 40 NONAME ; void * CXIMPApiObjBase::HandleUnknownGetInterface(long, enum MXIMPBase::TIfGetOps) const
	?InitializeL@FeaturePluginHolder@@SAXXZ @ 41 NONAME ; void FeaturePluginHolder::InitializeL(void)
	?InternalizeL@CXIMPContextClientInfoImp@@QAEXAAVRReadStream@@@Z @ 42 NONAME ; void CXIMPContextClientInfoImp::InternalizeL(class RReadStream &)
	?InternalizeL@CXIMPContextEventFilter@@QAEXAAVRReadStream@@@Z @ 43 NONAME ; void CXIMPContextEventFilter::InternalizeL(class RReadStream &)
	?InternalizeL@CXIMPContextStateImp@@QAEXAAVRReadStream@@@Z @ 44 NONAME ; void CXIMPContextStateImp::InternalizeL(class RReadStream &)
	?InternalizeL@CXIMPDataSubscriptionStateImp@@QAEXAAVRReadStream@@@Z @ 45 NONAME ; void CXIMPDataSubscriptionStateImp::InternalizeL(class RReadStream &)
	?InternalizeL@CXIMPFeatureInfoImp@@QAEXAAVRReadStream@@@Z @ 46 NONAME ; void CXIMPFeatureInfoImp::InternalizeL(class RReadStream &)
	?InternalizeL@CXIMPIdentityImp@@QAEXAAVRReadStream@@@Z @ 47 NONAME ; void CXIMPIdentityImp::InternalizeL(class RReadStream &)
	?InternalizeL@CXIMPProtocolInfoImp@@QAEXAAVRReadStream@@@Z @ 48 NONAME ; void CXIMPProtocolInfoImp::InternalizeL(class RReadStream &)
	?InternalizeL@CXIMPServiceInfoImp@@QAEXAAVRReadStream@@@Z @ 49 NONAME ; void CXIMPServiceInfoImp::InternalizeL(class RReadStream &)
	?InternalizeL@CXIMPStatusImp@@QAEXAAVRReadStream@@@Z @ 50 NONAME ; void CXIMPStatusImp::InternalizeL(class RReadStream &)
	?InternalizeL@XIMPApiDataObjFactory@@SAXAAVRReadStream@@AAV?$RArray@USXIMPReqParam@@@@@Z @ 51 NONAME ; void XIMPApiDataObjFactory::InternalizeL(class RReadStream &, class RArray<struct SXIMPReqParam> &)
	?InternalizeLC@XIMPApiDataObjFactory@@SAPAVCXIMPApiDataObjBase@@AAVRReadStream@@@Z @ 52 NONAME ; class CXIMPApiDataObjBase * XIMPApiDataObjFactory::InternalizeLC(class RReadStream &)
	?IsContext@CXIMPConfigurationItemBase@@QBEHPAVMXIMPPscContext@@@Z @ 53 NONAME ; int CXIMPConfigurationItemBase::IsContext(class MXIMPPscContext *) const
	?IsContext@CXIMPSubscriptionItemBase@@QBEHPAVMXIMPPscContext@@@Z @ 54 NONAME ; int CXIMPSubscriptionItemBase::IsContext(class MXIMPPscContext *) const
	?IsEventAccepted@CXIMPContextEventFilter@@QBEHJ@Z @ 55 NONAME ; int CXIMPContextEventFilter::IsEventAccepted(long) const
	?Match@CXIMPContextClientInfoImp@@QBEHPBV1@@Z @ 56 NONAME ; int CXIMPContextClientInfoImp::Match(class CXIMPContextClientInfoImp const *) const
	?NewCombinedLC@CXIMPContextEventFilter@@SAPAV1@ABV?$TArray@PAVCXIMPContextEventFilter@@@@@Z @ 57 NONAME ; class CXIMPContextEventFilter * CXIMPContextEventFilter::NewCombinedLC(class TArray<class CXIMPContextEventFilter *> const &)
	?NewFromStreamLC@CXIMPContextClientInfoImp@@SAPAVCXIMPApiDataObjBase@@AAVRReadStream@@@Z @ 58 NONAME ; class CXIMPApiDataObjBase * CXIMPContextClientInfoImp::NewFromStreamLC(class RReadStream &)
	?NewFromStreamLC@CXIMPContextStateImp@@SAPAVCXIMPApiDataObjBase@@AAVRReadStream@@@Z @ 59 NONAME ; class CXIMPApiDataObjBase * CXIMPContextStateImp::NewFromStreamLC(class RReadStream &)
	?NewFromStreamLC@CXIMPDataSubscriptionStateImp@@SAPAVCXIMPApiDataObjBase@@AAVRReadStream@@@Z @ 60 NONAME ; class CXIMPApiDataObjBase * CXIMPDataSubscriptionStateImp::NewFromStreamLC(class RReadStream &)
	?NewFromStreamLC@CXIMPFeatureInfoImp@@SAPAVCXIMPApiDataObjBase@@AAVRReadStream@@@Z @ 61 NONAME ; class CXIMPApiDataObjBase * CXIMPFeatureInfoImp::NewFromStreamLC(class RReadStream &)
	?NewFromStreamLC@CXIMPIdentityImp@@SAPAVCXIMPApiDataObjBase@@AAVRReadStream@@@Z @ 62 NONAME ; class CXIMPApiDataObjBase * CXIMPIdentityImp::NewFromStreamLC(class RReadStream &)
	?NewFromStreamLC@CXIMPProtocolInfoImp@@SAPAVCXIMPApiDataObjBase@@AAVRReadStream@@@Z @ 63 NONAME ; class CXIMPApiDataObjBase * CXIMPProtocolInfoImp::NewFromStreamLC(class RReadStream &)
	?NewFromStreamLC@CXIMPServiceInfoImp@@SAPAVCXIMPApiDataObjBase@@AAVRReadStream@@@Z @ 64 NONAME ; class CXIMPApiDataObjBase * CXIMPServiceInfoImp::NewFromStreamLC(class RReadStream &)
	?NewFromStreamLC@CXIMPStatusImp@@SAPAVCXIMPApiDataObjBase@@AAVRReadStream@@@Z @ 65 NONAME ; class CXIMPApiDataObjBase * CXIMPStatusImp::NewFromStreamLC(class RReadStream &)
	?NewL@CXIMPContextClientInfoImp@@SAPAV1@XZ @ 66 NONAME ; class CXIMPContextClientInfoImp * CXIMPContextClientInfoImp::NewL(void)
	?NewL@CXIMPContextEventFilter@@SAPAV1@PBV?$TArray@J@@@Z @ 67 NONAME ; class CXIMPContextEventFilter * CXIMPContextEventFilter::NewL(class TArray<long> const *)
	?NewL@CXIMPContextStateEventImp@@SAPAV1@XZ @ 68 NONAME ; class CXIMPContextStateEventImp * CXIMPContextStateEventImp::NewL(void)
	?NewL@CXIMPContextStateImp@@SAPAV1@XZ @ 69 NONAME ; class CXIMPContextStateImp * CXIMPContextStateImp::NewL(void)
	?NewL@CXIMPDataSubscriptionStateImp@@SAPAV1@XZ @ 70 NONAME ; class CXIMPDataSubscriptionStateImp * CXIMPDataSubscriptionStateImp::NewL(void)
	?NewL@CXIMPFeatureInfoImp@@SAPAV1@XZ @ 71 NONAME ; class CXIMPFeatureInfoImp * CXIMPFeatureInfoImp::NewL(void)
	?NewL@CXIMPIdentityImp@@SAPAV1@XZ @ 72 NONAME ; class CXIMPIdentityImp * CXIMPIdentityImp::NewL(void)
	?NewL@CXIMPObjectCollectionImp@@SAPAV1@XZ @ 73 NONAME ; class CXIMPObjectCollectionImp * CXIMPObjectCollectionImp::NewL(void)
	?NewL@CXIMPObjectFactoryImp@@SAPAV1@XZ @ 74 NONAME ; class CXIMPObjectFactoryImp * CXIMPObjectFactoryImp::NewL(void)
	?NewL@CXIMPRequestCompleteEventImp@@SAPAV1@XZ @ 75 NONAME ; class CXIMPRequestCompleteEventImp * CXIMPRequestCompleteEventImp::NewL(void)
	?NewL@CXIMPRestrictedObjectCollectionImp@@SAPAV1@H@Z @ 76 NONAME ; class CXIMPRestrictedObjectCollectionImp * CXIMPRestrictedObjectCollectionImp::NewL(int)
	?NewL@CXIMPServiceInfoImp@@SAPAV1@XZ @ 77 NONAME ; class CXIMPServiceInfoImp * CXIMPServiceInfoImp::NewL(void)
	?NewL@CXIMPStatusImp@@SAPAV1@XZ @ 78 NONAME ; class CXIMPStatusImp * CXIMPStatusImp::NewL(void)
	?NewLC@CXIMPContextClientInfoImp@@SAPAV1@XZ @ 79 NONAME ; class CXIMPContextClientInfoImp * CXIMPContextClientInfoImp::NewLC(void)
	?NewLC@CXIMPContextEventFilter@@SAPAV1@PBV?$TArray@J@@@Z @ 80 NONAME ; class CXIMPContextEventFilter * CXIMPContextEventFilter::NewLC(class TArray<long> const *)
	?NewLC@CXIMPContextStateEventImp@@SAPAV1@XZ @ 81 NONAME ; class CXIMPContextStateEventImp * CXIMPContextStateEventImp::NewLC(void)
	?NewLC@CXIMPContextStateImp@@SAPAV1@XZ @ 82 NONAME ; class CXIMPContextStateImp * CXIMPContextStateImp::NewLC(void)
	?NewLC@CXIMPDataSubscriptionStateImp@@SAPAV1@XZ @ 83 NONAME ; class CXIMPDataSubscriptionStateImp * CXIMPDataSubscriptionStateImp::NewLC(void)
	?NewLC@CXIMPFeatureInfoImp@@SAPAV1@XZ @ 84 NONAME ; class CXIMPFeatureInfoImp * CXIMPFeatureInfoImp::NewLC(void)
	?NewLC@CXIMPIdentityImp@@SAPAV1@ABVTDesC16@@@Z @ 85 NONAME ; class CXIMPIdentityImp * CXIMPIdentityImp::NewLC(class TDesC16 const &)
	?NewLC@CXIMPIdentityImp@@SAPAV1@XZ @ 86 NONAME ; class CXIMPIdentityImp * CXIMPIdentityImp::NewLC(void)
	?NewLC@CXIMPObjectCollectionImp@@SAPAV1@XZ @ 87 NONAME ; class CXIMPObjectCollectionImp * CXIMPObjectCollectionImp::NewLC(void)
	?NewLC@CXIMPProtocolInfoImp@@SAPAV1@ABVTDesC16@@VTUid@@ABVCXIMPFeatureInfoImp@@@Z @ 88 NONAME ; class CXIMPProtocolInfoImp * CXIMPProtocolInfoImp::NewLC(class TDesC16 const &, class TUid, class CXIMPFeatureInfoImp const &)
	?NewLC@CXIMPProtocolInfoImp@@SAPAV1@XZ @ 89 NONAME ; class CXIMPProtocolInfoImp * CXIMPProtocolInfoImp::NewLC(void)
	?NewLC@CXIMPRequestCompleteEventImp@@SAPAV1@AAVTXIMPRequestId@@H@Z @ 90 NONAME ; class CXIMPRequestCompleteEventImp * CXIMPRequestCompleteEventImp::NewLC(class TXIMPRequestId &, int)
	?NewLC@CXIMPRestrictedObjectCollectionImp@@SAPAV1@H@Z @ 91 NONAME ; class CXIMPRestrictedObjectCollectionImp * CXIMPRestrictedObjectCollectionImp::NewLC(int)
	?NewLC@CXIMPServiceInfoImp@@SAPAV1@VTUid@@ABVTDesC16@@11J@Z @ 92 NONAME ; class CXIMPServiceInfoImp * CXIMPServiceInfoImp::NewLC(class TUid, class TDesC16 const &, class TDesC16 const &, class TDesC16 const &, long)
	?NewLC@CXIMPServiceInfoImp@@SAPAV1@XZ @ 93 NONAME ; class CXIMPServiceInfoImp * CXIMPServiceInfoImp::NewLC(void)
	?NewLC@CXIMPStatusImp@@SAPAV1@XZ @ 94 NONAME ; class CXIMPStatusImp * CXIMPStatusImp::NewLC(void)
	?PackL@XIMPEventCodec@@SAPAVHBufC8@@AAVCXIMPApiEventBase@@AAJ@Z @ 95 NONAME ; class HBufC8 * XIMPEventCodec::PackL(class CXIMPApiEventBase &, long &)
	?PackL@XIMPEventCodec@@SAXAAVCXIMPApiEventBase@@AAJPAVCBufFlat@@@Z @ 96 NONAME ; void XIMPEventCodec::PackL(class CXIMPApiEventBase &, long &, class CBufFlat *)
	?PresenceObjFactoryAccessor@FeaturePluginHolder@@SAPAVMApiDataObjFactoryAccessor@@XZ @ 97 NONAME ; class MApiDataObjFactoryAccessor * FeaturePluginHolder::PresenceObjFactoryAccessor(void)
	?Release@FeaturePluginHolder@@SAXXZ @ 98 NONAME ; void FeaturePluginHolder::Release(void)
	?RemoveConfigurator@CXIMPConfigurationItemBase@@QAEXPAV1@@Z @ 99 NONAME ; void CXIMPConfigurationItemBase::RemoveConfigurator(class CXIMPConfigurationItemBase *)
	?RemoveConfigurator@CXIMPConfigurationItemBase@@QAEXPAVMXIMPPscContext@@@Z @ 100 NONAME ; void CXIMPConfigurationItemBase::RemoveConfigurator(class MXIMPPscContext *)
	?RemoveSubscriber@CXIMPSubscriptionItemBase@@QAEXPAV1@@Z @ 101 NONAME ; void CXIMPSubscriptionItemBase::RemoveSubscriber(class CXIMPSubscriptionItemBase *)
	?RemoveSubscriber@CXIMPSubscriptionItemBase@@QAEXPAVMXIMPPscContext@@@Z @ 102 NONAME ; void CXIMPSubscriptionItemBase::RemoveSubscriber(class MXIMPPscContext *)
	?SetDataSubscriptionStateL@CXIMPSubscriptionItemBase@@UAEXAAVCXIMPDataSubscriptionStateImp@@@Z @ 103 NONAME ; void CXIMPSubscriptionItemBase::SetDataSubscriptionStateL(class CXIMPDataSubscriptionStateImp &)
	?SetObjectOwnership@CXIMPRestrictedObjectCollectionImp@@QAEXH@Z @ 104 NONAME ; void CXIMPRestrictedObjectCollectionImp::SetObjectOwnership(int)
	?SetRequestId@CXIMPRequestCompleteEventImp@@QAEXABVTXIMPRequestId@@@Z @ 105 NONAME ; void CXIMPRequestCompleteEventImp::SetRequestId(class TXIMPRequestId const &)
	?SetStateChangeReasonImp@CXIMPContextStateEventImp@@QAEXPAVCXIMPStatusImp@@@Z @ 106 NONAME ; void CXIMPContextStateEventImp::SetStateChangeReasonImp(class CXIMPStatusImp *)
	?SetStateValue@CXIMPContextStateImp@@QAEXW4TState@MXIMPContextState@@@Z @ 107 NONAME ; void CXIMPContextStateImp::SetStateValue(enum MXIMPContextState::TState)
	?StateChangeReasonImp@CXIMPContextStateEventImp@@QAEPAVCXIMPStatusImp@@XZ @ 108 NONAME ; class CXIMPStatusImp * CXIMPContextStateEventImp::StateChangeReasonImp(void)
	?StatusLC@CXIMPSubscriptionItemBase@@QBEPAVCXIMPDataSubscriptionStateImp@@PAVMXIMPPscContext@@@Z @ 109 NONAME ; class CXIMPDataSubscriptionStateImp * CXIMPSubscriptionItemBase::StatusLC(class MXIMPPscContext *) const
	?SubscriptionStatus@CXIMPSubscriptionItemBase@@QAE?AW4TSubscriptionStatus@1@PAVMXIMPPscContext@@@Z @ 110 NONAME ; enum CXIMPSubscriptionItemBase::TSubscriptionStatus CXIMPSubscriptionItemBase::SubscriptionStatus(class MXIMPPscContext *)
	?SynthesiseSubscriptionEventToAllCtxsL@CXIMPSubscriptionItemBase@@UAEXXZ @ 111 NONAME ; void CXIMPSubscriptionItemBase::SynthesiseSubscriptionEventToAllCtxsL(void)
	?UnPackL@XIMPEventCodec@@SAPAVCXIMPApiEventBase@@ABVTDesC8@@AAJ@Z @ 112 NONAME ; class CXIMPApiEventBase * XIMPEventCodec::UnPackL(class TDesC8 const &, long &)
	?UpdateExpirationL@CXIMPSubscriptionItemBase@@QAEXXZ @ 113 NONAME ; void CXIMPSubscriptionItemBase::UpdateExpirationL(void)
	?UpdateSubscriptionStateL@CXIMPSubscriptionItemBase@@QAEXW4TSubscriptionEvent@1@@Z @ 114 NONAME ; void CXIMPSubscriptionItemBase::UpdateSubscriptionStateL(enum CXIMPSubscriptionItemBase::TSubscriptionEvent)

