EXPORTS
	??0CCmPluginBaseEng@@IAE@PAVTCmPluginInitParam@@@Z @ 1 NONAME ABSENT ; CCmPluginBaseEng::CCmPluginBaseEng(class TCmPluginInitParam *)
	??0CCmPluginLanBase@@IAE@PAVTCmPluginInitParam@@@Z @ 2 NONAME ABSENT ; CCmPluginLanBase::CCmPluginLanBase(class TCmPluginInitParam *)
	??0CmPluginBaseSettingsDlg@@QAE@AAVCCmPluginBaseEng@@@Z @ 3 NONAME ABSENT ; CmPluginBaseSettingsDlg::CmPluginBaseSettingsDlg(class CCmPluginBaseEng &)
	??0CmPluginBaseSettingsDlgAdv@@QAE@AAVCCmPluginBaseEng@@@Z @ 4 NONAME ABSENT ; CmPluginBaseSettingsDlgAdv::CmPluginBaseSettingsDlgAdv(class CCmPluginBaseEng &)
	??0CmPluginBaseSettingsDlgIp@@QAE@AAVCCmPluginBaseEng@@@Z @ 5 NONAME ABSENT ; CmPluginBaseSettingsDlgIp::CmPluginBaseSettingsDlgIp(class CCmPluginBaseEng &)
	??0RCmDestination@@QAE@ABV0@@Z @ 6 NONAME ; RCmDestination::RCmDestination(class RCmDestination const &)
	??0RCmDestinationExt@@QAE@ABV0@@Z @ 7 NONAME ; RCmDestinationExt::RCmDestinationExt(class RCmDestinationExt const &)
	??1CCmApplicationSettingsUi@@UAE@XZ @ 8 NONAME ; CCmApplicationSettingsUi::~CCmApplicationSettingsUi(void)
	??1CCmPluginBaseEng@@UAE@XZ @ 9 NONAME ABSENT ; CCmPluginBaseEng::~CCmPluginBaseEng(void)
	??1CCmPluginLanBase@@MAE@XZ @ 10 NONAME ABSENT ; CCmPluginLanBase::~CCmPluginLanBase(void)
	??1CCmSettingsUi@@UAE@XZ @ 11 NONAME ABSENT ; CCmSettingsUi::~CCmSettingsUi(void)
	??1CmPluginBaseSettingsDlg@@UAE@XZ @ 12 NONAME ABSENT ; CmPluginBaseSettingsDlg::~CmPluginBaseSettingsDlg(void)
	??1CmPluginBaseSettingsDlgAdv@@UAE@XZ @ 13 NONAME ABSENT ; CmPluginBaseSettingsDlgAdv::~CmPluginBaseSettingsDlgAdv(void)
	??1CmPluginBaseSettingsDlgIp@@UAE@XZ @ 14 NONAME ABSENT ; CmPluginBaseSettingsDlgIp::~CmPluginBaseSettingsDlgIp(void)
	??1RCmDestination@@QAE@XZ @ 15 NONAME ; RCmDestination::~RCmDestination(void)
	??1RCmDestinationExt@@QAE@XZ @ 16 NONAME ; RCmDestinationExt::~RCmDestinationExt(void)
	??4RCmDestination@@QAEAAV0@ABV0@@Z @ 17 NONAME ; class RCmDestination & RCmDestination::operator=(class RCmDestination const &)
	??4RCmDestinationExt@@QAEAAV0@ABV0@@Z @ 18 NONAME ; class RCmDestinationExt & RCmDestinationExt::operator=(class RCmDestinationExt const &)
	?AddCommonConversionTableL@CCmPluginBaseEng@@IAEXPBUTCmCommonAttrConvArrayItem@@@Z @ 19 NONAME ABSENT ; void CCmPluginBaseEng::AddCommonConversionTableL(struct TCmCommonAttrConvArrayItem const *)
	?AddConnectionMethodL@RCmDestinationExt@@QAEHVRCmConnectionMethodExt@@@Z @ 20 NONAME ; int RCmDestinationExt::AddConnectionMethodL(class RCmConnectionMethodExt)
	?AddConverstionTableL@CCmPluginBaseEng@@IAEXPAPAVCCDRecordBase@CommsDat@@PAHPBUTCmAttribConvTable@@@Z @ 21 NONAME ABSENT ; void CCmPluginBaseEng::AddConverstionTableL(class CommsDat::CCDRecordBase * *, int *, struct TCmAttribConvTable const *)
	?AddEmbeddedDestinationL@RCmDestinationExt@@QAEHABV1@@Z @ 22 NONAME ; int RCmDestinationExt::AddEmbeddedDestinationL(class RCmDestinationExt const &)
	?AddResourceFileL@CCmPluginBaseEng@@IAEXABVTDesC16@@@Z @ 23 NONAME ABSENT ; void CCmPluginBaseEng::AddResourceFileL(class TDesC16 const &)
	?AllDestinationsL@CCmManagerImpl@@QAEXAAV?$RArray@K@@@Z @ 24 NONAME ABSENT ; void CCmManagerImpl::AllDestinationsL(class RArray<unsigned long> &)
	?AllDestinationsL@RCmManager@@QBEXAAV?$RArray@K@@@Z @ 25 NONAME ; void RCmManager::AllDestinationsL(class RArray<unsigned long> &) const
	?AllDestinationsL@RCmManagerExt@@QAEXAAV?$RArray@K@@@Z @ 26 NONAME ; void RCmManagerExt::AllDestinationsL(class RArray<unsigned long> &)
	?AllocReadL@CCmPluginBaseEng@@IBEPAVHBufC16@@H@Z @ 27 NONAME ABSENT ; class HBufC16 * CCmPluginBaseEng::AllocReadL(int) const
	?AppendSettingTextsL@CmPluginBaseSettingsDlg@@IAEXAAVCDesC16Array@@HH@Z @ 28 NONAME ABSENT ; void CmPluginBaseSettingsDlg::AppendSettingTextsL(class CDesC16Array &, int, int)
	?AppendSettingTextsL@CmPluginBaseSettingsDlg@@IAEXAAVCDesC16Array@@HPBVHBufC16@@@Z @ 29 NONAME ABSENT ; void CmPluginBaseSettingsDlg::AppendSettingTextsL(class CDesC16Array &, int, class HBufC16 const *)
	?AppendSettingTextsL@CmPluginBaseSettingsDlg@@IBEXAAVCDesC16Array@@HHABVTDesC16@@H@Z @ 30 NONAME ABSENT ; void CmPluginBaseSettingsDlg::AppendSettingTextsL(class CDesC16Array &, int, int, class TDesC16 const &, int) const
	?AppendSettingTextsL@CmPluginBaseSettingsDlg@@IBEXAAVCDesC16Array@@HHHH@Z @ 31 NONAME ABSENT ; void CmPluginBaseSettingsDlg::AppendSettingTextsL(class CDesC16Array &, int, int, int, int) const
	?BearerPriorityArrayL@RCmManager@@QBEXAAV?$RArray@VTBearerPriority@@@@@Z @ 32 NONAME ; void RCmManager::BearerPriorityArrayL(class RArray<class TBearerPriority> &) const
	?BearerPriorityArrayL@RCmManagerExt@@QBEXAAV?$RArray@VTBearerPriority@@@@@Z @ 33 NONAME ; void RCmManagerExt::BearerPriorityArrayL(class RArray<class TBearerPriority> &) const
	?BearerRecordIdLC@CCmPluginLanBase@@MAEXAAPAVHBufC16@@AAK@Z @ 34 NONAME ABSENT ; void CCmPluginLanBase::BearerRecordIdLC(class HBufC16 * &, unsigned long &)
	?CheckDNSServerAddressL@CCmPluginBaseEng@@QAEXHAAV?$CMDBField@VTDesC16@@@CommsDat@@0AAV?$CMDBField@H@3@@Z @ 35 NONAME ABSENT ; void CCmPluginBaseEng::CheckDNSServerAddressL(int, class CommsDat::CMDBField<class TDesC16> &, class CommsDat::CMDBField<class TDesC16> &, class CommsDat::CMDBField<int> &)
	?CheckIPv4ValidityL@@YAHPAVCCmPluginBaseEng@@KPBX@Z @ 36 NONAME ABSENT ; int CheckIPv4ValidityL(class CCmPluginBaseEng *, unsigned long, void const *)
	?CheckIPv6ValidityL@@YAHPAVCCmPluginBaseEng@@KPBX@Z @ 37 NONAME ABSENT ; int CheckIPv6ValidityL(class CCmPluginBaseEng *, unsigned long, void const *)
	?CheckIfAlreadyConnected@CCmPluginBaseEng@@MBEHXZ @ 38 NONAME ABSENT ; int CCmPluginBaseEng::CheckIfAlreadyConnected(void) const
	?CheckIfNameModifiedL@CCmPluginBaseEng@@IBEXPAVCCDRecordBase@CommsDat@@@Z @ 39 NONAME ABSENT ; void CCmPluginBaseEng::CheckIfNameModifiedL(class CommsDat::CCDRecordBase *) const
	?CheckPortNumberValidityL@@YAHPAVCCmPluginBaseEng@@KPBX@Z @ 40 NONAME ABSENT ; int CheckPortNumberValidityL(class CCmPluginBaseEng *, unsigned long, void const *)
	?CheckRecordIdValidityL@@YAHPAVCCmPluginBaseEng@@KPBX@Z @ 41 NONAME ABSENT ; int CheckRecordIdValidityL(class CCmPluginBaseEng *, unsigned long, void const *)
	?CheckWAPWspOptionValidityL@@YAHPAVCCmPluginBaseEng@@KPBX@Z @ 42 NONAME ABSENT ; int CheckWAPWspOptionValidityL(class CCmPluginBaseEng *, unsigned long, void const *)
	?ClassifyIPv6Address@@YA?AW4TIPv6Types@CMManager@@ABVTDesC16@@@Z @ 43 NONAME ABSENT ; enum CMManager::TIPv6Types ClassifyIPv6Address(class TDesC16 const &)
	?CleanupGlobalPriorityArray@RCmManager@@QBEXAAV?$RArray@VTBearerPriority@@@@@Z @ 44 NONAME ; void RCmManager::CleanupGlobalPriorityArray(class RArray<class TBearerPriority> &) const
	?CleanupGlobalPriorityArray@RCmManagerExt@@QBEXAAV?$RArray@VTBearerPriority@@@@@Z @ 45 NONAME ; void RCmManagerExt::CleanupGlobalPriorityArray(class RArray<class TBearerPriority> &) const
	?Close@CCmTransactionHandler@@QAEXXZ @ 46 NONAME ABSENT ; void CCmTransactionHandler::Close(void)
	?Close@RCmConnectionMethod@@QAEXXZ @ 47 NONAME ; void RCmConnectionMethod::Close(void)
	?Close@RCmConnectionMethodExt@@QAEXXZ @ 48 NONAME ; void RCmConnectionMethodExt::Close(void)
	?Close@RCmDestination@@QAEXXZ @ 49 NONAME ; void RCmDestination::Close(void)
	?Close@RCmDestinationExt@@QAEXXZ @ 50 NONAME ; void RCmDestinationExt::Close(void)
	?Close@RCmManager@@QAEXXZ @ 51 NONAME ; void RCmManager::Close(void)
	?Close@RCmManagerExt@@QAEXXZ @ 52 NONAME ; void RCmManagerExt::Close(void)
	?ConnectionMethodByIDL@RCmDestination@@QBE?AVRCmConnectionMethod@@H@Z @ 53 NONAME ; class RCmConnectionMethod RCmDestination::ConnectionMethodByIDL(int) const
	?ConnectionMethodByIDL@RCmDestinationExt@@QAE?AVRCmConnectionMethodExt@@H@Z @ 54 NONAME ; class RCmConnectionMethodExt RCmDestinationExt::ConnectionMethodByIDL(int)
	?ConnectionMethodCount@CCmDestinationImpl@@QAEHXZ @ 55 NONAME ABSENT ; int CCmDestinationImpl::ConnectionMethodCount(void)
	?ConnectionMethodCount@RCmDestination@@QBEHXZ @ 56 NONAME ; int RCmDestination::ConnectionMethodCount(void) const
	?ConnectionMethodCount@RCmDestinationExt@@QAEHXZ @ 57 NONAME ; int RCmDestinationExt::ConnectionMethodCount(void)
	?ConnectionMethodL@CCmDestinationImpl@@QAEPAVCCmPluginBaseEng@@H@Z @ 58 NONAME ABSENT ; class CCmPluginBaseEng * CCmDestinationImpl::ConnectionMethodL(int)
	?ConnectionMethodL@CCmManagerImpl@@QAEPAVCCmPluginBaseEng@@K@Z @ 59 NONAME ABSENT ; class CCmPluginBaseEng * CCmManagerImpl::ConnectionMethodL(unsigned long)
	?ConnectionMethodL@CCmManagerImpl@@QAEXAAV?$RArray@K@@HHHH@Z @ 60 NONAME ABSENT ; void CCmManagerImpl::ConnectionMethodL(class RArray<unsigned long> &, int, int, int, int)
	?ConnectionMethodL@RCmDestination@@QBE?AVRCmConnectionMethod@@H@Z @ 61 NONAME ; class RCmConnectionMethod RCmDestination::ConnectionMethodL(int) const
	?ConnectionMethodL@RCmDestinationExt@@QAE?AVRCmConnectionMethodExt@@H@Z @ 62 NONAME ; class RCmConnectionMethodExt RCmDestinationExt::ConnectionMethodL(int)
	?ConnectionMethodL@RCmManager@@QBE?AVRCmConnectionMethod@@K@Z @ 63 NONAME ; class RCmConnectionMethod RCmManager::ConnectionMethodL(unsigned long) const
	?ConnectionMethodL@RCmManager@@QBEXAAV?$RArray@K@@HHH@Z @ 64 NONAME ; void RCmManager::ConnectionMethodL(class RArray<unsigned long> &, int, int, int) const
	?ConnectionMethodL@RCmManagerExt@@QAE?AVRCmConnectionMethodExt@@K@Z @ 65 NONAME ; class RCmConnectionMethodExt RCmManagerExt::ConnectionMethodL(unsigned long)
	?ConnectionMethodL@RCmManagerExt@@QAEXAAV?$RArray@K@@HHH@Z @ 66 NONAME ; void RCmManagerExt::ConnectionMethodL(class RArray<unsigned long> &, int, int, int)
	?ConstructAndRunLD@CmPluginBaseSettingsDlg@@QAEHXZ @ 67 NONAME ABSENT ; int CmPluginBaseSettingsDlg::ConstructAndRunLD(void)
	?ConstructL@CCmPluginBaseEng@@MAEXXZ @ 68 NONAME ABSENT ; void CCmPluginBaseEng::ConstructL(void)
	?ConstructL@CCmPluginLanBase@@MAEXXZ @ 69 NONAME ABSENT ; void CCmPluginLanBase::ConstructL(void)
	?ConvTableItem@CCmPluginBaseEng@@QAEPBUTCmAttribConvTable@@K@Z @ 70 NONAME ABSENT ; struct TCmAttribConvTable const * CCmPluginBaseEng::ConvTableItem(unsigned long)
	?CopyConnectionMethodL@RCmManagerExt@@QAEHAAVRCmDestinationExt@@AAVRCmConnectionMethodExt@@@Z @ 71 NONAME ; int RCmManagerExt::CopyConnectionMethodL(class RCmDestinationExt &, class RCmConnectionMethodExt &)
	?CreateConnectionMethodL@RCmDestinationExt@@QAE?AVRCmConnectionMethodExt@@K@Z @ 72 NONAME ; class RCmConnectionMethodExt RCmDestinationExt::CreateConnectionMethodL(unsigned long)
	?CreateConnectionMethodL@RCmManagerExt@@QAE?AVRCmConnectionMethodExt@@K@Z @ 73 NONAME ; class RCmConnectionMethodExt RCmManagerExt::CreateConnectionMethodL(unsigned long)
	?CreateCopyL@CCmPluginBaseEng@@UBEPAV1@XZ @ 74 NONAME ABSENT ; class CCmPluginBaseEng * CCmPluginBaseEng::CreateCopyL(void) const
	?CreateCopyL@RCmConnectionMethodExt@@QAE?AV1@XZ @ 75 NONAME ; class RCmConnectionMethodExt RCmConnectionMethodExt::CreateCopyL(void)
	?CreateDestinationL@RCmManagerExt@@QAE?AVRCmDestinationExt@@ABVTDesC16@@@Z @ 76 NONAME ; class RCmDestinationExt RCmManagerExt::CreateDestinationL(class TDesC16 const &)
	?CreateNewL@CCmPluginBaseEng@@UAEXXZ @ 77 NONAME ABSENT ; void CCmPluginBaseEng::CreateNewL(void)
	?CreateNewServiceRecordL@CCmPluginLanBase@@MAEXXZ @ 78 NONAME ABSENT ; void CCmPluginLanBase::CreateNewServiceRecordL(void)
	?DeleteConnectionMethodL@RCmDestinationExt@@QAEXAAVRCmConnectionMethodExt@@@Z @ 79 NONAME ; void RCmDestinationExt::DeleteConnectionMethodL(class RCmConnectionMethodExt &)
	?DeleteL@CCmPluginBaseEng@@UAEHHH@Z @ 80 NONAME ABSENT ; int CCmPluginBaseEng::DeleteL(int, int)
	?DeleteL@RCmConnectionMethodExt@@QAEHXZ @ 81 NONAME ; int RCmConnectionMethodExt::DeleteL(void)
	?DeleteLD@CCmDestinationImpl@@QAEXXZ @ 82 NONAME ABSENT ; void CCmDestinationImpl::DeleteLD(void)
	?DeleteLD@RCmDestinationExt@@QAEXXZ @ 83 NONAME ; void RCmDestinationExt::DeleteLD(void)
	?Destination@CCmPluginBaseEng@@UBEPAVCCmDestinationImpl@@XZ @ 84 NONAME ABSENT ; class CCmDestinationImpl * CCmPluginBaseEng::Destination(void) const
	?DestinationL@CCmManagerImpl@@QAEPAVCCmDestinationImpl@@K@Z @ 85 NONAME ABSENT ; class CCmDestinationImpl * CCmManagerImpl::DestinationL(unsigned long)
	?DestinationL@RCmConnectionMethod@@QBE?AVRCmDestination@@XZ @ 86 NONAME ; class RCmDestination RCmConnectionMethod::DestinationL(void) const
	?DestinationL@RCmConnectionMethodExt@@QBE?AVRCmDestinationExt@@XZ @ 87 NONAME ; class RCmDestinationExt RCmConnectionMethodExt::DestinationL(void) const
	?DestinationL@RCmManager@@QBE?AVRCmDestination@@K@Z @ 88 NONAME ; class RCmDestination RCmManager::DestinationL(unsigned long) const
	?DestinationL@RCmManagerExt@@QAE?AVRCmDestinationExt@@K@Z @ 89 NONAME ; class RCmDestinationExt RCmManagerExt::DestinationL(unsigned long)
	?DynInitMenuPaneL@CmPluginBaseSettingsDlg@@MAEXHPAVCEikMenuPane@@@Z @ 90 NONAME ABSENT ; void CmPluginBaseSettingsDlg::DynInitMenuPaneL(int, class CEikMenuPane *)
	?DynInitMenuPaneL@CmPluginBaseSettingsDlgAdv@@UAEXHPAVCEikMenuPane@@@Z @ 91 NONAME ABSENT ; void CmPluginBaseSettingsDlgAdv::DynInitMenuPaneL(int, class CEikMenuPane *)
	?DynInitMenuPaneL@CmPluginBaseSettingsDlgIp@@UAEXHPAVCEikMenuPane@@@Z @ 92 NONAME ABSENT ; void CmPluginBaseSettingsDlgIp::DynInitMenuPaneL(int, class CEikMenuPane *)
	?EasyWlanIdL@CCmManagerImpl@@QAEKXZ @ 93 NONAME ABSENT ; unsigned long CCmManagerImpl::EasyWlanIdL(void)
	?EasyWlanIdL@RCmManager@@QBEKXZ @ 94 NONAME ; unsigned long RCmManager::EasyWlanIdL(void) const
	?EasyWlanIdL@RCmManagerExt@@QAEKXZ @ 95 NONAME ; unsigned long RCmManagerExt::EasyWlanIdL(void)
	?ElementId@RCmDestination@@QBEKXZ @ 96 NONAME ; unsigned long RCmDestination::ElementId(void) const
	?ElementId@RCmDestinationExt@@QAEKXZ @ 97 NONAME ; unsigned long RCmDestinationExt::ElementId(void)
	?EnableChargeCardL@CCmPluginBaseEng@@AAEXH@Z @ 98 NONAME ABSENT ; void CCmPluginBaseEng::EnableChargeCardL(int)
	?EnableLocationL@CCmPluginBaseEng@@AAEXH@Z @ 99 NONAME ABSENT ; void CCmPluginBaseEng::EnableLocationL(int)
	?EnableProxyL@CCmPluginBaseEng@@AAEXH@Z @ 100 NONAME ABSENT ; void CCmPluginBaseEng::EnableProxyL(int)
	?FeatureSupported@CCmPluginBaseEng@@SAHH@Z @ 101 NONAME ABSENT ; int CCmPluginBaseEng::FeatureSupported(int)
	?GetBearerInfoBoolL@CCmManagerImpl@@QBEHKK@Z @ 102 NONAME ABSENT ; int CCmManagerImpl::GetBearerInfoBoolL(unsigned long, unsigned long) const
	?GetBearerInfoBoolL@RCmManager@@QBEHKK@Z @ 103 NONAME ; int RCmManager::GetBearerInfoBoolL(unsigned long, unsigned long) const
	?GetBearerInfoBoolL@RCmManagerExt@@QBEHKK@Z @ 104 NONAME ; int RCmManagerExt::GetBearerInfoBoolL(unsigned long, unsigned long) const
	?GetBearerInfoIntL@CCmManagerImpl@@QBEKKK@Z @ 105 NONAME ABSENT ; unsigned long CCmManagerImpl::GetBearerInfoIntL(unsigned long, unsigned long) const
	?GetBearerInfoIntL@RCmManager@@QBEKKK@Z @ 106 NONAME ; unsigned long RCmManager::GetBearerInfoIntL(unsigned long, unsigned long) const
	?GetBearerInfoIntL@RCmManagerExt@@QBEKKK@Z @ 107 NONAME ; unsigned long RCmManagerExt::GetBearerInfoIntL(unsigned long, unsigned long) const
	?GetBearerInfoString8L@CCmManagerImpl@@QBEPAVHBufC8@@KK@Z @ 108 NONAME ABSENT ; class HBufC8 * CCmManagerImpl::GetBearerInfoString8L(unsigned long, unsigned long) const
	?GetBearerInfoString8L@RCmManager@@QBEPAVHBufC8@@KK@Z @ 109 NONAME ; class HBufC8 * RCmManager::GetBearerInfoString8L(unsigned long, unsigned long) const
	?GetBearerInfoString8L@RCmManagerExt@@QBEPAVHBufC8@@KK@Z @ 110 NONAME ; class HBufC8 * RCmManagerExt::GetBearerInfoString8L(unsigned long, unsigned long) const
	?GetBearerInfoStringL@CCmManagerImpl@@QBEPAVHBufC16@@KK@Z @ 111 NONAME ABSENT ; class HBufC16 * CCmManagerImpl::GetBearerInfoStringL(unsigned long, unsigned long) const
	?GetBearerInfoStringL@RCmManager@@QBEPAVHBufC16@@KK@Z @ 112 NONAME ; class HBufC16 * RCmManager::GetBearerInfoStringL(unsigned long, unsigned long) const
	?GetBearerInfoStringL@RCmManagerExt@@QBEPAVHBufC16@@KK@Z @ 113 NONAME ; class HBufC16 * RCmManagerExt::GetBearerInfoStringL(unsigned long, unsigned long) const
	?GetBoolAttributeL@CCmPluginBaseEng@@UBEHK@Z @ 114 NONAME ABSENT ; int CCmPluginBaseEng::GetBoolAttributeL(unsigned long) const
	?GetBoolAttributeL@RCmConnectionMethod@@QBEHK@Z @ 115 NONAME ; int RCmConnectionMethod::GetBoolAttributeL(unsigned long) const
	?GetBoolAttributeL@RCmConnectionMethodExt@@QBEHK@Z @ 116 NONAME ; int RCmConnectionMethodExt::GetBoolAttributeL(unsigned long) const
	?GetConnectionMethodInfoBoolL@CCmManagerImpl@@QBEHKK@Z @ 117 NONAME ABSENT ; int CCmManagerImpl::GetConnectionMethodInfoBoolL(unsigned long, unsigned long) const
	?GetConnectionMethodInfoBoolL@RCmManager@@QBEHKK@Z @ 118 NONAME ; int RCmManager::GetConnectionMethodInfoBoolL(unsigned long, unsigned long) const
	?GetConnectionMethodInfoBoolL@RCmManagerExt@@QBEHKK@Z @ 119 NONAME ; int RCmManagerExt::GetConnectionMethodInfoBoolL(unsigned long, unsigned long) const
	?GetConnectionMethodInfoIntL@CCmManagerImpl@@QBEKKK@Z @ 120 NONAME ABSENT ; unsigned long CCmManagerImpl::GetConnectionMethodInfoIntL(unsigned long, unsigned long) const
	?GetConnectionMethodInfoIntL@RCmManager@@QBEKKK@Z @ 121 NONAME ; unsigned long RCmManager::GetConnectionMethodInfoIntL(unsigned long, unsigned long) const
	?GetConnectionMethodInfoIntL@RCmManagerExt@@QBEKKK@Z @ 122 NONAME ; unsigned long RCmManagerExt::GetConnectionMethodInfoIntL(unsigned long, unsigned long) const
	?GetConnectionMethodInfoString8L@CCmManagerImpl@@QBEPAVHBufC8@@KK@Z @ 123 NONAME ABSENT ; class HBufC8 * CCmManagerImpl::GetConnectionMethodInfoString8L(unsigned long, unsigned long) const
	?GetConnectionMethodInfoString8L@RCmManager@@QBEPAVHBufC8@@KK@Z @ 124 NONAME ; class HBufC8 * RCmManager::GetConnectionMethodInfoString8L(unsigned long, unsigned long) const
	?GetConnectionMethodInfoString8L@RCmManagerExt@@QBEPAVHBufC8@@KK@Z @ 125 NONAME ; class HBufC8 * RCmManagerExt::GetConnectionMethodInfoString8L(unsigned long, unsigned long) const
	?GetConnectionMethodInfoStringL@CCmManagerImpl@@QBEPAVHBufC16@@KK@Z @ 126 NONAME ABSENT ; class HBufC16 * CCmManagerImpl::GetConnectionMethodInfoStringL(unsigned long, unsigned long) const
	?GetConnectionMethodInfoStringL@RCmManager@@QBEPAVHBufC16@@KK@Z @ 127 NONAME ; class HBufC16 * RCmManager::GetConnectionMethodInfoStringL(unsigned long, unsigned long) const
	?GetConnectionMethodInfoStringL@RCmManagerExt@@QBEPAVHBufC16@@KK@Z @ 128 NONAME ; class HBufC16 * RCmManagerExt::GetConnectionMethodInfoStringL(unsigned long, unsigned long) const
	?GetHelpContext@CmPluginBaseSettingsDlg@@UBEXAAVTCoeHelpContext@@@Z @ 129 NONAME ABSENT ; void CmPluginBaseSettingsDlg::GetHelpContext(class TCoeHelpContext &) const
	?GetIPv6DNSTypeL@CmPluginBaseSettingsDlg@@QAEHKK@Z @ 130 NONAME ABSENT ; int CmPluginBaseSettingsDlg::GetIPv6DNSTypeL(unsigned long, unsigned long)
	?GetIntAttributeL@CCmPluginBaseEng@@UBEKK@Z @ 131 NONAME ABSENT ; unsigned long CCmPluginBaseEng::GetIntAttributeL(unsigned long) const
	?GetIntAttributeL@RCmConnectionMethod@@QBEKK@Z @ 132 NONAME ; unsigned long RCmConnectionMethod::GetIntAttributeL(unsigned long) const
	?GetIntAttributeL@RCmConnectionMethodExt@@QBEKK@Z @ 133 NONAME ; unsigned long RCmConnectionMethodExt::GetIntAttributeL(unsigned long) const
	?GetString8AttributeL@CCmPluginBaseEng@@UBEPAVHBufC8@@K@Z @ 134 NONAME ABSENT ; class HBufC8 * CCmPluginBaseEng::GetString8AttributeL(unsigned long) const
	?GetString8AttributeL@RCmConnectionMethod@@QBEPAVHBufC8@@K@Z @ 135 NONAME ; class HBufC8 * RCmConnectionMethod::GetString8AttributeL(unsigned long) const
	?GetString8AttributeL@RCmConnectionMethodExt@@QBEPAVHBufC8@@K@Z @ 136 NONAME ; class HBufC8 * RCmConnectionMethodExt::GetString8AttributeL(unsigned long) const
	?GetStringAttributeL@CCmPluginBaseEng@@UBEPAVHBufC16@@K@Z @ 137 NONAME ABSENT ; class HBufC16 * CCmPluginBaseEng::GetStringAttributeL(unsigned long) const
	?GetStringAttributeL@RCmConnectionMethod@@QBEPAVHBufC16@@K@Z @ 138 NONAME ; class HBufC16 * RCmConnectionMethod::GetStringAttributeL(unsigned long) const
	?GetStringAttributeL@RCmConnectionMethodExt@@QBEPAVHBufC16@@K@Z @ 139 NONAME ; class HBufC16 * RCmConnectionMethodExt::GetStringAttributeL(unsigned long) const
	?GlobalBearerPriority@CCmPluginBaseEng@@IBEHABVTDesC16@@@Z @ 140 NONAME ABSENT ; int CCmPluginBaseEng::GlobalBearerPriority(class TDesC16 const &) const
	?GlobalUiBearerPriority@CCmPluginBaseEng@@IBEHABVTDesC16@@@Z @ 141 NONAME ABSENT ; int CCmPluginBaseEng::GlobalUiBearerPriority(class TDesC16 const &) const
	?HandleListBoxEventL@CmPluginBaseSettingsDlg@@MAEXPAVCEikListBox@@W4TListBoxEvent@MEikListBoxObserver@@@Z @ 142 NONAME ABSENT ; void CmPluginBaseSettingsDlg::HandleListBoxEventL(class CEikListBox *, enum MEikListBoxObserver::TListBoxEvent)
	?HandleListboxDataChangeL@CmPluginBaseSettingsDlg@@QAEXXZ @ 143 NONAME ABSENT ; void CmPluginBaseSettingsDlg::HandleListboxDataChangeL(void)
	?IAPRecordElementId@CCmPluginBaseEng@@QBEKXZ @ 144 NONAME ABSENT ; unsigned long CCmPluginBaseEng::IAPRecordElementId(void) const
	?IconL@CCmDestinationImpl@@QAEPAVCGulIcon@@XZ @ 145 NONAME ABSENT ; class CGulIcon * CCmDestinationImpl::IconL(void)
	?IconL@RCmDestination@@QBEPAVCGulIcon@@XZ @ 146 NONAME ABSENT ; class CGulIcon * RCmDestination::IconL(void) const
	?IconL@RCmDestinationExt@@QAEPAVCGulIcon@@XZ @ 147 NONAME ABSENT ; class CGulIcon * RCmDestinationExt::IconL(void)
	?Id@RCmDestination@@QBEKXZ @ 148 NONAME ; unsigned long RCmDestination::Id(void) const
	?Id@RCmDestinationExt@@QAEKXZ @ 149 NONAME ; unsigned long RCmDestinationExt::Id(void)
	?InitTextsL@CmPluginBaseSettingsDlg@@UAEXXZ @ 150 NONAME ABSENT ; void CmPluginBaseSettingsDlg::InitTextsL(void)
	?InitializeWithUiL@CCmPluginLanBase@@UAEHH@Z @ 151 NONAME ABSENT ; int CCmPluginLanBase::InitializeWithUiL(int)
	?IsConnectedL@CCmDestinationImpl@@QBEHXZ @ 152 NONAME ABSENT ; int CCmDestinationImpl::IsConnectedL(void) const
	?IsConnectedL@RCmDestination@@QBEHXZ @ 153 NONAME ; int RCmDestination::IsConnectedL(void) const
	?IsConnectedL@RCmDestinationExt@@QBEHXZ @ 154 NONAME ; int RCmDestinationExt::IsConnectedL(void) const
	?IsHidden@CCmDestinationImpl@@QAEHXZ @ 155 NONAME ABSENT ; int CCmDestinationImpl::IsHidden(void)
	?IsHidden@RCmDestination@@QBEHXZ @ 156 NONAME ; int RCmDestination::IsHidden(void) const
	?IsHidden@RCmDestinationExt@@QAEHXZ @ 157 NONAME ; int RCmDestinationExt::IsHidden(void)
	?IsProtected@CCmPluginBaseEng@@QBEHXZ @ 158 NONAME ABSENT ; int CCmPluginBaseEng::IsProtected(void) const
	?IsUnspecifiedIPv4Address@@YAHABVTDesC16@@@Z @ 159 NONAME ABSENT ; int IsUnspecifiedIPv4Address(class TDesC16 const &)
	?LoadL@CCmPluginBaseEng@@UAEXK@Z @ 160 NONAME ABSENT ; void CCmPluginBaseEng::LoadL(unsigned long)
	?LoadResourceL@CmPluginBaseSettingsDlg@@IAEHABVTDesC16@@@Z @ 161 NONAME ABSENT ; int CmPluginBaseSettingsDlg::LoadResourceL(class TDesC16 const &)
	?LoadServiceSettingL@CCmPluginBaseEng@@MAEXXZ @ 162 NONAME ABSENT ; void CCmPluginBaseEng::LoadServiceSettingL(void)
	?LoadServiceSettingL@CCmPluginLanBase@@UAEXXZ @ 163 NONAME ABSENT ; void CCmPluginLanBase::LoadServiceSettingL(void)
	?MetadataL@RCmDestination@@QBEKW4TSnapMetadataField@CMManager@@@Z @ 164 NONAME ; unsigned long RCmDestination::MetadataL(enum CMManager::TSnapMetadataField) const
	?MetadataL@RCmDestinationExt@@QBEKW4TSnapMetadataField@CMManager@@@Z @ 165 NONAME ; unsigned long RCmDestinationExt::MetadataL(enum CMManager::TSnapMetadataField) const
	?ModifyPriorityL@RCmDestinationExt@@QAEXAAVRCmConnectionMethodExt@@I@Z @ 166 NONAME ; void RCmDestinationExt::ModifyPriorityL(class RCmConnectionMethodExt &, unsigned int)
	?MoveConnectionMethodL@RCmManagerExt@@QAEHAAVRCmDestinationExt@@0AAVRCmConnectionMethodExt@@@Z @ 167 NONAME ; int RCmManagerExt::MoveConnectionMethodL(class RCmDestinationExt &, class RCmDestinationExt &, class RCmConnectionMethodExt &)
	?NameLC@CCmDestinationImpl@@QAEPAVHBufC16@@XZ @ 168 NONAME ABSENT ; class HBufC16 * CCmDestinationImpl::NameLC(void)
	?NameLC@RCmDestination@@QBEPAVHBufC16@@XZ @ 169 NONAME ; class HBufC16 * RCmDestination::NameLC(void) const
	?NameLC@RCmDestinationExt@@QAEPAVHBufC16@@XZ @ 170 NONAME ; class HBufC16 * RCmDestinationExt::NameLC(void)
	?NewL@CCmApplicationSettingsUi@@SAPAV1@XZ @ 171 NONAME ; class CCmApplicationSettingsUi * CCmApplicationSettingsUi::NewL(void)
	?NewL@CCmApplicationSettingsUiImpl@@SAPAV1@XZ @ 172 NONAME ABSENT ; class CCmApplicationSettingsUiImpl * CCmApplicationSettingsUiImpl::NewL(void)
	?NewL@CCmConnSettingsUiImpl@@SAPAV1@PAVCCmManagerImpl@@@Z @ 173 NONAME ABSENT ; class CCmConnSettingsUiImpl * CCmConnSettingsUiImpl::NewL(class CCmManagerImpl *)
	?NewL@CCmDestinationImpl@@SAPAV1@AAVCCmManagerImpl@@ABVTDesC16@@@Z @ 174 NONAME ABSENT ; class CCmDestinationImpl * CCmDestinationImpl::NewL(class CCmManagerImpl &, class TDesC16 const &)
	?NewL@CCmDestinationImpl@@SAPAV1@AAVCCmManagerImpl@@I@Z @ 175 NONAME ABSENT ; class CCmDestinationImpl * CCmDestinationImpl::NewL(class CCmManagerImpl &, unsigned int)
	?NewL@CCmPluginMultiLineDialog@@SAPAV1@AAVTDes16@@0W4TTone@CAknQueryDialog@@@Z @ 176 NONAME ABSENT ; class CCmPluginMultiLineDialog * CCmPluginMultiLineDialog::NewL(class TDes16 &, class TDes16 &, enum CAknQueryDialog::TTone)
	?NewL@CCmSettingsUi@@SAPAV1@XZ @ 177 NONAME ABSENT ; class CCmSettingsUi * CCmSettingsUi::NewL(void)
	?NewLC@CCmApplicationSettingsUi@@SAPAV1@XZ @ 178 NONAME ; class CCmApplicationSettingsUi * CCmApplicationSettingsUi::NewLC(void)
	?NumOfConnMethodReferencesL@CCmPluginBaseEng@@UAEHXZ @ 179 NONAME ABSENT ; int CCmPluginBaseEng::NumOfConnMethodReferencesL(void)
	?OkToExitL@CmPluginBaseSettingsDlg@@MAEHH@Z @ 180 NONAME ABSENT ; int CmPluginBaseSettingsDlg::OkToExitL(int)
	?OpenL@RCmManager@@QAEXXZ @ 181 NONAME ; void RCmManager::OpenL(void)
	?OpenL@RCmManagerExt@@QAEXXZ @ 182 NONAME ; void RCmManagerExt::OpenL(void)
	?OpenLC@RCmManager@@QAEXXZ @ 183 NONAME ; void RCmManager::OpenLC(void)
	?OpenLC@RCmManagerExt@@QAEXXZ @ 184 NONAME ; void RCmManagerExt::OpenLC(void)
	?PreLayoutDynInitL@CmPluginBaseSettingsDlg@@MAEXXZ @ 185 NONAME ABSENT ; void CmPluginBaseSettingsDlg::PreLayoutDynInitL(void)
	?PrepareToLoadRecordsL@CCmPluginBaseEng@@MAEXXZ @ 186 NONAME ABSENT ; void CCmPluginBaseEng::PrepareToLoadRecordsL(void)
	?PrepareToUpdateRecordsL@CCmPluginBaseEng@@MAEXXZ @ 187 NONAME ABSENT ; void CCmPluginBaseEng::PrepareToUpdateRecordsL(void)
	?PrepareToUpdateRecordsL@CCmPluginLanBase@@UAEXXZ @ 188 NONAME ABSENT ; void CCmPluginLanBase::PrepareToUpdateRecordsL(void)
	?PriorityL@CCmDestinationImpl@@QAEIAAVCCmPluginBaseEng@@@Z @ 189 NONAME ABSENT ; unsigned int CCmDestinationImpl::PriorityL(class CCmPluginBaseEng &)
	?PriorityL@RCmDestination@@QBEIABVRCmConnectionMethod@@@Z @ 190 NONAME ; unsigned int RCmDestination::PriorityL(class RCmConnectionMethod const &) const
	?PriorityL@RCmDestinationExt@@QAEIABVRCmConnectionMethodExt@@@Z @ 191 NONAME ; unsigned int RCmDestinationExt::PriorityL(class RCmConnectionMethodExt const &)
	?ProcessCommandL@CmPluginBaseSettingsDlg@@UAEXH@Z @ 192 NONAME ABSENT ; void CmPluginBaseSettingsDlg::ProcessCommandL(int)
	?ProtectionLevel@CCmDestinationImpl@@QAE?AW4TProtectionLevel@CMManager@@XZ @ 193 NONAME ABSENT ; enum CMManager::TProtectionLevel CCmDestinationImpl::ProtectionLevel(void)
	?ProtectionLevel@RCmDestination@@QBE?AW4TProtectionLevel@CMManager@@XZ @ 194 NONAME ; enum CMManager::TProtectionLevel RCmDestination::ProtectionLevel(void) const
	?ProtectionLevel@RCmDestinationExt@@QAE?AW4TProtectionLevel@CMManager@@XZ @ 195 NONAME ; enum CMManager::TProtectionLevel RCmDestinationExt::ProtectionLevel(void)
	?ReadDefConnL@RCmManager@@QAEXAAUTCmDefConnValue@@@Z @ 196 NONAME ; void RCmManager::ReadDefConnL(struct TCmDefConnValue &)
	?ReadDefConnL@RCmManagerExt@@QAEXAAUTCmDefConnValue@@@Z @ 197 NONAME ; void RCmManagerExt::ReadDefConnL(struct TCmDefConnValue &)
	?ReadOnlyAttributeL@@YAHPAVCCmPluginBaseEng@@KPBX@Z @ 198 NONAME ABSENT ; int ReadOnlyAttributeL(class CCmPluginBaseEng *, unsigned long, void const *)
	?RemoveAllReferencesL@RCmManagerExt@@QAEXAAVRCmConnectionMethodExt@@@Z @ 199 NONAME ; void RCmManagerExt::RemoveAllReferencesL(class RCmConnectionMethodExt &)
	?RemoveCommonConversionTable@CCmPluginBaseEng@@IAEXPBUTCmCommonAttrConvArrayItem@@@Z @ 200 NONAME ABSENT ; void CCmPluginBaseEng::RemoveCommonConversionTable(struct TCmCommonAttrConvArrayItem const *)
	?RemoveConnectionMethodL@RCmDestinationExt@@QAEXVRCmConnectionMethodExt@@@Z @ 201 NONAME ; void RCmDestinationExt::RemoveConnectionMethodL(class RCmConnectionMethodExt)
	?RemoveConnectionMethodL@RCmManagerExt@@QAEXAAVRCmDestinationExt@@AAVRCmConnectionMethodExt@@@Z @ 202 NONAME ; void RCmManagerExt::RemoveConnectionMethodL(class RCmDestinationExt &, class RCmConnectionMethodExt &)
	?RemoveConversionTable@CCmPluginBaseEng@@IAEXPBUTCmAttribConvTable@@@Z @ 203 NONAME ABSENT ; void CCmPluginBaseEng::RemoveConversionTable(struct TCmAttribConvTable const *)
	?RemoveFromPool@CCmDestinationImpl@@QAEXXZ @ 204 NONAME ABSENT ; void CCmDestinationImpl::RemoveFromPool(void)
	?RemoveResourceFile@CCmPluginBaseEng@@IAEXABVTDesC16@@@Z @ 205 NONAME ABSENT ; void CCmPluginBaseEng::RemoveResourceFile(class TDesC16 const &)
	?Reset@CCmPluginBaseEng@@IAEXXZ @ 206 NONAME ABSENT ; void CCmPluginBaseEng::Reset(void)
	?RestoreAttributeL@CCmPluginBaseEng@@UAEXK@Z @ 207 NONAME ABSENT ; void CCmPluginBaseEng::RestoreAttributeL(unsigned long)
	?RunAdvancedSettingsL@CmPluginBaseSettingsDlgAdv@@UAEXXZ @ 208 NONAME ABSENT ; void CmPluginBaseSettingsDlgAdv::RunAdvancedSettingsL(void)
	?RunAdvancedSettingsL@CmPluginBaseSettingsDlgIp@@UAEXXZ @ 209 NONAME ABSENT ; void CmPluginBaseSettingsDlgIp::RunAdvancedSettingsL(void)
	?RunApplicationSettingsL@CCmApplicationSettingsUi@@QAEHAAUTCmSettingSelection@@@Z @ 210 NONAME ; int CCmApplicationSettingsUi::RunApplicationSettingsL(struct TCmSettingSelection &)
	?RunApplicationSettingsL@CCmApplicationSettingsUi@@QAEHAAUTCmSettingSelection@@IAAV?$RArray@K@@@Z @ 211 NONAME ; int CCmApplicationSettingsUi::RunApplicationSettingsL(struct TCmSettingSelection &, unsigned int, class RArray<unsigned long> &)
	?RunApplicationSettingsL@CCmApplicationSettingsUiImpl@@QAEHAAUTCmSettingSelection@@@Z @ 212 NONAME ABSENT ; int CCmApplicationSettingsUiImpl::RunApplicationSettingsL(struct TCmSettingSelection &)
	?RunApplicationSettingsL@CCmConnSettingsUiImpl@@QAEHAAUTCmSettingSelection@@IAAV?$RArray@K@@@Z @ 213 NONAME ABSENT ; int CCmConnSettingsUiImpl::RunApplicationSettingsL(struct TCmSettingSelection &, unsigned int, class RArray<unsigned long> &)
	?RunSettingsL@CCmPluginLanBase@@UAEHXZ @ 214 NONAME ABSENT ; int CCmPluginLanBase::RunSettingsL(void)
	?RunSettingsL@CCmSettingsUi@@QAE?AW4TResult@1@XZ @ 215 NONAME ABSENT ; enum CCmSettingsUi::TResult CCmSettingsUi::RunSettingsL(void)
	?SelectDestinationDlgL@CCmSettingsUi@@QAEHAAK@Z @ 216 NONAME ABSENT ; int CCmSettingsUi::SelectDestinationDlgL(unsigned long &)
	?SelectItem@CmPluginBaseSettingsDlg@@IAEXH@Z @ 217 NONAME ABSENT ; void CmPluginBaseSettingsDlg::SelectItem(int)
	?ServiceRecord@CCmPluginLanBase@@ABEAAVCCDLANServiceRecord@CommsDat@@XZ @ 218 NONAME ABSENT ; class CommsDat::CCDLANServiceRecord & CCmPluginLanBase::ServiceRecord(void) const
	?ServiceRecordIdLC@CCmPluginLanBase@@MAEXAAPAVHBufC16@@AAK@Z @ 219 NONAME ABSENT ; void CCmPluginLanBase::ServiceRecordIdLC(class HBufC16 * &, unsigned long &)
	?Session@CCmPluginBaseEng@@QBEAAVCMDBSession@CommsDat@@XZ @ 220 NONAME ABSENT ; class CommsDat::CMDBSession & CCmPluginBaseEng::Session(void) const
	?SetBoolAttributeL@CCmPluginBaseEng@@UAEXKH@Z @ 221 NONAME ABSENT ; void CCmPluginBaseEng::SetBoolAttributeL(unsigned long, int)
	?SetBoolAttributeL@RCmConnectionMethodExt@@QAEXKH@Z @ 222 NONAME ; void RCmConnectionMethodExt::SetBoolAttributeL(unsigned long, int)
	?SetDNSServerAddressL@CCmPluginBaseEng@@QAEXKABVTDesC16@@K0KH@Z @ 223 NONAME ABSENT ; void CCmPluginBaseEng::SetDNSServerAddressL(unsigned long, class TDesC16 const &, unsigned long, class TDesC16 const &, unsigned long, int)
	?SetHiddenL@CCmDestinationImpl@@QAEXH@Z @ 224 NONAME ABSENT ; void CCmDestinationImpl::SetHiddenL(int)
	?SetHiddenL@RCmDestinationExt@@QAEXH@Z @ 225 NONAME ; void RCmDestinationExt::SetHiddenL(int)
	?SetIconL@CCmDestinationImpl@@QAEXK@Z @ 226 NONAME ABSENT ; void CCmDestinationImpl::SetIconL(unsigned long)
	?SetIconL@RCmDestinationExt@@QAEXK@Z @ 227 NONAME ABSENT ; void RCmDestinationExt::SetIconL(unsigned long)
	?SetIntAttributeL@CCmPluginBaseEng@@UAEXKK@Z @ 228 NONAME ABSENT ; void CCmPluginBaseEng::SetIntAttributeL(unsigned long, unsigned long)
	?SetIntAttributeL@RCmConnectionMethodExt@@QAEXKK@Z @ 229 NONAME ; void RCmConnectionMethodExt::SetIntAttributeL(unsigned long, unsigned long)
	?SetMetadataL@RCmDestinationExt@@QAEXW4TSnapMetadataField@CMManager@@K@Z @ 230 NONAME ; void RCmDestinationExt::SetMetadataL(enum CMManager::TSnapMetadataField, unsigned long)
	?SetNameL@CCmDestinationImpl@@QAEXABVTDesC16@@@Z @ 231 NONAME ABSENT ; void CCmDestinationImpl::SetNameL(class TDesC16 const &)
	?SetNameL@RCmDestinationExt@@QAEXABVTDesC16@@@Z @ 232 NONAME ; void RCmDestinationExt::SetNameL(class TDesC16 const &)
	?SetProtectionL@CCmDestinationImpl@@QAEXW4TProtectionLevel@CMManager@@@Z @ 233 NONAME ABSENT ; void CCmDestinationImpl::SetProtectionL(enum CMManager::TProtectionLevel)
	?SetProtectionL@RCmDestinationExt@@QAEXW4TProtectionLevel@CMManager@@@Z @ 234 NONAME ; void RCmDestinationExt::SetProtectionL(enum CMManager::TProtectionLevel)
	?SetProxyServerNameL@@YAHPAVCCmPluginBaseEng@@KPBX@Z @ 235 NONAME ABSENT ; int SetProxyServerNameL(class CCmPluginBaseEng *, unsigned long, void const *)
	?SetString8AttributeL@CCmPluginBaseEng@@UAEXKABVTDesC8@@@Z @ 236 NONAME ABSENT ; void CCmPluginBaseEng::SetString8AttributeL(unsigned long, class TDesC8 const &)
	?SetString8AttributeL@RCmConnectionMethodExt@@QAEXKABVTDesC8@@@Z @ 237 NONAME ; void RCmConnectionMethodExt::SetString8AttributeL(unsigned long, class TDesC8 const &)
	?SetStringAttributeL@CCmPluginBaseEng@@UAEXKABVTDesC16@@@Z @ 238 NONAME ABSENT ; void CCmPluginBaseEng::SetStringAttributeL(unsigned long, class TDesC16 const &)
	?SetStringAttributeL@RCmConnectionMethodExt@@QAEXKABVTDesC16@@@Z @ 239 NONAME ; void RCmConnectionMethodExt::SetStringAttributeL(unsigned long, class TDesC16 const &)
	?ShowConfirmationQueryL@TCmCommonUi@@SAHH@Z @ 240 NONAME ABSENT ; int TCmCommonUi::ShowConfirmationQueryL(int)
	?ShowConfirmationQueryL@TCmCommonUi@@SAHHABVTDesC16@@@Z @ 241 NONAME ABSENT ; int TCmCommonUi::ShowConfirmationQueryL(int, class TDesC16 const &)
	?ShowConfirmationQueryWithInputL@TCmCommonUi@@SAHHAAVTDes16@@@Z @ 242 NONAME ABSENT ; int TCmCommonUi::ShowConfirmationQueryWithInputL(int, class TDes16 &)
	?ShowNoteL@TCmCommonUi@@SAHABVTDesC16@@W4TCmNoteType@1@@Z @ 243 NONAME ABSENT ; int TCmCommonUi::ShowNoteL(class TDesC16 const &, enum TCmCommonUi::TCmNoteType)
	?ShowNoteL@TCmCommonUi@@SAHHABVTDesC16@@W4TCmNoteType@1@@Z @ 244 NONAME ABSENT ; int TCmCommonUi::ShowNoteL(int, class TDesC16 const &, enum TCmCommonUi::TCmNoteType)
	?ShowNoteL@TCmCommonUi@@SAHHW4TCmNoteType@1@@Z @ 245 NONAME ABSENT ; int TCmCommonUi::ShowNoteL(int, enum TCmCommonUi::TCmNoteType)
	?ShowPopupIPv4DNSEditorL@CmPluginBaseSettingsDlg@@QAEHKKKK@Z @ 246 NONAME ABSENT ; int CmPluginBaseSettingsDlg::ShowPopupIPv4DNSEditorL(unsigned long, unsigned long, unsigned long, unsigned long)
	?ShowPopupIPv6DNSEditorL@CmPluginBaseSettingsDlg@@QAEHPBKKKK@Z @ 247 NONAME ABSENT ; int CmPluginBaseSettingsDlg::ShowPopupIPv6DNSEditorL(unsigned long const *, unsigned long, unsigned long, unsigned long)
	?ShowPopupIpSettingPageL@CmPluginBaseSettingsDlg@@QAEHKK@Z @ 248 NONAME ABSENT ; int CmPluginBaseSettingsDlg::ShowPopupIpSettingPageL(unsigned long, unsigned long)
	?ShowPopupListL@TCmCommonUi@@SAHABVTDesC16@@PAVCDesC16ArrayFlat@@PAV?$CArrayPtr@VCGulIcon@@@@IAAH@Z @ 249 NONAME ABSENT ; int TCmCommonUi::ShowPopupListL(class TDesC16 const &, class CDesC16ArrayFlat *, class CArrayPtr<class CGulIcon> *, unsigned int, int &)
	?ShowPopupPasswordSettingPageL@CmPluginBaseSettingsDlg@@QAEHKK@Z @ 250 NONAME ABSENT ; int CmPluginBaseSettingsDlg::ShowPopupPasswordSettingPageL(unsigned long, unsigned long)
	?ShowPopupPortNumSettingPageL@CmPluginBaseSettingsDlg@@QAEHKK@Z @ 251 NONAME ABSENT ; int CmPluginBaseSettingsDlg::ShowPopupPortNumSettingPageL(unsigned long, unsigned long)
	?ShowPopupSettingPageL@CmPluginBaseSettingsDlg@@MAEHKH@Z @ 252 NONAME ABSENT ; int CmPluginBaseSettingsDlg::ShowPopupSettingPageL(unsigned long, int)
	?ShowPopupSettingPageL@CmPluginBaseSettingsDlgAdv@@MAEHHH@Z @ 253 NONAME ABSENT ; int CmPluginBaseSettingsDlgAdv::ShowPopupSettingPageL(int, int)
	?ShowPopupTextSettingPageL@CmPluginBaseSettingsDlg@@QAEHKK@Z @ 254 NONAME ABSENT ; int CmPluginBaseSettingsDlg::ShowPopupTextSettingPageL(unsigned long, unsigned long)
	?ShowRadioButtonSettingPageL@CmPluginBaseSettingsDlg@@QAEHAAVCDesC16ArrayFlat@@AAHK@Z @ 255 NONAME ABSENT ; int CmPluginBaseSettingsDlg::ShowRadioButtonSettingPageL(class CDesC16ArrayFlat &, int &, unsigned long)
	?ShowRadioButtonSettingPageL@CmPluginBaseSettingsDlg@@QAEHPBKAAHK@Z @ 256 NONAME ABSENT ; int CmPluginBaseSettingsDlg::ShowRadioButtonSettingPageL(unsigned long const *, int &, unsigned long)
	?StringAttributeWithDefaultL@CmPluginBaseSettingsDlg@@IAEPAVHBufC16@@KK@Z @ 257 NONAME ABSENT ; class HBufC16 * CmPluginBaseSettingsDlg::StringAttributeWithDefaultL(unsigned long, unsigned long)
	?SupportedBearersL@RCmManagerExt@@QBEXAAV?$RArray@K@@@Z @ 258 NONAME ; void RCmManagerExt::SupportedBearersL(class RArray<unsigned long> &) const
	?UncategorizedIconL@RCmManagerExt@@QBEPAVCGulIcon@@XZ @ 259 NONAME ABSENT ; class CGulIcon * RCmManagerExt::UncategorizedIconL(void) const
	?UpdateBearerPriorityArrayL@RCmManagerExt@@QAEXABV?$RArray@VTBearerPriority@@@@@Z @ 260 NONAME ; void RCmManagerExt::UpdateBearerPriorityArrayL(class RArray<class TBearerPriority> const &)
	?UpdateL@CCmDestinationImpl@@QAEXXZ @ 261 NONAME ABSENT ; void CCmDestinationImpl::UpdateL(void)
	?UpdateL@CCmPluginBaseEng@@UAEXXZ @ 262 NONAME ABSENT ; void CCmPluginBaseEng::UpdateL(void)
	?UpdateL@RCmConnectionMethodExt@@QAEXXZ @ 263 NONAME ; void RCmConnectionMethodExt::UpdateL(void)
	?UpdateL@RCmDestinationExt@@QAEXXZ @ 264 NONAME ; void RCmDestinationExt::UpdateL(void)
	?UpdateListBoxContentL@CmPluginBaseSettingsDlg@@MAEXXZ @ 265 NONAME ABSENT ; void CmPluginBaseSettingsDlg::UpdateListBoxContentL(void)
	?UpdateListBoxContentL@CmPluginBaseSettingsDlgAdv@@MAEXXZ @ 266 NONAME ABSENT ; void CmPluginBaseSettingsDlgAdv::UpdateListBoxContentL(void)
	?UpdateListBoxContentL@CmPluginBaseSettingsDlgIp@@MAEXXZ @ 267 NONAME ABSENT ; void CmPluginBaseSettingsDlgIp::UpdateListBoxContentL(void)
	?UpdateProxyRecordL@CCmPluginBaseEng@@AAEXXZ @ 268 NONAME ABSENT ; void CCmPluginBaseEng::UpdateProxyRecordL(void)
	?UpdateServiceRecordL@CCmPluginBaseEng@@MAEXXZ @ 269 NONAME ABSENT ; void CCmPluginBaseEng::UpdateServiceRecordL(void)
	?WriteDefConnL@RCmManagerExt@@QAEXABUTCmDefConnValue@@@Z @ 270 NONAME ; void RCmManagerExt::WriteDefConnL(struct TCmDefConnValue const &)
	??0RCmDestination@@QAE@XZ @ 271 NONAME ; RCmDestination::RCmDestination(void)
	??0RCmDestinationExt@@QAE@XZ @ 272 NONAME ; RCmDestinationExt::RCmDestinationExt(void)
	??8RCmDestination@@QBEHABV0@@Z @ 273 NONAME ; int RCmDestination::operator==(class RCmDestination const &) const
	??8RCmDestinationExt@@QBEHABV0@@Z @ 274 NONAME ; int RCmDestinationExt::operator==(class RCmDestinationExt const &) const
	??9RCmDestination@@QBEHABV0@@Z @ 275 NONAME ; int RCmDestination::operator!=(class RCmDestination const &) const
	??9RCmDestinationExt@@QBEHABV0@@Z @ 276 NONAME ; int RCmDestinationExt::operator!=(class RCmDestinationExt const &) const
	??0CCmPluginBase@@QAE@PAVCCmPluginBaseEng@@@Z @ 277 NONAME ABSENT ; CCmPluginBase::CCmPluginBase(class CCmPluginBaseEng *)
	??1CCmPluginBase@@UAE@XZ @ 278 NONAME ABSENT ; CCmPluginBase::~CCmPluginBase(void)
	?AddResourceFileL@CCmPluginBase@@IAEXABVTDesC16@@@Z @ 279 NONAME ABSENT ; void CCmPluginBase::AddResourceFileL(class TDesC16 const &)
	?AllocReadL@CCmPluginBase@@IBEPAVHBufC16@@H@Z @ 280 NONAME ABSENT ; class HBufC16 * CCmPluginBase::AllocReadL(int) const
	?CmMgr@CCmPluginBase@@QBEAAVCCmManagerImpl@@XZ @ 281 NONAME ABSENT ; class CCmManagerImpl & CCmPluginBase::CmMgr(void) const
	?ConstructL@CCmPluginBase@@IAEXXZ @ 282 NONAME ABSENT ; void CCmPluginBase::ConstructL(void)
	?CreateCopyL@CCmPluginBase@@QBEPAV1@XZ @ 283 NONAME ABSENT ; class CCmPluginBase * CCmPluginBase::CreateCopyL(void) const
	?CreateNewL@CCmPluginBase@@QAEXXZ @ 284 NONAME ABSENT ; void CCmPluginBase::CreateNewL(void)
	?DeleteL@CCmPluginBase@@QAEHHH@Z @ 285 NONAME ABSENT ; int CCmPluginBase::DeleteL(int, int)
	?Destination@CCmPluginBase@@QBEPAVCCmDestinationImpl@@XZ @ 286 NONAME ABSENT ; class CCmDestinationImpl * CCmPluginBase::Destination(void) const
	?EnableChargeCardL@CCmPluginBase@@AAEXH@Z @ 287 NONAME ABSENT ; void CCmPluginBase::EnableChargeCardL(int)
	?EnableLocationL@CCmPluginBase@@AAEXH@Z @ 288 NONAME ABSENT ; void CCmPluginBase::EnableLocationL(int)
	?EnableProxyL@CCmPluginBase@@AAEXH@Z @ 289 NONAME ABSENT ; void CCmPluginBase::EnableProxyL(int)
	?GetBoolAttributeL@CCmPluginBase@@QBEHK@Z @ 290 NONAME ABSENT ; int CCmPluginBase::GetBoolAttributeL(unsigned long) const
	?GetConnectionMethodL@CCmDestinationImpl@@QAEPAVCCmPluginBase@@H@Z @ 291 NONAME ABSENT ; class CCmPluginBase * CCmDestinationImpl::GetConnectionMethodL(int)
	?GetConnectionMethodL@CCmManagerImpl@@QAEPAVCCmPluginBase@@K@Z @ 292 NONAME ABSENT ; class CCmPluginBase * CCmManagerImpl::GetConnectionMethodL(unsigned long)
	?GetIntAttributeL@CCmPluginBase@@QBEKK@Z @ 293 NONAME ABSENT ; unsigned long CCmPluginBase::GetIntAttributeL(unsigned long) const
	?GetString8AttributeL@CCmPluginBase@@QBEPAVHBufC8@@K@Z @ 294 NONAME ABSENT ; class HBufC8 * CCmPluginBase::GetString8AttributeL(unsigned long) const
	?GetStringAttributeL@CCmPluginBase@@QBEPAVHBufC16@@K@Z @ 295 NONAME ABSENT ; class HBufC16 * CCmPluginBase::GetStringAttributeL(unsigned long) const
	?IAPRecordElementId@CCmPluginBase@@QBEKXZ @ 296 NONAME ABSENT ; unsigned long CCmPluginBase::IAPRecordElementId(void) const
	?LoadL@CCmPluginBase@@QAEXK@Z @ 297 NONAME ABSENT ; void CCmPluginBase::LoadL(unsigned long)
	?LoadServiceSettingL@CCmPluginBase@@IAEXXZ @ 298 NONAME ABSENT ; void CCmPluginBase::LoadServiceSettingL(void)
	?NumOfConnMethodReferencesL@CCmPluginBase@@QAEHXZ @ 299 NONAME ABSENT ; int CCmPluginBase::NumOfConnMethodReferencesL(void)
	?ParentDestination@CCmPluginBase@@QBEPAVCCmDestinationImpl@@XZ @ 300 NONAME ABSENT ; class CCmDestinationImpl * CCmPluginBase::ParentDestination(void) const
	?Plugin@CCmPluginBase@@QBEPAVCCmPluginBaseEng@@XZ @ 301 NONAME ABSENT ; class CCmPluginBaseEng * CCmPluginBase::Plugin(void) const
	?PrepareToLoadRecordsL@CCmPluginBase@@IAEXXZ @ 302 NONAME ABSENT ; void CCmPluginBase::PrepareToLoadRecordsL(void)
	?PrepareToUpdateRecordsL@CCmPluginBase@@IAEXXZ @ 303 NONAME ABSENT ; void CCmPluginBase::PrepareToUpdateRecordsL(void)
	?RemoveResourceFile@CCmPluginBase@@IAEXABVTDesC16@@@Z @ 304 NONAME ABSENT ; void CCmPluginBase::RemoveResourceFile(class TDesC16 const &)
	?RestoreAttributeL@CCmPluginBase@@QAEXK@Z @ 305 NONAME ABSENT ; void CCmPluginBase::RestoreAttributeL(unsigned long)
	?Session@CCmPluginBase@@QBEAAVCMDBSession@CommsDat@@XZ @ 306 NONAME ABSENT ; class CommsDat::CMDBSession & CCmPluginBase::Session(void) const
	?SetBoolAttributeL@CCmPluginBase@@QAEXKH@Z @ 307 NONAME ABSENT ; void CCmPluginBase::SetBoolAttributeL(unsigned long, int)
	?SetIntAttributeL@CCmPluginBase@@QAEXKK@Z @ 308 NONAME ABSENT ; void CCmPluginBase::SetIntAttributeL(unsigned long, unsigned long)
	?SetString8AttributeL@CCmPluginBase@@QAEXKABVTDesC8@@@Z @ 309 NONAME ABSENT ; void CCmPluginBase::SetString8AttributeL(unsigned long, class TDesC8 const &)
	?SetStringAttributeL@CCmPluginBase@@QAEXKABVTDesC16@@@Z @ 310 NONAME ABSENT ; void CCmPluginBase::SetStringAttributeL(unsigned long, class TDesC16 const &)
	?UpdateL@CCmPluginBase@@QAEXXZ @ 311 NONAME ABSENT ; void CCmPluginBase::UpdateL(void)
	?UpdateProxyRecordL@CCmPluginBase@@AAEXXZ @ 312 NONAME ABSENT ; void CCmPluginBase::UpdateProxyRecordL(void)
	?UpdateServiceRecordL@CCmPluginBase@@IAEXXZ @ 313 NONAME ABSENT ; void CCmPluginBase::UpdateServiceRecordL(void)
	??0RCmConnectionMethod@@QAE@XZ @ 314 NONAME ; RCmConnectionMethod::RCmConnectionMethod(void)
	??0RCmConnectionMethodExt@@QAE@XZ @ 315 NONAME ; RCmConnectionMethodExt::RCmConnectionMethodExt(void)
	??4RCmConnectionMethod@@QAEAAV0@ABV0@@Z @ 316 NONAME ; class RCmConnectionMethod & RCmConnectionMethod::operator=(class RCmConnectionMethod const &)
	??4RCmConnectionMethodExt@@QAEAAV0@ABV0@@Z @ 317 NONAME ; class RCmConnectionMethodExt & RCmConnectionMethodExt::operator=(class RCmConnectionMethodExt const &)
	??8RCmConnectionMethod@@QBEHAAV0@@Z @ 318 NONAME ; int RCmConnectionMethod::operator==(class RCmConnectionMethod &) const
	??8RCmConnectionMethodExt@@QBEHAAV0@@Z @ 319 NONAME ; int RCmConnectionMethodExt::operator==(class RCmConnectionMethodExt &) const
	??9RCmConnectionMethod@@QBEHAAV0@@Z @ 320 NONAME ; int RCmConnectionMethod::operator!=(class RCmConnectionMethod &) const
	??9RCmConnectionMethodExt@@QBEHAAV0@@Z @ 321 NONAME ; int RCmConnectionMethodExt::operator!=(class RCmConnectionMethodExt &) const
	??1RCmConnectionMethod@@QAE@XZ @ 322 NONAME ; RCmConnectionMethod::~RCmConnectionMethod(void)
	??1RCmConnectionMethodExt@@QAE@XZ @ 323 NONAME ; RCmConnectionMethodExt::~RCmConnectionMethodExt(void)
	?ClearDestinationArrayToUse@CCmConnSettingsUiImpl@@QAEXXZ @ 324 NONAME ABSENT ; void CCmConnSettingsUiImpl::ClearDestinationArrayToUse(void)
	?SetDestinationArrayToUseL@CCmConnSettingsUiImpl@@QAEXV?$RArray@K@@@Z @ 325 NONAME ABSENT ; void CCmConnSettingsUiImpl::SetDestinationArrayToUseL(class RArray<unsigned long>)
	?GetAdditionalUids@CCmPluginBase@@QAEXAAV?$RArray@K@@@Z @ 326 NONAME ABSENT ; void CCmPluginBase::GetAdditionalUids(class RArray<unsigned long> &)
	?GetAdditionalUids@CCmPluginBaseEng@@UAEXAAV?$RArray@K@@@Z @ 327 NONAME ABSENT ; void CCmPluginBaseEng::GetAdditionalUids(class RArray<unsigned long> &)
	?WrapCmManager@CCmManagerImpl@@QAEXAAVRCmManagerExt@@@Z @ 328 NONAME ABSENT ; void CCmManagerImpl::WrapCmManager(class RCmManagerExt &)
	?CombineArraysForPriorityOrderL@CCmManagerImpl@@AAEXAAV?$RPointerArray@VCCmPluginBase@@@@0@Z @ 329 NONAME ABSENT ; void CCmManagerImpl::CombineArraysForPriorityOrderL(class RPointerArray<class CCmPluginBase> &, class RPointerArray<class CCmPluginBase> &)
	?CreateFlatCMListL@CCmManagerImpl@@QAEXKAAV?$RPointerArray@VCCmPluginBase@@@@@Z @ 330 NONAME ABSENT ; void CCmManagerImpl::CreateFlatCMListL(unsigned long, class RPointerArray<class CCmPluginBase> &)
	?FilterOutVirtualsL@CCmManagerImpl@@QAEXAAV?$RPointerArray@VCCmPluginBase@@@@@Z @ 331 NONAME ABSENT ; void CCmManagerImpl::FilterOutVirtualsL(class RPointerArray<class CCmPluginBase> &)
	?CreateFlatCMListLC@CCmManagerImpl@@QAEXKAAV?$RPointerArray@VCCmPluginBase@@@@@Z @ 332 NONAME ABSENT ; void CCmManagerImpl::CreateFlatCMListLC(unsigned long, class RPointerArray<class CCmPluginBase> &)
	??0RCmConnectionMethod@@QAE@ABV0@@Z @ 333 NONAME ; RCmConnectionMethod::RCmConnectionMethod(class RCmConnectionMethod const &)
	??0RCmConnectionMethodExt@@QAE@ABV0@@Z @ 334 NONAME ; RCmConnectionMethodExt::RCmConnectionMethodExt(class RCmConnectionMethodExt const &)
	?IsLinkedToIap@CCmPluginBase@@QAEHK@Z @ 335 NONAME ABSENT ; int CCmPluginBase::IsLinkedToIap(unsigned long)
	?IsLinkedToSnap@CCmPluginBase@@QAEHK@Z @ 336 NONAME ABSENT ; int CCmPluginBase::IsLinkedToSnap(unsigned long)
	?ParentDestination@CCmPluginBaseEng@@QBEPAVCCmDestinationImpl@@XZ @ 337 NONAME ABSENT ; class CCmDestinationImpl * CCmPluginBaseEng::ParentDestination(void) const
	?CreateTablesAndOpenL@RCmManagerExt@@QAEXXZ @ 338 NONAME ; void RCmManagerExt::CreateTablesAndOpenL(void)
	?CreateConnectionMethodL@RCmDestinationExt@@QAE?AVRCmConnectionMethodExt@@KK@Z @ 339 NONAME ; class RCmConnectionMethodExt RCmDestinationExt::CreateConnectionMethodL(unsigned long, unsigned long)
	?CreateConnectionMethodL@RCmManagerExt@@QAE?AVRCmConnectionMethodExt@@KK@Z @ 340 NONAME ; class RCmConnectionMethodExt RCmManagerExt::CreateConnectionMethodL(unsigned long, unsigned long)
	?CreateDestinationL@RCmManagerExt@@QAE?AVRCmDestinationExt@@ABVTDesC16@@K@Z @ 341 NONAME ; class RCmDestinationExt RCmManagerExt::CreateDestinationL(class TDesC16 const &, unsigned long)
	?SetPreDefinedId@CCmPluginBaseEng@@QAEXK@Z @ 342 NONAME ABSENT ; void CCmPluginBaseEng::SetPreDefinedId(unsigned long)
	?HandleResourceChange@CmPluginBaseSettingsDlg@@UAEXH@Z @ 343 NONAME ABSENT ; void CmPluginBaseSettingsDlg::HandleResourceChange(int)
	?Execute@CmPluginBaseSettingsDlg@@UAEXXZ @ 344 NONAME ABSENT ; void CmPluginBaseSettingsDlg::Execute(void)
	?CheckSpaceBelowCriticalLevelL@CCmPluginBaseEng@@QBEHXZ @ 345 NONAME ABSENT ; int CCmPluginBaseEng::CheckSpaceBelowCriticalLevelL(void) const
	?HandleLeaveError@CmPluginBaseSettingsDlg@@UAEXH@Z @ 346 NONAME ABSENT ; void CmPluginBaseSettingsDlg::HandleLeaveError(int)
	?AddConnectionMethodL@RCmDestination@@QAEHVRCmConnectionMethod@@@Z @ 347 NONAME ; int RCmDestination::AddConnectionMethodL(class RCmConnectionMethod)
	?AddEmbeddedDestinationL@RCmDestination@@QAEHABV1@@Z @ 348 NONAME ; int RCmDestination::AddEmbeddedDestinationL(class RCmDestination const &)
	?CopyConnectionMethodL@RCmManager@@QAEHAAVRCmDestination@@AAVRCmConnectionMethod@@@Z @ 349 NONAME ; int RCmManager::CopyConnectionMethodL(class RCmDestination &, class RCmConnectionMethod &)
	?CreateConnectionMethodL@RCmDestination@@QAE?AVRCmConnectionMethod@@K@Z @ 350 NONAME ; class RCmConnectionMethod RCmDestination::CreateConnectionMethodL(unsigned long)
	?CreateConnectionMethodL@RCmDestination@@QAE?AVRCmConnectionMethod@@KK@Z @ 351 NONAME ; class RCmConnectionMethod RCmDestination::CreateConnectionMethodL(unsigned long, unsigned long)
	?CreateConnectionMethodL@RCmManager@@QAE?AVRCmConnectionMethod@@K@Z @ 352 NONAME ; class RCmConnectionMethod RCmManager::CreateConnectionMethodL(unsigned long)
	?CreateConnectionMethodL@RCmManager@@QAE?AVRCmConnectionMethod@@KK@Z @ 353 NONAME ; class RCmConnectionMethod RCmManager::CreateConnectionMethodL(unsigned long, unsigned long)
	?CreateCopyL@RCmConnectionMethod@@QAE?AV1@XZ @ 354 NONAME ; class RCmConnectionMethod RCmConnectionMethod::CreateCopyL(void)
	?CreateDestinationL@RCmManager@@QAE?AVRCmDestination@@ABVTDesC16@@@Z @ 355 NONAME ; class RCmDestination RCmManager::CreateDestinationL(class TDesC16 const &)
	?CreateDestinationL@RCmManager@@QAE?AVRCmDestination@@ABVTDesC16@@K@Z @ 356 NONAME ; class RCmDestination RCmManager::CreateDestinationL(class TDesC16 const &, unsigned long)
	?CreateTablesAndOpenL@RCmManager@@QAEXXZ @ 357 NONAME ; void RCmManager::CreateTablesAndOpenL(void)
	?DeleteConnectionMethodL@RCmDestination@@QAEXAAVRCmConnectionMethod@@@Z @ 358 NONAME ; void RCmDestination::DeleteConnectionMethodL(class RCmConnectionMethod &)
	?DeleteL@RCmConnectionMethod@@QAEHXZ @ 359 NONAME ; int RCmConnectionMethod::DeleteL(void)
	?DeleteLD@RCmDestination@@QAEXXZ @ 360 NONAME ; void RCmDestination::DeleteLD(void)
	?ModifyPriorityL@RCmDestination@@QAEXAAVRCmConnectionMethod@@I@Z @ 361 NONAME ; void RCmDestination::ModifyPriorityL(class RCmConnectionMethod &, unsigned int)
	?MoveConnectionMethodL@RCmManager@@QAEHAAVRCmDestination@@0AAVRCmConnectionMethod@@@Z @ 362 NONAME ; int RCmManager::MoveConnectionMethodL(class RCmDestination &, class RCmDestination &, class RCmConnectionMethod &)
	?RemoveAllReferencesL@RCmManager@@QAEXAAVRCmConnectionMethod@@@Z @ 363 NONAME ; void RCmManager::RemoveAllReferencesL(class RCmConnectionMethod &)
	?RemoveConnectionMethodL@RCmDestination@@QAEXVRCmConnectionMethod@@@Z @ 364 NONAME ; void RCmDestination::RemoveConnectionMethodL(class RCmConnectionMethod)
	?RemoveConnectionMethodL@RCmManager@@QAEXAAVRCmDestination@@AAVRCmConnectionMethod@@@Z @ 365 NONAME ; void RCmManager::RemoveConnectionMethodL(class RCmDestination &, class RCmConnectionMethod &)
	?SetBoolAttributeL@RCmConnectionMethod@@QAEXKH@Z @ 366 NONAME ; void RCmConnectionMethod::SetBoolAttributeL(unsigned long, int)
	?SetHiddenL@RCmDestination@@QAEXH@Z @ 367 NONAME ; void RCmDestination::SetHiddenL(int)
	?SetIconL@RCmDestination@@QAEXK@Z @ 368 NONAME ABSENT ; void RCmDestination::SetIconL(unsigned long)
	?SetIntAttributeL@RCmConnectionMethod@@QAEXKK@Z @ 369 NONAME ; void RCmConnectionMethod::SetIntAttributeL(unsigned long, unsigned long)
	?SetMetadataL@RCmDestination@@QAEXW4TSnapMetadataField@CMManager@@K@Z @ 370 NONAME ; void RCmDestination::SetMetadataL(enum CMManager::TSnapMetadataField, unsigned long)
	?SetNameL@RCmDestination@@QAEXABVTDesC16@@@Z @ 371 NONAME ; void RCmDestination::SetNameL(class TDesC16 const &)
	?SetProtectionL@RCmDestination@@QAEXW4TProtectionLevel@CMManager@@@Z @ 372 NONAME ; void RCmDestination::SetProtectionL(enum CMManager::TProtectionLevel)
	?SetString8AttributeL@RCmConnectionMethod@@QAEXKABVTDesC8@@@Z @ 373 NONAME ; void RCmConnectionMethod::SetString8AttributeL(unsigned long, class TDesC8 const &)
	?SetStringAttributeL@RCmConnectionMethod@@QAEXKABVTDesC16@@@Z @ 374 NONAME ; void RCmConnectionMethod::SetStringAttributeL(unsigned long, class TDesC16 const &)
	?SupportedBearersL@RCmManager@@QBEXAAV?$RArray@K@@@Z @ 375 NONAME ; void RCmManager::SupportedBearersL(class RArray<unsigned long> &) const
	?UncategorizedIconL@RCmManager@@QBEPAVCGulIcon@@XZ @ 376 NONAME ABSENT ; class CGulIcon * RCmManager::UncategorizedIconL(void) const
	?UpdateBearerPriorityArrayL@RCmManager@@QAEXABV?$RArray@VTBearerPriority@@@@@Z @ 377 NONAME ; void RCmManager::UpdateBearerPriorityArrayL(class RArray<class TBearerPriority> const &)
	?UpdateL@RCmConnectionMethod@@QAEXXZ @ 378 NONAME ; void RCmConnectionMethod::UpdateL(void)
	?UpdateL@RCmDestination@@QAEXXZ @ 379 NONAME ; void RCmDestination::UpdateL(void)
	?WriteDefConnL@RCmManager@@QAEXABUTCmDefConnValue@@@Z @ 380 NONAME ; void RCmManager::WriteDefConnL(struct TCmDefConnValue const &)
	?WriteGenConnSettingsL@RCmManager@@QAEXABUTCmGenConnSettings@@@Z @ 381 NONAME ; void RCmManager::WriteGenConnSettingsL(struct TCmGenConnSettings const &)
	?ReadGenConnSettingsL@RCmManager@@QAEXAAUTCmGenConnSettings@@@Z @ 382 NONAME ; void RCmManager::ReadGenConnSettingsL(struct TCmGenConnSettings &)
	?WatcherRegisterL@CCmManagerImpl@@QAEXPAVMCmCommsDatWatcher@@@Z @ 383 NONAME ABSENT ; void CCmManagerImpl::WatcherRegisterL(class MCmCommsDatWatcher *)
	?DestinationStillExistedL@CCmManagerImpl@@QAEHPAVCCmDestinationImpl@@@Z @ 384 NONAME ABSENT ; int CCmManagerImpl::DestinationStillExistedL(class CCmDestinationImpl *)
	?IsIapStillInDestL@CCmManagerImpl@@QAEHPAVCCmDestinationImpl@@ABVCCmPluginBaseEng@@@Z @ 385 NONAME ABSENT ; int CCmManagerImpl::IsIapStillInDestL(class CCmDestinationImpl *, class CCmPluginBaseEng const &)
	?IapStillExistedL@CCmManagerImpl@@QAEHABVCCmPluginBaseEng@@@Z @ 386 NONAME ABSENT ; int CCmManagerImpl::IapStillExistedL(class CCmPluginBaseEng const &)
	?WatcherUnRegister@CCmManagerImpl@@QAEXXZ @ 387 NONAME ABSENT ; void CCmManagerImpl::WatcherUnRegister(void)
	?RemoveDestFromPool@CCmManagerImpl@@QAEXPAVCCmDestinationImpl@@@Z @ 388 NONAME ABSENT ; void CCmManagerImpl::RemoveDestFromPool(class CCmDestinationImpl *)
	?OfferKeyEventL@CmPluginBaseSettingsDlg@@MAE?AW4TKeyResponse@@ABUTKeyEvent@@W4TEventCode@@@Z @ 389 NONAME ABSENT ; enum TKeyResponse CmPluginBaseSettingsDlg::OfferKeyEventL(struct TKeyEvent const &, enum TEventCode)
	?GetUncategorizedIconL@RCmManager@@QBEPAVHBufC16@@XZ @ 390 NONAME ; class HBufC16 * RCmManager::GetUncategorizedIconL(void) const
	?GetIconL@RCmDestination@@QBEPAVHBufC16@@XZ @ 391 NONAME ; class HBufC16 * RCmDestination::GetIconL(void) const
	?GetIconL@RCmConnectionMethod@@QBEPAVHBufC16@@XZ @ 392 NONAME ; class HBufC16 * RCmConnectionMethod::GetIconL(void) const
	?SetIconL@RCmConnectionMethod@@QAEXABVTDesC16@@@Z @ 393 NONAME ; void RCmConnectionMethod::SetIconL(class TDesC16 const &)
	?SetIconL@RCmDestination@@QAEXABVTDesC16@@@Z @ 394 NONAME ; void RCmDestination::SetIconL(class TDesC16 const &)
	?RefreshL@RCmConnectionMethod@@QAEXXZ @ 395 NONAME ; void RCmConnectionMethod::RefreshL(void)
	?RefreshL@RCmDestination@@QAEXXZ @ 396 NONAME ; void RCmDestination::RefreshL(void)

