EXPORTS
	??0EapQtConfigInterface@@QAE@W4EapBearerType@0@H@Z @ 1 NONAME ; EapQtConfigInterface::EapQtConfigInterface(enum EapQtConfigInterface::EapBearerType, int)
	?userCertificates@EapQtConfigInterface@@QBE?AV?$QList@VEapQtCertificateInfo@@@@XZ @ 2 NONAME ; class QList<class EapQtCertificateInfo> EapQtConfigInterface::userCertificates(void) const
	?isSupportedOuterType@EapQtConfigInterface@@QBE_NABVEapQtPluginHandle@@@Z @ 3 NONAME ; bool EapQtConfigInterface::isSupportedOuterType(class EapQtPluginHandle const &) const
	?value@EapQtConfig@@QBE?AVQVariant@@W4SettingsId@1@@Z @ 4 NONAME ; class QVariant EapQtConfig::value(enum EapQtConfig::SettingsId) const
	?readConfiguration@EapQtConfigInterface@@QBE_NABVEapQtPluginHandle@@0AAVEapQtConfig@@@Z @ 5 NONAME ; bool EapQtConfigInterface::readConfiguration(class EapQtPluginHandle const &, class EapQtPluginHandle const &, class EapQtConfig &) const
	??1EapQtConfigInterface@@QAE@XZ @ 6 NONAME ; EapQtConfigInterface::~EapQtConfigInterface(void)
	?setValue@EapQtConfig@@QBEXW4SettingsId@1@ABVQVariant@@@Z @ 7 NONAME ; void EapQtConfig::setValue(enum EapQtConfig::SettingsId, class QVariant const &) const
	?setValue@EapQtPacStoreConfig@@QBEXW4PacStoreSettings@1@ABVQVariant@@@Z @ 8 NONAME ; void EapQtPacStoreConfig::setValue(enum EapQtPacStoreConfig::PacStoreSettings, class QVariant const &) const
	?clear@EapQtPacStoreConfig@@QBEXXZ @ 9 NONAME ; void EapQtPacStoreConfig::clear(void) const
	??1EapQtCertificateInfo@@QAE@XZ @ 10 NONAME ; EapQtCertificateInfo::~EapQtCertificateInfo(void)
	?value@EapQtPacStoreConfig@@QBE?AVQVariant@@W4PacStoreSettings@1@@Z @ 11 NONAME ; class QVariant EapQtPacStoreConfig::value(enum EapQtPacStoreConfig::PacStoreSettings) const
	??0EapQtPacStoreConfig@@QAE@XZ @ 12 NONAME ; EapQtPacStoreConfig::EapQtPacStoreConfig(void)
	?isSupportedInnerType@EapQtConfigInterface@@QBE_NABVEapQtPluginHandle@@0@Z @ 13 NONAME ; bool EapQtConfigInterface::isSupportedInnerType(class EapQtPluginHandle const &, class EapQtPluginHandle const &) const
	?value@EapQtCertificateInfo@@QBE?AVQVariant@@W4ItemId@1@@Z @ 14 NONAME ; class QVariant EapQtCertificateInfo::value(enum EapQtCertificateInfo::ItemId) const
	??4EapQtCertificateInfo@@QAEAAV0@ABV0@@Z @ 15 NONAME ; class EapQtCertificateInfo & EapQtCertificateInfo::operator=(class EapQtCertificateInfo const &)
	?uiInstance@EapQtConfigInterface@@QBEPAVCpBaseSettingView@@ABVEapQtPluginHandle@@0@Z @ 16 NONAME ; class CpBaseSettingView * EapQtConfigInterface::uiInstance(class EapQtPluginHandle const &, class EapQtPluginHandle const &) const
	?clear@EapQtConfig@@QBEXXZ @ 17 NONAME ; void EapQtConfig::clear(void) const
	?setSelectedOuterTypes@EapQtConfigInterface@@QBE_NABV?$QList@VEapQtPluginHandle@@@@@Z @ 18 NONAME ; bool EapQtConfigInterface::setSelectedOuterTypes(class QList<class EapQtPluginHandle> const &) const
	?setValue@EapQtCertificateInfo@@QBEXW4ItemId@1@ABVQVariant@@@Z @ 19 NONAME ; void EapQtCertificateInfo::setValue(enum EapQtCertificateInfo::ItemId, class QVariant const &) const
	?clear@EapQtCertificateInfo@@QBEXXZ @ 20 NONAME ; void EapQtCertificateInfo::clear(void) const
	??0EapQtConfig@@QAE@XZ @ 21 NONAME ; EapQtConfig::EapQtConfig(void)
	?saveConfiguration@EapQtConfigInterface@@QBE_NABVEapQtPluginHandle@@ABVEapQtConfig@@@Z @ 22 NONAME ; bool EapQtConfigInterface::saveConfiguration(class EapQtPluginHandle const &, class EapQtConfig const &) const
	??0EapQtConfigInterface@@QAE@XZ @ 23 NONAME ; EapQtConfigInterface::EapQtConfigInterface(void)
	?savePacStoreConfiguration@EapQtConfigInterface@@QBE_NABVEapQtPacStoreConfig@@@Z @ 24 NONAME ; bool EapQtConfigInterface::savePacStoreConfiguration(class EapQtPacStoreConfig const &) const
	??1EapQtPacStoreConfig@@QAE@XZ @ 25 NONAME ; EapQtPacStoreConfig::~EapQtPacStoreConfig(void)
	?validatorEap@EapQtConfigInterface@@QBEPAVEapQtValidator@@ABVEapQtExpandedEapType@@W4SettingsId@EapQtConfig@@@Z @ 26 NONAME ; class EapQtValidator * EapQtConfigInterface::validatorEap(class EapQtExpandedEapType const &, enum EapQtConfig::SettingsId) const
	?validatorPacStore@EapQtConfigInterface@@QBEPAVEapQtValidator@@W4PacStoreSettings@EapQtPacStoreConfig@@@Z @ 27 NONAME ; class EapQtValidator * EapQtConfigInterface::validatorPacStore(enum EapQtPacStoreConfig::PacStoreSettings) const
	?certificateAuthorityCertificates@EapQtConfigInterface@@QBE?AV?$QList@VEapQtCertificateInfo@@@@XZ @ 28 NONAME ; class QList<class EapQtCertificateInfo> EapQtConfigInterface::certificateAuthorityCertificates(void) const
	??0EapQtCertificateInfo@@QAE@XZ @ 29 NONAME ; EapQtCertificateInfo::EapQtCertificateInfo(void)
	?supportedOuterTypes@EapQtConfigInterface@@QBE?AV?$QList@VEapQtPluginInfo@@@@XZ @ 30 NONAME ; class QList<class EapQtPluginInfo> EapQtConfigInterface::supportedOuterTypes(void) const
	??0EapQtCertificateInfo@@QAE@ABV0@@Z @ 31 NONAME ; EapQtCertificateInfo::EapQtCertificateInfo(class EapQtCertificateInfo const &)
	?setConfigurationReference@EapQtConfigInterface@@QBE_NH@Z @ 32 NONAME ; bool EapQtConfigInterface::setConfigurationReference(int) const
	??1EapQtConfig@@QAE@XZ @ 33 NONAME ; EapQtConfig::~EapQtConfig(void)
	?selectedOuterTypes@EapQtConfigInterface@@QBE?AV?$QList@VEapQtPluginHandle@@@@XZ @ 34 NONAME ; class QList<class EapQtPluginHandle> EapQtConfigInterface::selectedOuterTypes(void) const
	?deleteConfiguration@EapQtConfigInterface@@QBE_NXZ @ 35 NONAME ; bool EapQtConfigInterface::deleteConfiguration(void) const
	?readPacStoreConfiguration@EapQtConfigInterface@@QBE_NAAVEapQtPacStoreConfig@@@Z @ 36 NONAME ; bool EapQtConfigInterface::readPacStoreConfiguration(class EapQtPacStoreConfig &) const
	?supportedInnerTypes@EapQtConfigInterface@@QBE?AV?$QList@VEapQtPluginInfo@@@@ABVEapQtPluginHandle@@@Z @ 37 NONAME ; class QList<class EapQtPluginInfo> EapQtConfigInterface::supportedInnerTypes(class EapQtPluginHandle const &) const
	?updateCertificates@EapQtConfigInterface@@QBE_NXZ @ 38 NONAME ; bool EapQtConfigInterface::updateCertificates(void) const

