EXPORTS
	_ZN11CSRTPStream10StreamTypeEv @ 1 NONAME
	_ZN11CSRTPStream6SetROCEm @ 2 NONAME
	_ZN12CSRTPSession10RemoteAddrEv @ 3 NONAME
	_ZN12CSRTPSession11ProtectRTPLEjRK6TDesC8 @ 4 NONAME
	_ZN12CSRTPSession12ProtectRTCPLEjRK6TDesC8 @ 5 NONAME
	_ZN12CSRTPSession13UnprotectRTPLEjRK6TDesC8 @ 6 NONAME
	_ZN12CSRTPSession14UnprotectRTCPLEjRK6TDesC8 @ 7 NONAME
	_ZN12CSRTPSession17SetCryptoContextLEP18CSRTPCryptoContext @ 8 NONAME
	_ZN12CSRTPSession4NewLERK9TInetAddr @ 9 NONAME
	_ZN12CSRTPSession4NewLERK9TInetAddrP18CSRTPCryptoContextR21MSRTPReKeyingObserver @ 10 NONAME
	_ZN12CSRTPSession5NewLCERK9TInetAddr @ 11 NONAME
	_ZN12CSRTPSession5NewLCERK9TInetAddrP18CSRTPCryptoContextR21MSRTPReKeyingObserver @ 12 NONAME
	_ZN12CSRTPSession7StreamLEji @ 13 NONAME
	_ZN13CSRTPStreamIn12SetCryptoInLEP18CSRTPCryptoContext @ 14 NONAME
	_ZN13CSRTPStreamIn14UnprotectSrtpLERK6TDesC8 @ 15 NONAME
	_ZN13CSRTPStreamIn15UnprotectSrtcpLERK6TDesC8 @ 16 NONAME
	_ZN13CSRTPStreamIn4NewLER12CSRTPSession @ 17 NONAME
	_ZN13CSRTPStreamIn4NewLER12CSRTPSessionP18CSRTPCryptoContextR21MSRTPReKeyingObserver @ 18 NONAME
	_ZN13CSRTPStreamIn4NewLER12CSRTPSessionR21MSRTPReKeyingObserver @ 19 NONAME
	_ZN13CSRTPStreamIn4NewLER12CSRTPSessionj @ 20 NONAME
	_ZN13CSRTPStreamIn4NewLER12CSRTPSessionjP18CSRTPCryptoContextR21MSRTPReKeyingObserver @ 21 NONAME
	_ZN13CSRTPStreamIn4NewLER12CSRTPSessionjR21MSRTPReKeyingObserver @ 22 NONAME
	_ZN14CSRTPMasterKey4NewLERK6TDesC8S2_jj @ 23 NONAME
	_ZN14CSRTPMasterKey5NewLCERK6TDesC8S2_jj @ 24 NONAME
	_ZN14CSRTPStreamOut11ProtectRtpLERK6TDesC8 @ 25 NONAME
	_ZN14CSRTPStreamOut12ProtectRtcpLERK6TDesC8 @ 26 NONAME
	_ZN14CSRTPStreamOut13SetCryptoOutLEP18CSRTPCryptoContext @ 27 NONAME
	_ZN14CSRTPStreamOut4NewLER12CSRTPSessionj @ 28 NONAME
	_ZN14CSRTPStreamOut4NewLER12CSRTPSessionjP18CSRTPCryptoContextR21MSRTPReKeyingObserver @ 29 NONAME
	_ZN14CSRTPStreamOut4NewLER12CSRTPSessionjR21MSRTPReKeyingObserver @ 30 NONAME
	_ZN15CSRTPMasterSalt4NewLERK6TDesC8j @ 31 NONAME
	_ZN15CSRTPMasterSalt5NewLCERK6TDesC8j @ 32 NONAME
	_ZN17CSrtpAESCTRCrypto10KeystreamLEjRK6TDesC8S2_ @ 33 NONAME
	_ZN17CSrtpAESCTRCrypto4NewLEv @ 34 NONAME
	_ZN17CSrtpAESCTRCrypto8EncryptLERK6TDesC8S2_S2_ @ 35 NONAME
	_ZN18CSRTPCryptoContext12CryptoParamsEv @ 36 NONAME
	_ZN18CSRTPCryptoContext12SetMasterKeyEPK14CSRTPMasterKey @ 37 NONAME
	_ZN18CSRTPCryptoContext12SetRCCm3SyncEi @ 38 NONAME
	_ZN18CSRTPCryptoContext13SetMasterSaltEPK15CSRTPMasterSalt @ 39 NONAME
	_ZN18CSRTPCryptoContext4NewLEPK14CSRTPMasterKeyPK15CSRTPMasterSaltRK17TSrtpCryptoParams @ 40 NONAME
	_ZN18CSRTPCryptoContext5NewLCEPK14CSRTPMasterKeyPK15CSRTPMasterSaltRK17TSrtpCryptoParams @ 41 NONAME
	_ZN23CSRTPCryptoHandlerSRTCP5NewLCER11CSRTPStream @ 42 NONAME
	_ZNK11CSRTPStream3ROCEv @ 43 NONAME
	_ZNK11CSRTPStream4SSRCEv @ 44 NONAME
	_ZNK14CSRTPMasterKey13AuthKeyLengthEv @ 45 NONAME
	_ZNK14CSRTPMasterKey13EncrKeyLengthEv @ 46 NONAME
	_ZNK14CSRTPMasterKey3MKIEv @ 47 NONAME
	_ZNK14CSRTPMasterKey5ValidEv @ 48 NONAME
	_ZNK14CSRTPMasterKey9MasterKeyEv @ 49 NONAME
	_ZNK15CSRTPMasterSalt10MasterSaltEv @ 50 NONAME
	_ZNK15CSRTPMasterSalt10SaltLengthEv @ 51 NONAME
	_ZNK15CSRTPMasterSalt5ValidEv @ 52 NONAME
	_ZNK18CSRTPCryptoContext10MasterSaltEv @ 53 NONAME
	_ZNK18CSRTPCryptoContext5ValidEv @ 54 NONAME
	_ZNK18CSRTPCryptoContext9MasterKeyEv @ 55 NONAME
	_ZTI11CSRTPPacket @ 56 NONAME ; #<TI>#
	_ZTI11CSRTPStream @ 57 NONAME ; #<TI>#
	_ZTI12CSRTPSession @ 58 NONAME ; #<TI>#
	_ZTI13CSRTPStreamIn @ 59 NONAME ; #<TI>#
	_ZTI14CSRTPMasterKey @ 60 NONAME ; #<TI>#
	_ZTI14CSRTPPacketRTP @ 61 NONAME ; #<TI>#
	_ZTI14CSRTPStreamOut @ 62 NONAME ; #<TI>#
	_ZTI15CSRTPCipherNULL @ 63 NONAME ; #<TI>#
	_ZTI15CSRTPMasterSalt @ 64 NONAME ; #<TI>#
	_ZTI15CSRTPPacketRTCP @ 65 NONAME ; #<TI>#
	_ZTI15CSRTPPacketSRTP @ 66 NONAME ; #<TI>#
	_ZTI16CSRTPPacketSRTCP @ 67 NONAME ; #<TI>#
	_ZTI17CSrtpAESCTRCrypto @ 68 NONAME ; #<TI>#
	_ZTI18CSRTPCryptoContext @ 69 NONAME ; #<TI>#
	_ZTI18CSRTPCryptoHandler @ 70 NONAME ; #<TI>#
	_ZTI19CSRTPCipherAESCM128 @ 71 NONAME ; #<TI>#
	_ZTI22CSRTPCryptoHandlerSRTP @ 72 NONAME ; #<TI>#
	_ZTI23CSRTPCryptoHandlerSRTCP @ 73 NONAME ; #<TI>#
	_ZTI23CSrtpAuthentication_RCC @ 74 NONAME ; #<TI>#
	_ZTI24CSRTPAuthentication_NULL @ 75 NONAME ; #<TI>#
	_ZTI24TSRTPStreamInStateNormal @ 76 NONAME ; #<TI>#
	_ZTI24TSRTPStreamInStateUninit @ 77 NONAME ; #<TI>#
	_ZTI25TSRTPStreamOutStateNormal @ 78 NONAME ; #<TI>#
	_ZTI25TSRTPStreamOutStateUninit @ 79 NONAME ; #<TI>#
	_ZTI26TSRTPStreamInStateLateBind @ 80 NONAME ; #<TI>#
	_ZTI27CSRTPKeyDerivation_AESCM128 @ 81 NONAME ; #<TI>#
	_ZTI29CSRTPAuthentication_HMAC_SHA1 @ 82 NONAME ; #<TI>#
	_ZTV11CSRTPPacket @ 83 NONAME ; #<VT>#
	_ZTV11CSRTPStream @ 84 NONAME ; #<VT>#
	_ZTV12CSRTPSession @ 85 NONAME ; #<VT>#
	_ZTV13CSRTPStreamIn @ 86 NONAME ; #<VT>#
	_ZTV14CSRTPMasterKey @ 87 NONAME ; #<VT>#
	_ZTV14CSRTPPacketRTP @ 88 NONAME ; #<VT>#
	_ZTV14CSRTPStreamOut @ 89 NONAME ; #<VT>#
	_ZTV15CSRTPCipherNULL @ 90 NONAME ; #<VT>#
	_ZTV15CSRTPMasterSalt @ 91 NONAME ; #<VT>#
	_ZTV15CSRTPPacketRTCP @ 92 NONAME ; #<VT>#
	_ZTV15CSRTPPacketSRTP @ 93 NONAME ; #<VT>#
	_ZTV16CSRTPPacketSRTCP @ 94 NONAME ; #<VT>#
	_ZTV17CSrtpAESCTRCrypto @ 95 NONAME ; #<VT>#
	_ZTV18CSRTPCryptoContext @ 96 NONAME ; #<VT>#
	_ZTV18CSRTPCryptoHandler @ 97 NONAME ; #<VT>#
	_ZTV19CSRTPCipherAESCM128 @ 98 NONAME ; #<VT>#
	_ZTV22CSRTPCryptoHandlerSRTP @ 99 NONAME ; #<VT>#
	_ZTV23CSRTPCryptoHandlerSRTCP @ 100 NONAME ; #<VT>#
	_ZTV23CSrtpAuthentication_RCC @ 101 NONAME ; #<VT>#
	_ZTV24CSRTPAuthentication_NULL @ 102 NONAME ; #<VT>#
	_ZTV24TSRTPStreamInStateNormal @ 103 NONAME ; #<VT>#
	_ZTV24TSRTPStreamInStateUninit @ 104 NONAME ; #<VT>#
	_ZTV25TSRTPStreamOutStateNormal @ 105 NONAME ; #<VT>#
	_ZTV25TSRTPStreamOutStateUninit @ 106 NONAME ; #<VT>#
	_ZTV26TSRTPStreamInStateLateBind @ 107 NONAME ; #<VT>#
	_ZTV27CSRTPKeyDerivation_AESCM128 @ 108 NONAME ; #<VT>#
	_ZTV29CSRTPAuthentication_HMAC_SHA1 @ 109 NONAME ; #<VT>#

