EXPORTS
	??0CApSettingsHandler@@IAE@HW4TSelectionListType@@W4TSelectionMenuType@@@Z @ 1 NONAME ; CApSettingsHandler::CApSettingsHandler(int, enum TSelectionListType, enum TSelectionMenuType)
	??1CApSettingsHandler@@UAE@XZ @ 2 NONAME ; CApSettingsHandler::~CApSettingsHandler(void)
	?ConstructL@CApSettingsHandler@@IAEXAAVCActiveApDb@@HHH@Z @ 3 NONAME ; void CApSettingsHandler::ConstructL(class CActiveApDb &, int, int, int)
	?ConstructL@CApSettingsHandler@@IAEXAAVCActiveApDb@@HHHW4TVpnFilterType@@@Z @ 4 NONAME ; void CApSettingsHandler::ConstructL(class CActiveApDb &, int, int, int, enum TVpnFilterType)
	?ConstructL@CApSettingsHandler@@IAEXHHH@Z @ 5 NONAME ; void CApSettingsHandler::ConstructL(int, int, int)
	?ConstructL@CApSettingsHandler@@IAEXHHHW4TVpnFilterType@@@Z @ 6 NONAME ; void CApSettingsHandler::ConstructL(int, int, int, enum TVpnFilterType)
	?Cvt@CApSettingsHandler@@SAHXZ @ 7 NONAME ; int CApSettingsHandler::Cvt(void)
	?NewLC@CApSettingsHandler@@SAPAV1@AAVCActiveApDb@@HW4TSelectionListType@@W4TSelectionMenuType@@HHH@Z @ 8 NONAME ; class CApSettingsHandler * CApSettingsHandler::NewLC(class CActiveApDb &, int, enum TSelectionListType, enum TSelectionMenuType, int, int, int)
	?NewLC@CApSettingsHandler@@SAPAV1@AAVCActiveApDb@@HW4TSelectionListType@@W4TSelectionMenuType@@HHHH@Z @ 9 NONAME ; class CApSettingsHandler * CApSettingsHandler::NewLC(class CActiveApDb &, int, enum TSelectionListType, enum TSelectionMenuType, int, int, int, int)
	?NewLC@CApSettingsHandler@@SAPAV1@AAVCActiveApDb@@HW4TSelectionListType@@W4TSelectionMenuType@@HHHHW4TVpnFilterType@@@Z @ 10 NONAME ; class CApSettingsHandler * CApSettingsHandler::NewLC(class CActiveApDb &, int, enum TSelectionListType, enum TSelectionMenuType, int, int, int, int, enum TVpnFilterType)
	?NewLC@CApSettingsHandler@@SAPAV1@HW4TSelectionListType@@W4TSelectionMenuType@@HHH@Z @ 11 NONAME ; class CApSettingsHandler * CApSettingsHandler::NewLC(int, enum TSelectionListType, enum TSelectionMenuType, int, int, int)
	?NewLC@CApSettingsHandler@@SAPAV1@HW4TSelectionListType@@W4TSelectionMenuType@@HHHH@Z @ 12 NONAME ; class CApSettingsHandler * CApSettingsHandler::NewLC(int, enum TSelectionListType, enum TSelectionMenuType, int, int, int, int)
	?NewLC@CApSettingsHandler@@SAPAV1@HW4TSelectionListType@@W4TSelectionMenuType@@HHHHW4TVpnFilterType@@@Z @ 13 NONAME ; class CApSettingsHandler * CApSettingsHandler::NewLC(int, enum TSelectionListType, enum TSelectionMenuType, int, int, int, int, enum TVpnFilterType)
	?RunSettingsL@CApSettingsHandler@@QAEHKAAK@Z @ 14 NONAME ; int CApSettingsHandler::RunSettingsL(unsigned long, unsigned long &)
	?RunViewerL@CApSettingsHandler@@IAEHK@Z @ 15 NONAME ; int CApSettingsHandler::RunViewerL(unsigned long)
	?SetFilterL@CApSettingsHandler@@QAEXHHH@Z @ 16 NONAME ; void CApSettingsHandler::SetFilterL(int, int, int)
	?SetTextOverrideL@CApSettingsHandler@@QAEXW4TTextID@@ABVTDesC16@@@Z @ 17 NONAME ; void CApSettingsHandler::SetTextOverrideL(enum TTextID, class TDesC16 const &)
	?TextOverrideL@CApSettingsHandler@@QAEABVTDesC16@@W4TTextID@@@Z @ 18 NONAME ; class TDesC16 const & CApSettingsHandler::TextOverrideL(enum TTextID)
	?ConstructL@CApSettingsHandler@@IAEXAAVCActiveApDb@@HHHW4TVpnFilterType@@H@Z @ 19 NONAME ; void CApSettingsHandler::ConstructL(class CActiveApDb &, int, int, int, enum TVpnFilterType, int)
	?NewLC@CApSettingsHandler@@SAPAV1@AAVCActiveApDb@@HW4TSelectionListType@@W4TSelectionMenuType@@HHHHW4TVpnFilterType@@H@Z @ 20 NONAME ; class CApSettingsHandler * CApSettingsHandler::NewLC(class CActiveApDb &, int, enum TSelectionListType, enum TSelectionMenuType, int, int, int, int, enum TVpnFilterType, int)
	??1CApSettingsUi@@UAE@XZ @ 21 NONAME ; CApSettingsUi::~CApSettingsUi(void)
	?ConstructL@CApSettingsUi@@IAEXHHHW4TVpnFilterType@@@Z @ 22 NONAME ; void CApSettingsUi::ConstructL(int, int, int, enum TVpnFilterType)
	?NewLC@CApSettingsUi@@SAPAV1@HW4TSelectionListType@@W4TSelectionMenuType@@HHHHW4TVpnFilterType@@@Z @ 23 NONAME ; class CApSettingsUi * CApSettingsUi::NewLC(int, enum TSelectionListType, enum TSelectionMenuType, int, int, int, int, enum TVpnFilterType)
	?RunSettingsL@CApSettingsUi@@QAEHKAAK@Z @ 24 NONAME ; int CApSettingsUi::RunSettingsL(unsigned long, unsigned long &)

