EXPORTS
	_ZN13CmManagerShim17createDestinationE7QString @ 1 NONAME
	_ZN13CmManagerShim22createConnectionMethodEj @ 2 NONAME
	_ZN13CmManagerShimC1Ev @ 3 NONAME
	_ZN13CmManagerShimC2Ev @ 4 NONAME
	_ZN13CmManagerShimD1Ev @ 5 NONAME
	_ZN13CmManagerShimD2Ev @ 6 NONAME
	_ZN17CmDestinationShim14modifyPriorityEP22CmConnectionMethodShimi @ 7 NONAME
	_ZN17CmDestinationShim17deleteDestinationEv @ 8 NONAME
	_ZN17CmDestinationShim19addConnectionMethodEP22CmConnectionMethodShim @ 9 NONAME
	_ZN17CmDestinationShim22deleteConnectionMethodEP22CmConnectionMethodShim @ 10 NONAME
	_ZN17CmDestinationShim22removeConnectionMethodEP22CmConnectionMethodShim @ 11 NONAME
	_ZN17CmDestinationShim6updateEv @ 12 NONAME
	_ZN17CmDestinationShim7setNameE7QString @ 13 NONAME
	_ZN17CmDestinationShimC1ER14RCmDestination @ 14 NONAME
	_ZN17CmDestinationShimC2ER14RCmDestination @ 15 NONAME
	_ZN17CmDestinationShimD1Ev @ 16 NONAME
	_ZN17CmDestinationShimD2Ev @ 17 NONAME
	_ZN22CmConnectionMethodShim15setIntAttributeEN13CMManagerShim25ConnectionMethodAttributeEj @ 18 NONAME
	_ZN22CmConnectionMethodShim16setBoolAttributeEN13CMManagerShim25ConnectionMethodAttributeEb @ 19 NONAME
	_ZN22CmConnectionMethodShim18setStringAttributeEN13CMManagerShim25ConnectionMethodAttributeE7QString @ 20 NONAME
	_ZN22CmConnectionMethodShim19setString8AttributeEN13CMManagerShim25ConnectionMethodAttributeE7QString @ 21 NONAME
	_ZN22CmConnectionMethodShim22deleteConnectionMethodEv @ 22 NONAME
	_ZN22CmConnectionMethodShim6updateEv @ 23 NONAME
	_ZN22CmConnectionMethodShimC1ER19RCmConnectionMethod @ 24 NONAME
	_ZN22CmConnectionMethodShimC2ER19RCmConnectionMethod @ 25 NONAME
	_ZN22CmConnectionMethodShimD1Ev @ 26 NONAME
	_ZN22CmConnectionMethodShimD2Ev @ 27 NONAME
	_ZNK13CmManagerShim11destinationEj @ 28 NONAME
	_ZNK13CmManagerShim15allDestinationsER5QListIjE @ 29 NONAME
	_ZNK13CmManagerShim16connectionMethodER5QListIjEb @ 30 NONAME
	_ZNK13CmManagerShim16connectionMethodEj @ 31 NONAME
	_ZNK17CmDestinationShim15protectionLevelEv @ 32 NONAME
	_ZNK17CmDestinationShim16connectionMethodEi @ 33 NONAME
	_ZNK17CmDestinationShim20connectionMethodByIDEj @ 34 NONAME
	_ZNK17CmDestinationShim21connectionMethodCountEv @ 35 NONAME
	_ZNK17CmDestinationShim2idEv @ 36 NONAME
	_ZNK17CmDestinationShim4nameEv @ 37 NONAME
	_ZNK17CmDestinationShim8isHiddenEv @ 38 NONAME
	_ZNK17CmDestinationShim8metadataEN13CMManagerShim17SnapMetadataFieldE @ 39 NONAME
	_ZNK17CmDestinationShim8priorityEP22CmConnectionMethodShim @ 40 NONAME
	_ZNK22CmConnectionMethodShim15getIntAttributeEN13CMManagerShim25ConnectionMethodAttributeE @ 41 NONAME
	_ZNK22CmConnectionMethodShim16getBoolAttributeEN13CMManagerShim25ConnectionMethodAttributeE @ 42 NONAME
	_ZNK22CmConnectionMethodShim18getStringAttributeEN13CMManagerShim25ConnectionMethodAttributeE @ 43 NONAME
	_ZNK22CmConnectionMethodShim19getString8AttributeEN13CMManagerShim25ConnectionMethodAttributeE @ 44 NONAME
	_ZN17CmDestinationShim7refreshEv @ 45 NONAME
	_ZN22CmConnectionMethodShim7refreshEv @ 46 NONAME
	_ZNK22CmConnectionMethodShim7getIconEv @ 47 NONAME
	_ZNK17CmDestinationShim7getIconEv @ 48 NONAME
	_ZN17CmDestinationShim7setIconE7QString @ 49 NONAME
	_ZN22CmConnectionMethodShim7setIconE7QString @ 50 NONAME
	_ZNK13CmManagerShim20getUncategorizedIconEv @ 51 NONAME

