EXPORTS
	_Z9LibEntryLv @ 1 NONAME
	_Z15SetRequirementsRP16CTestModuleParamRm @ 2 NONAME
	_ZTI10CTestSuite @ 3 NONAME ; #<TI>#
	_ZTI11CCamcTest_1 @ 4 NONAME ; #<TI>#
	_ZTI11CCamcTest_2 @ 5 NONAME ; #<TI>#
	_ZTI11CCamcTest_3 @ 6 NONAME ; #<TI>#
	_ZTI11CCamcTest_4 @ 7 NONAME ; #<TI>#
	_ZTI11CCamcTest_5 @ 8 NONAME ; #<TI>#
	_ZTI11CCamcTest_6 @ 9 NONAME ; #<TI>#
	_ZTI11CCamcTest_7 @ 10 NONAME ; #<TI>#
	_ZTI11CCamcTest_8 @ 11 NONAME ; #<TI>#
	_ZTI11CCamcTest_9 @ 12 NONAME ; #<TI>#
	_ZTI11CTestCallerI11CCamcTest_1E @ 13 NONAME ; #<TI>#
	_ZTI11CTestCallerI11CCamcTest_2E @ 14 NONAME ; #<TI>#
	_ZTI11CTestCallerI11CCamcTest_3E @ 15 NONAME ; #<TI>#
	_ZTI11CTestCallerI11CCamcTest_4E @ 16 NONAME ; #<TI>#
	_ZTI11CTestCallerI11CCamcTest_5E @ 17 NONAME ; #<TI>#
	_ZTI11CTestCallerI11CCamcTest_6E @ 18 NONAME ; #<TI>#
	_ZTI11CTestCallerI11CCamcTest_7E @ 19 NONAME ; #<TI>#
	_ZTI11CTestCallerI11CCamcTest_8E @ 20 NONAME ; #<TI>#
	_ZTI11CTestCallerI11CCamcTest_9E @ 21 NONAME ; #<TI>#
	_ZTI11CTestCallerI21CCamcTest_visualcheckE @ 22 NONAME ; #<TI>#
	_ZTI11CTestCallerI24CCamcTest_visualcheckdspE @ 23 NONAME ; #<TI>#
	_ZTI14CAssertFailure @ 24 NONAME ; #<TI>#
	_ZTI17CCamcTestClient_1 @ 25 NONAME ; #<TI>#
	_ZTI17CCamcTestClient_2 @ 26 NONAME ; #<TI>#
	_ZTI17CCamcTestClient_3 @ 27 NONAME ; #<TI>#
	_ZTI17CCamcTestClient_4 @ 28 NONAME ; #<TI>#
	_ZTI17CCamcTestClient_5 @ 29 NONAME ; #<TI>#
	_ZTI17CCamcTestClient_6 @ 30 NONAME ; #<TI>#
	_ZTI17CCamcTestClient_7 @ 31 NONAME ; #<TI>#
	_ZTI17CCamcTestClient_8 @ 32 NONAME ; #<TI>#
	_ZTI17CCamcTestClient_9 @ 33 NONAME ; #<TI>#
	_ZTI21CCamcTest_visualcheck @ 34 NONAME ; #<TI>#
	_ZTI24CCamcTest_visualcheckdsp @ 35 NONAME ; #<TI>#
	_ZTI27CCamcTestClient_visualcheck @ 36 NONAME ; #<TI>#
	_ZTI30CCamcTestClient_visualcheckdsp @ 37 NONAME ; #<TI>#
	_ZTI9CTestCase @ 38 NONAME ; #<TI>#
	_ZTV10CTestSuite @ 39 NONAME ; #<VT>#
	_ZTV11CCamcTest_1 @ 40 NONAME ; #<VT>#
	_ZTV11CCamcTest_2 @ 41 NONAME ; #<VT>#
	_ZTV11CCamcTest_3 @ 42 NONAME ; #<VT>#
	_ZTV11CCamcTest_4 @ 43 NONAME ; #<VT>#
	_ZTV11CCamcTest_5 @ 44 NONAME ; #<VT>#
	_ZTV11CCamcTest_6 @ 45 NONAME ; #<VT>#
	_ZTV11CCamcTest_7 @ 46 NONAME ; #<VT>#
	_ZTV11CCamcTest_8 @ 47 NONAME ; #<VT>#
	_ZTV11CCamcTest_9 @ 48 NONAME ; #<VT>#
	_ZTV11CTestCallerI11CCamcTest_1E @ 49 NONAME ; #<VT>#
	_ZTV11CTestCallerI11CCamcTest_2E @ 50 NONAME ; #<VT>#
	_ZTV11CTestCallerI11CCamcTest_3E @ 51 NONAME ; #<VT>#
	_ZTV11CTestCallerI11CCamcTest_4E @ 52 NONAME ; #<VT>#
	_ZTV11CTestCallerI11CCamcTest_5E @ 53 NONAME ; #<VT>#
	_ZTV11CTestCallerI11CCamcTest_6E @ 54 NONAME ; #<VT>#
	_ZTV11CTestCallerI11CCamcTest_7E @ 55 NONAME ; #<VT>#
	_ZTV11CTestCallerI11CCamcTest_8E @ 56 NONAME ; #<VT>#
	_ZTV11CTestCallerI11CCamcTest_9E @ 57 NONAME ; #<VT>#
	_ZTV11CTestCallerI21CCamcTest_visualcheckE @ 58 NONAME ; #<VT>#
	_ZTV11CTestCallerI24CCamcTest_visualcheckdspE @ 59 NONAME ; #<VT>#
	_ZTV14CAssertFailure @ 60 NONAME ; #<VT>#
	_ZTV17CCamcTestClient_1 @ 61 NONAME ; #<VT>#
	_ZTV17CCamcTestClient_2 @ 62 NONAME ; #<VT>#
	_ZTV17CCamcTestClient_3 @ 63 NONAME ; #<VT>#
	_ZTV17CCamcTestClient_4 @ 64 NONAME ; #<VT>#
	_ZTV17CCamcTestClient_5 @ 65 NONAME ; #<VT>#
	_ZTV17CCamcTestClient_6 @ 66 NONAME ; #<VT>#
	_ZTV17CCamcTestClient_7 @ 67 NONAME ; #<VT>#
	_ZTV17CCamcTestClient_8 @ 68 NONAME ; #<VT>#
	_ZTV17CCamcTestClient_9 @ 69 NONAME ; #<VT>#
	_ZTV21CCamcTest_visualcheck @ 70 NONAME ; #<VT>#
	_ZTV24CCamcTest_visualcheckdsp @ 71 NONAME ; #<VT>#
	_ZTV27CCamcTestClient_visualcheck @ 72 NONAME ; #<VT>#
	_ZTV30CCamcTestClient_visualcheckdsp @ 73 NONAME ; #<VT>#
	_ZTV9CTestCase @ 74 NONAME ; #<VT>#

