EXPORTS
	??0EapQtPluginHandle@@QAE@ABVEapQtExpandedEapType@@@Z @ 1 NONAME ; EapQtPluginHandle::EapQtPluginHandle(class EapQtExpandedEapType const &)
	?type@EapQtPluginHandle@@QBE?AVEapQtExpandedEapType@@XZ @ 2 NONAME ; class EapQtExpandedEapType EapQtPluginHandle::type(void) const
	?orderNumber@EapQtPluginInfo@@QBEHXZ @ 3 NONAME ; int EapQtPluginInfo::orderNumber(void) const
	??4EapQtPluginInfo@@QAEAAV0@ABV0@@Z @ 4 NONAME ; class EapQtPluginInfo & EapQtPluginInfo::operator=(class EapQtPluginInfo const &)
	??1EapQtPluginHandle@@QAE@XZ @ 5 NONAME ; EapQtPluginHandle::~EapQtPluginHandle(void)
	??1EapQtExpandedEapType@@QAE@XZ @ 6 NONAME ; EapQtExpandedEapType::~EapQtExpandedEapType(void)
	?pluginId@EapQtPluginHandle@@QBE?AW4Plugin@1@XZ @ 7 NONAME ; enum EapQtPluginHandle::Plugin EapQtPluginHandle::pluginId(void) const
	??0EapQtExpandedEapType@@QAE@W4Type@0@@Z @ 8 NONAME ; EapQtExpandedEapType::EapQtExpandedEapType(enum EapQtExpandedEapType::Type)
	??0EapQtPluginInfo@@QAE@ABVEapQtPluginHandle@@ABVQString@@H@Z @ 9 NONAME ; EapQtPluginInfo::EapQtPluginInfo(class EapQtPluginHandle const &, class QString const &, int)
	??0EapQtExpandedEapType@@QAE@ABVQByteArray@@@Z @ 10 NONAME ; EapQtExpandedEapType::EapQtExpandedEapType(class QByteArray const &)
	??0EapQtPluginInfo@@QAE@ABV0@@Z @ 11 NONAME ; EapQtPluginInfo::EapQtPluginInfo(class EapQtPluginInfo const &)
	??0EapQtExpandedEapType@@QAE@ABV0@@Z @ 12 NONAME ; EapQtExpandedEapType::EapQtExpandedEapType(class EapQtExpandedEapType const &)
	??0EapQtExpandedEapType@@QAE@XZ @ 13 NONAME ; EapQtExpandedEapType::EapQtExpandedEapType(void)
	?localizationId@EapQtPluginInfo@@QBE?AVQString@@XZ @ 14 NONAME ; class QString EapQtPluginInfo::localizationId(void) const
	??0EapQtPluginHandle@@QAE@XZ @ 15 NONAME ; EapQtPluginHandle::EapQtPluginHandle(void)
	??0EapQtPluginHandle@@QAE@W4Plugin@0@@Z @ 16 NONAME ; EapQtPluginHandle::EapQtPluginHandle(enum EapQtPluginHandle::Plugin)
	??0EapQtPluginHandle@@QAE@ABV0@@Z @ 17 NONAME ; EapQtPluginHandle::EapQtPluginHandle(class EapQtPluginHandle const &)
	??0EapQtPluginHandle@@QAE@ABVEapQtExpandedEapType@@H@Z @ 18 NONAME ; EapQtPluginHandle::EapQtPluginHandle(class EapQtExpandedEapType const &, int)
	??4EapQtPluginHandle@@QAEAAV0@ABV0@@Z @ 19 NONAME ; class EapQtPluginHandle & EapQtPluginHandle::operator=(class EapQtPluginHandle const &)
	??4EapQtExpandedEapType@@QAEAAV0@ABV0@@Z @ 20 NONAME ; class EapQtExpandedEapType & EapQtExpandedEapType::operator=(class EapQtExpandedEapType const &)
	?protocolImplementationUid@EapQtPluginHandle@@QBEHXZ @ 21 NONAME ; int EapQtPluginHandle::protocolImplementationUid(void) const
	?eapExpandedData@EapQtExpandedEapType@@QBE?AVQByteArray@@XZ @ 22 NONAME ; class QByteArray EapQtExpandedEapType::eapExpandedData(void) const
	??8EapQtExpandedEapType@@QBE_NABV0@@Z @ 23 NONAME ; bool EapQtExpandedEapType::operator==(class EapQtExpandedEapType const &) const
	?pluginHandle@EapQtPluginInfo@@QBE?AVEapQtPluginHandle@@XZ @ 24 NONAME ; class EapQtPluginHandle EapQtPluginInfo::pluginHandle(void) const
	??9EapQtExpandedEapType@@QBE_NABV0@@Z @ 25 NONAME ; bool EapQtExpandedEapType::operator!=(class EapQtExpandedEapType const &) const
	?type@EapQtExpandedEapType@@QBE?AW4Type@1@XZ @ 26 NONAME ; enum EapQtExpandedEapType::Type EapQtExpandedEapType::type(void) const
	??9EapQtPluginHandle@@QBE_NABV0@@Z @ 27 NONAME ; bool EapQtPluginHandle::operator!=(class EapQtPluginHandle const &) const
	??8EapQtPluginHandle@@QBE_NABV0@@Z @ 28 NONAME ; bool EapQtPluginHandle::operator==(class EapQtPluginHandle const &) const
	??1EapQtPluginInfo@@QAE@XZ @ 29 NONAME ; EapQtPluginInfo::~EapQtPluginInfo(void)

