EXPORTS
	_ZN7CDcfRep10OrderListLERK6TDesC8 @ 1 NONAME
	_ZN7CDcfRep10OrderListLEv @ 2 NONAME
	_ZN7CDcfRep10RefreshDcfER13RPointerArrayI6HBufC8ER14TRequestStatus @ 3 NONAME
	_ZN7CDcfRep10RefreshDcfER14TRequestStatus @ 4 NONAME
	_ZN7CDcfRep14GetFileHandleLERK6TDesC8R5RFileR3RFs @ 5 NONAME
	_ZN7CDcfRep16NotifyServerIdleER14TRequestStatus @ 6 NONAME
	_ZN7CDcfRep16RemoveDcfFromDbLERK7TDesC16 @ 7 NONAME
	_ZN7CDcfRep4NewLEv @ 8 NONAME
	_ZN7CDcfRep5NextLEv @ 9 NONAME
	_ZN7CDcfRep7SetTtidER6RArrayI5TPairER14TRequestStatusi @ 10 NONAME
	_ZN7CDcfRep7UpdateLEPK9CDcfEntry @ 11 NONAME
	_ZN7CDcfRep8GetTtidLER6RArrayI5TPairE @ 12 NONAME
	_ZN7CDcfRepD0Ev @ 13 NONAME
	_ZN7CDcfRepD1Ev @ 14 NONAME
	_ZN7CDcfRepD2Ev @ 15 NONAME
	_ZN9CDcfEntry11SetGroupIdLERK6TDesC8 @ 16 NONAME
	_ZN9CDcfEntry12SetLocationLERK7TDesC16RKt @ 17 NONAME
	_ZN9CDcfEntry4NewLEv @ 18 NONAME
	_ZN9CDcfEntry7SetCidLERK6TDesC8 @ 19 NONAME
	_ZN9CDcfEntryD0Ev @ 20 NONAME
	_ZN9CDcfEntryD1Ev @ 21 NONAME
	_ZN9CDcfEntryD2Ev @ 22 NONAME
	_ZNK9CDcfEntry3CidEv @ 23 NONAME
	_ZNK9CDcfEntry7GroupIdEv @ 24 NONAME
	_ZNK9CDcfEntry8FileNameEv @ 25 NONAME
	_ZNK9CDcfEntry8PositionEv @ 26 NONAME
	_ZTI10RDcfRepCli @ 27 NONAME ; #<TI>#
	_ZTI7CDcfRep @ 28 NONAME ; #<TI>#
	_ZTI9CDcfEntry @ 29 NONAME ; #<TI>#
	_ZTV10RDcfRepCli @ 30 NONAME ; #<VT>#
	_ZTV7CDcfRep @ 31 NONAME ; #<VT>#
	_ZTV9CDcfEntry @ 32 NONAME ; #<VT>#
	_ZN10RDcfRepCli12StopWatchingEv @ 33 NONAME
	_ZN10RDcfRepCli16NotifyServerIdleER14TRequestStatus @ 34 NONAME
	_ZN10RDcfRepCli5CloseEv @ 35 NONAME
	_ZN10RDcfRepCli7AddFileERK7TDesC16 @ 36 NONAME
	_ZN10RDcfRepCli7ConnectEv @ 37 NONAME
	_ZN10RDcfRepCli7ScanDcfER13RPointerArrayI6HBufC8ER14TRequestStatus @ 38 NONAME
	_ZN10RDcfRepCli7ScanDcfER14TRequestStatus @ 39 NONAME
	_ZN10RDcfRepCli7SetTtidER6RArrayI5TPairER14TRequestStatus @ 40 NONAME
	_ZN10RDcfRepCliC1Ev @ 41 NONAME
	_ZN10RDcfRepCliC2Ev @ 42 NONAME
	_ZN10RDcfRepCliD0Ev @ 43 NONAME
	_ZN10RDcfRepCliD1Ev @ 44 NONAME
	_ZN10RDcfRepCliD2Ev @ 45 NONAME
	_ZNK10RDcfRepCli7VersionEv @ 46 NONAME

