EXPORTS
	_ZN9DRMCommon10ConstructLEv @ 1 NONAME
	_ZN9DRMCommon10DisconnectEv @ 2 NONAME
	_ZN9DRMCommon11GetFileInfoER5RFileRNS_18TContentProtectionERP6HBufC8S6_Rj @ 3 NONAME
	_ZN9DRMCommon11GetFileInfoERK7TDesC16RNS_18TContentProtectionERP6HBufC8S7_Rj @ 4 NONAME
	_ZN9DRMCommon12MapErrorCodeEi @ 5 NONAME
	_ZN9DRMCommon13GetFileHeaderER5RFileRK6TDesC8RP6HBufC8 @ 6 NONAME
	_ZN9DRMCommon13GetFileHeaderERK4TBufILi256EERK6TDesC8RP6HBufC8 @ 7 NONAME
	_ZN9DRMCommon13ServerVersionEv @ 8 NONAME
	_ZN9DRMCommon13SetFileHeaderER5RFileRK6TDesC8S4_ @ 9 NONAME
	_ZN9DRMCommon13SetFileHeaderERK7TDesC16RK6TDesC8S5_ @ 10 NONAME
	_ZN9DRMCommon14DataTypesCountERi @ 11 NONAME
	_ZN9DRMCommon14GetContentInfoERK6TDesC8RNS_18TContentProtectionERP6HBufC8S7_Rj @ 12 NONAME
	_ZN9DRMCommon15CheckFileRightsER5RFilem @ 13 NONAME
	_ZN9DRMCommon15CheckFileRightsERK7TDesC16m @ 14 NONAME
	_ZN9DRMCommon15GetActiveRightsERK6TDesC8mRP10CDRMRights @ 15 NONAME
	_ZN9DRMCommon15IsProtectedFileER5RFileRi @ 16 NONAME
	_ZN9DRMCommon15IsProtectedFileERK7TDesC16Ri @ 17 NONAME
	_ZN9DRMCommon16GetContentHeaderERK6TDesC8S2_RP6HBufC8 @ 18 NONAME
	_ZN9DRMCommon16RegisterDataTypeERK9TDataType @ 19 NONAME
	_ZN9DRMCommon16SetContentHeaderERP6HBufC8RK6TDesC8S5_ @ 20 NONAME
	_ZN9DRMCommon17GetContentURIListERP13RPointerArrayI6HBufC8E @ 21 NONAME
	_ZN9DRMCommon17SupportedDataTypeEiR9TDataType @ 22 NONAME
	_ZN9DRMCommon18CheckContentRightsERK6TDesC8m @ 23 NONAME
	_ZN9DRMCommon18IsProtectedContentERK6TDesC8Ri @ 24 NONAME
	_ZN9DRMCommon18UnRegisterDataTypeEi @ 25 NONAME
	_ZN9DRMCommon19SupportedDRMMethodsERiRNS_9TOMALevelE @ 26 NONAME
	_ZN9DRMCommon20StaticDataTypesCountERi @ 27 NONAME
	_ZN9DRMCommon21GetDetailedFileRightsER5RFileRP13RPointerArrayI10CDRMRightsE @ 28 NONAME
	_ZN9DRMCommon21GetDetailedFileRightsERK7TDesC16RP13RPointerArrayI10CDRMRightsE @ 29 NONAME
	_ZN9DRMCommon21GetSingleRightsObjectERK6TDesC8mRP10CDRMRights @ 30 NONAME
	_ZN9DRMCommon24GetDetailedContentRightsERK6TDesC8RP13RPointerArrayI10CDRMRightsE @ 31 NONAME
	_ZN9DRMCommon4NewLEv @ 32 NONAME
	_ZN9DRMCommon7ConnectEv @ 33 NONAME
	_ZN9DRMCommon7VersionEv @ 34 NONAME
	_ZN9DRMCommonC1Ev @ 35 NONAME
	_ZN9DRMCommonC2Ev @ 36 NONAME
	_ZN9DRMCommonD0Ev @ 37 NONAME
	_ZN9DRMCommonD1Ev @ 38 NONAME
	_ZN9DRMCommonD2Ev @ 39 NONAME
	_ZTI9DRMCommon @ 40 NONAME ; #<TI>#
	_ZTV9DRMCommon @ 41 NONAME ; #<VT>#
	_ZN9DRMCommon19MergeParentAndChildEP10CDRMRights @ 42 NONAME

