EXPORTS
	?get_is_valid@eap_am_stack_symbian_c@@UAE_NXZ @ 1 NONAME ; bool eap_am_stack_symbian_c::get_is_valid(void)
	??1eap_core_server_message_if_c@@UAE@XZ @ 2 NONAME ; eap_core_server_message_if_c::~eap_core_server_message_if_c(void)
	?send_message@eap_general_settings_server_message_if_c@@AAE?AW4eap_status_e@@PAVeap_process_tlv_message_data_c@@@Z @ 3 NONAME ; enum eap_status_e eap_general_settings_server_message_if_c::send_message(class eap_process_tlv_message_data_c *)
	?get_eapol_key_authentication_type_string@eapol_key_state_string_c@@SAPBDW4eapol_key_authentication_type_e@@@Z @ 4 NONAME ; char const * eapol_key_state_string_c::get_eapol_key_authentication_type_string(enum eapol_key_authentication_type_e)
	?complete_copy_configuration@eap_plugin_server_message_if_c@@UAE?AW4eap_status_e@@PBVeap_method_settings_c@@@Z @ 5 NONAME ; enum eap_status_e eap_plugin_server_message_if_c::complete_copy_configuration(class eap_method_settings_c const *)
	?state_notification@eap_core_server_message_if_c@@UAEXPBVabs_eap_state_notification_c@@@Z @ 6 NONAME ; void eap_core_server_message_if_c::state_notification(class abs_eap_state_notification_c const *)
	?set_eap_database_reference_values@eap_am_stack_symbian_c@@UAE?AW4eap_status_e@@PBVeap_variable_data_c@@@Z @ 7 NONAME ; enum eap_status_e eap_am_stack_symbian_c::set_eap_database_reference_values(class eap_variable_data_c const *)
	?get_is_valid@eap_general_settings_server_message_if_c@@UAE_NXZ @ 8 NONAME ; bool eap_general_settings_server_message_if_c::get_is_valid(void)
	?complete_delete_all_eap_settings@eap_general_settings_server_message_if_c@@UAE?AW4eap_status_e@@PBVeap_method_settings_c@@@Z @ 9 NONAME ; enum eap_status_e eap_general_settings_server_message_if_c::complete_delete_all_eap_settings(class eap_method_settings_c const *)
	?set_session_timeout@eap_core_server_message_if_c@@UAE?AW4eap_status_e@@K@Z @ 10 NONAME ; enum eap_status_e eap_core_server_message_if_c::set_session_timeout(unsigned long)
	?cancel_timer@eap_am_stack_symbian_c@@UAE?AW4eap_status_e@@PAVabs_eap_base_timer_c@@K@Z @ 11 NONAME ; enum eap_status_e eap_am_stack_symbian_c::cancel_timer(class abs_eap_base_timer_c *, unsigned long)
	??1eapol_key_state_string_c@@UAE@XZ @ 12 NONAME ; eapol_key_state_string_c::~eapol_key_state_string_c(void)
	?save_simple_config_session@eap_am_stack_symbian_c@@UAE?AW4eap_status_e@@W4simple_config_state_e@@PBV?$eap_array_c@Vsimple_config_credential_c@@@@PBVeap_variable_data_c@@W4simple_config_Device_Password_ID_e@@PBVsimple_config_payloads_c@@@Z @ 13 NONAME ; enum eap_status_e eap_am_stack_symbian_c::save_simple_config_session(enum simple_config_state_e, class eap_array_c<class simple_config_credential_c> const *, class eap_variable_data_c const *, enum simple_config_Device_Password_ID_e, class simple_config_payloads_c const *)
	?process_data@eap_core_server_message_if_c@@UAE?AW4eap_status_e@@PBXK@Z @ 14 NONAME ; enum eap_status_e eap_core_server_message_if_c::process_data(void const *, unsigned long)
	?send_message@eap_plugin_server_message_if_c@@AAE?AW4eap_status_e@@PAVeap_process_tlv_message_data_c@@@Z @ 15 NONAME ; enum eap_status_e eap_plugin_server_message_if_c::send_message(class eap_process_tlv_message_data_c *)
	?set_partner@eap_am_stack_symbian_c@@UAE?AW4eap_status_e@@PAVabs_eap_am_stack_c@@PAVabs_eap_configuration_if_c@@@Z @ 16 NONAME ; enum eap_status_e eap_am_stack_symbian_c::set_partner(class abs_eap_am_stack_c *, class abs_eap_configuration_if_c *)
	?get_is_valid@eap_core_server_message_if_c@@UAE_NXZ @ 17 NONAME ; bool eap_core_server_message_if_c::get_is_valid(void)
	??0eap_core_server_message_if_c@@QAE@PAVabs_eap_am_tools_c@@_NK@Z @ 18 NONAME ; eap_core_server_message_if_c::eap_core_server_message_if_c(class abs_eap_am_tools_c *, bool, unsigned long)
	?process_message@eap_plugin_server_message_if_c@@AAE?AW4eap_status_e@@PAVeap_process_tlv_message_data_c@@@Z @ 19 NONAME ; enum eap_status_e eap_plugin_server_message_if_c::process_message(class eap_process_tlv_message_data_c *)
	?process_data@eap_plugin_server_message_if_c@@UAE?AW4eap_status_e@@PBXK@Z @ 20 NONAME ; enum eap_status_e eap_plugin_server_message_if_c::process_data(void const *, unsigned long)
	?read_configure@eap_am_stack_symbian_c@@UAE?AW4eap_status_e@@PBVeap_configuration_field_c@@PAVeap_variable_data_c@@@Z @ 21 NONAME ; enum eap_status_e eap_am_stack_symbian_c::read_configure(class eap_configuration_field_c const *, class eap_variable_data_c *)
	??0eap_am_stack_symbian_c@@QAE@PAVabs_eap_am_tools_c@@_N@Z @ 22 NONAME ; eap_am_stack_symbian_c::eap_am_stack_symbian_c(class abs_eap_am_tools_c *, bool)
	?send_error_message@eap_general_settings_server_message_if_c@@AAE?AW4eap_status_e@@W42@W4eap_tlv_message_type_function_e@@@Z @ 23 NONAME ; enum eap_status_e eap_general_settings_server_message_if_c::send_error_message(enum eap_status_e, enum eap_tlv_message_type_function_e)
	?process_message@eap_core_server_message_if_c@@AAE?AW4eap_status_e@@PAVeap_process_tlv_message_data_c@@@Z @ 24 NONAME ; enum eap_status_e eap_core_server_message_if_c::process_message(class eap_process_tlv_message_data_c *)
	?complete_get_802_11_authentication_mode@eap_core_server_message_if_c@@UAE?AW4eap_status_e@@W42@PBVeap_am_network_id_c@@W4eapol_key_802_11_authentication_mode_e@@@Z @ 25 NONAME ; enum eap_status_e eap_core_server_message_if_c::complete_get_802_11_authentication_mode(enum eap_status_e, class eap_am_network_id_c const *, enum eapol_key_802_11_authentication_mode_e)
	?check_is_valid_eap_type@eap_am_stack_symbian_c@@UAE?AW4eap_status_e@@Veap_expanded_type_c@@@Z @ 26 NONAME ; enum eap_status_e eap_am_stack_symbian_c::check_is_valid_eap_type(class eap_expanded_type_c)
	??1EapClientIf@@UAE@XZ @ 27 NONAME ; EapClientIf::~EapClientIf(void)
	??0eap_general_settings_server_message_if_c@@QAE@PAVabs_eap_am_tools_c@@@Z @ 28 NONAME ; eap_general_settings_server_message_if_c::eap_general_settings_server_message_if_c(class abs_eap_am_tools_c *)
	?GetServerNameAndExe@EapClientIf@@KAHPAV?$TBuf@$0BI@@@0@Z @ 29 NONAME ; int EapClientIf::GetServerNameAndExe(class TBuf<24> *, class TBuf<24> *)
	?read_configure@eap_core_server_message_if_c@@UAE?AW4eap_status_e@@PBVeap_configuration_field_c@@PAVeap_variable_data_c@@@Z @ 30 NONAME ; enum eap_status_e eap_core_server_message_if_c::read_configure(class eap_configuration_field_c const *, class eap_variable_data_c *)
	?packet_send@eap_core_server_message_if_c@@UAE?AW4eap_status_e@@PBVeap_am_network_id_c@@PAVeap_buf_chain_wr_c@@KKK@Z @ 31 NONAME ; enum eap_status_e eap_core_server_message_if_c::packet_send(class eap_am_network_id_c const *, class eap_buf_chain_wr_c *, unsigned long, unsigned long, unsigned long)
	?get_eap_type_list@eap_core_server_message_if_c@@UAE?AW4eap_status_e@@PAV?$eap_array_c@Veap_expanded_type_c@@@@@Z @ 32 NONAME ; enum eap_status_e eap_core_server_message_if_c::get_eap_type_list(class eap_array_c<class eap_expanded_type_c> *)
	?shutdown@eap_plugin_server_message_if_c@@UAE?AW4eap_status_e@@XZ @ 33 NONAME ; enum eap_status_e eap_plugin_server_message_if_c::shutdown(void)
	?complete_delete_configuration@eap_plugin_server_message_if_c@@UAE?AW4eap_status_e@@PBVeap_method_settings_c@@@Z @ 34 NONAME ; enum eap_status_e eap_plugin_server_message_if_c::complete_delete_configuration(class eap_method_settings_c const *)
	?complete_get_certificate_lists@eap_general_settings_server_message_if_c@@UAE?AW4eap_status_e@@PBVeap_method_settings_c@@@Z @ 35 NONAME ; enum eap_status_e eap_general_settings_server_message_if_c::complete_get_certificate_lists(class eap_method_settings_c const *)
	?complete_remove_eap_session@eap_core_server_message_if_c@@EAE?AW4eap_status_e@@_NPBVeap_am_network_id_c@@@Z @ 36 NONAME ; enum eap_status_e eap_core_server_message_if_c::complete_remove_eap_session(bool, class eap_am_network_id_c const *)
	?set_timer@eap_core_server_message_if_c@@UAE?AW4eap_status_e@@PAVabs_eap_base_timer_c@@KPAXK@Z @ 37 NONAME ; enum eap_status_e eap_core_server_message_if_c::set_timer(class abs_eap_base_timer_c *, unsigned long, void *, unsigned long)
	?shutdown@eap_core_server_message_if_c@@UAE?AW4eap_status_e@@XZ @ 38 NONAME ; enum eap_status_e eap_core_server_message_if_c::shutdown(void)
	?restart_authentication@eap_core_server_message_if_c@@UAE?AW4eap_status_e@@PBVeap_am_network_id_c@@_N11@Z @ 39 NONAME ; enum eap_status_e eap_core_server_message_if_c::restart_authentication(class eap_am_network_id_c const *, bool, bool, bool)
	?get_eap_type_list@eap_am_stack_symbian_c@@UAE?AW4eap_status_e@@PAV?$eap_array_c@Veap_expanded_type_c@@@@@Z @ 40 NONAME ; enum eap_status_e eap_am_stack_symbian_c::get_eap_type_list(class eap_array_c<class eap_expanded_type_c> *)
	?save_simple_config_session@eap_core_server_message_if_c@@UAE?AW4eap_status_e@@W4simple_config_state_e@@PBV?$eap_array_c@Vsimple_config_credential_c@@@@PBVeap_variable_data_c@@W4simple_config_Device_Password_ID_e@@PBVsimple_config_payloads_c@@@Z @ 41 NONAME ; enum eap_status_e eap_core_server_message_if_c::save_simple_config_session(enum simple_config_state_e, class eap_array_c<class simple_config_credential_c> const *, class eap_variable_data_c const *, enum simple_config_Device_Password_ID_e, class simple_config_payloads_c const *)
	??0EapClientIf@@QAE@XZ @ 42 NONAME ; EapClientIf::EapClientIf(void)
	?shutdown@eap_am_stack_symbian_c@@UAE?AW4eap_status_e@@XZ @ 43 NONAME ; enum eap_status_e eap_am_stack_symbian_c::shutdown(void)
	?timer_delete_data@eap_plugin_server_message_if_c@@UAE?AW4eap_status_e@@KPAX@Z @ 44 NONAME ; enum eap_status_e eap_plugin_server_message_if_c::timer_delete_data(unsigned long, void *)
	?configure@eap_plugin_server_message_if_c@@UAE?AW4eap_status_e@@PBVeap_variable_data_c@@@Z @ 45 NONAME ; enum eap_status_e eap_plugin_server_message_if_c::configure(class eap_variable_data_c const *)
	?write_configure@eap_core_server_message_if_c@@UAE?AW4eap_status_e@@PBVeap_configuration_field_c@@PAVeap_variable_data_c@@@Z @ 46 NONAME ; enum eap_status_e eap_core_server_message_if_c::write_configure(class eap_configuration_field_c const *, class eap_variable_data_c *)
	?timer_expired@eap_core_server_message_if_c@@UAE?AW4eap_status_e@@KPAX@Z @ 47 NONAME ; enum eap_status_e eap_core_server_message_if_c::timer_expired(unsigned long, void *)
	?process_message_type_error@eap_plugin_server_message_if_c@@AAE?AW4eap_status_e@@PBV?$eap_array_c@Veap_tlv_header_c@@@@@Z @ 48 NONAME ; enum eap_status_e eap_plugin_server_message_if_c::process_message_type_error(class eap_array_c<class eap_tlv_header_c> const *)
	?set_is_valid@eap_core_server_message_if_c@@QAEXXZ @ 49 NONAME ; void eap_core_server_message_if_c::set_is_valid(void)
	?configure@eap_general_settings_server_message_if_c@@UAE?AW4eap_status_e@@PBVeap_variable_data_c@@@Z @ 50 NONAME ; enum eap_status_e eap_general_settings_server_message_if_c::configure(class eap_variable_data_c const *)
	?set_is_valid@eap_plugin_server_message_if_c@@QAEXXZ @ 51 NONAME ; void eap_plugin_server_message_if_c::set_is_valid(void)
	?asynchronous_start_authentication@eap_core_server_message_if_c@@QAE?AW4eap_status_e@@PBVeap_am_network_id_c@@_N@Z @ 52 NONAME ; enum eap_status_e eap_core_server_message_if_c::asynchronous_start_authentication(class eap_am_network_id_c const *, bool)
	?timer_delete_data@eap_core_server_message_if_c@@UAE?AW4eap_status_e@@KPAX@Z @ 53 NONAME ; enum eap_status_e eap_core_server_message_if_c::timer_delete_data(unsigned long, void *)
	?complete_set_index@eap_plugin_server_message_if_c@@UAE?AW4eap_status_e@@PBVeap_method_settings_c@@@Z @ 54 NONAME ; enum eap_status_e eap_plugin_server_message_if_c::complete_set_index(class eap_method_settings_c const *)
	?eap_mtu@eap_core_server_message_if_c@@AAE?AW4eap_status_e@@PBV?$eap_array_c@Veap_tlv_header_c@@@@@Z @ 55 NONAME ; enum eap_status_e eap_core_server_message_if_c::eap_mtu(class eap_array_c<class eap_tlv_header_c> const *)
	?get_eapol_key_handshake_type_string@eapol_key_state_string_c@@SAPBDW4eapol_key_handshake_type_e@@@Z @ 56 NONAME ; char const * eapol_key_state_string_c::get_eapol_key_handshake_type_string(enum eapol_key_handshake_type_e)
	?get_is_valid@eap_plugin_server_message_if_c@@UAE_NXZ @ 57 NONAME ; bool eap_plugin_server_message_if_c::get_is_valid(void)
	?add_rogue_ap@eap_core_server_message_if_c@@UAE?AW4eap_status_e@@AAV?$eap_array_c@Veap_rogue_ap_entry_c@@@@@Z @ 58 NONAME ; enum eap_status_e eap_core_server_message_if_c::add_rogue_ap(class eap_array_c<class eap_rogue_ap_entry_c> &)
	?set_timer@eap_am_stack_symbian_c@@UAE?AW4eap_status_e@@PAVabs_eap_base_timer_c@@KPAXK@Z @ 59 NONAME ; enum eap_status_e eap_am_stack_symbian_c::set_timer(class abs_eap_base_timer_c *, unsigned long, void *, unsigned long)
	??1eap_am_stack_symbian_c@@UAE@XZ @ 60 NONAME ; eap_am_stack_symbian_c::~eap_am_stack_symbian_c(void)
	?check_is_valid_eap_type@eap_core_server_message_if_c@@UAE?AW4eap_status_e@@Veap_expanded_type_c@@@Z @ 61 NONAME ; enum eap_status_e eap_core_server_message_if_c::check_is_valid_eap_type(class eap_expanded_type_c)
	?shutdown@eap_general_settings_server_message_if_c@@UAE?AW4eap_status_e@@XZ @ 62 NONAME ; enum eap_status_e eap_general_settings_server_message_if_c::shutdown(void)
	?set_partner@eap_core_server_message_if_c@@UAEXPAVabs_eap_am_message_if_c@@@Z @ 63 NONAME ; void eap_core_server_message_if_c::set_partner(class abs_eap_am_message_if_c *)
	?complete_get_configuration@eap_plugin_server_message_if_c@@UAE?AW4eap_status_e@@PBVeap_method_settings_c@@@Z @ 64 NONAME ; enum eap_status_e eap_plugin_server_message_if_c::complete_get_configuration(class eap_method_settings_c const *)
	?get_802_11_authentication_mode@eap_am_stack_symbian_c@@UAE?AW4eap_status_e@@PBVeap_am_network_id_c@@W4eapol_key_authentication_type_e@@@Z @ 65 NONAME ; enum eap_status_e eap_am_stack_symbian_c::get_802_11_authentication_mode(class eap_am_network_id_c const *, enum eapol_key_authentication_type_e)
	?packet_data_crypto_keys@eap_core_server_message_if_c@@UAE?AW4eap_status_e@@PBVeap_am_network_id_c@@PBVeap_master_session_key_c@@@Z @ 66 NONAME ; enum eap_status_e eap_core_server_message_if_c::packet_data_crypto_keys(class eap_am_network_id_c const *, class eap_master_session_key_c const *)
	?timer_expired@eap_plugin_server_message_if_c@@UAE?AW4eap_status_e@@KPAX@Z @ 67 NONAME ; enum eap_status_e eap_plugin_server_message_if_c::timer_expired(unsigned long, void *)
	?process_data@eap_general_settings_server_message_if_c@@UAE?AW4eap_status_e@@PBXK@Z @ 68 NONAME ; enum eap_status_e eap_general_settings_server_message_if_c::process_data(void const *, unsigned long)
	??0eapol_key_state_string_c@@QAE@XZ @ 69 NONAME ; eapol_key_state_string_c::eapol_key_state_string_c(void)
	?complete_invoke_ui@eap_plugin_server_message_if_c@@UAE?AW4eap_status_e@@PBVeap_method_settings_c@@@Z @ 70 NONAME ; enum eap_status_e eap_plugin_server_message_if_c::complete_invoke_ui(class eap_method_settings_c const *)
	?get_802_11_authentication_mode@eap_core_server_message_if_c@@AAE?AW4eap_status_e@@PBV?$eap_array_c@Veap_tlv_header_c@@@@@Z @ 71 NONAME ; enum eap_status_e eap_core_server_message_if_c::get_802_11_authentication_mode(class eap_array_c<class eap_tlv_header_c> const *)
	?load_module@eap_am_stack_symbian_c@@UAE?AW4eap_status_e@@Veap_expanded_type_c@@0PAVabs_eap_base_type_c@@PAPAVeap_base_type_c@@_NPBVeap_am_network_id_c@@@Z @ 72 NONAME ; enum eap_status_e eap_am_stack_symbian_c::load_module(class eap_expanded_type_c, class eap_expanded_type_c, class abs_eap_base_type_c *, class eap_base_type_c * *, bool, class eap_am_network_id_c const *)
	?unload_module@eap_core_server_message_if_c@@UAE?AW4eap_status_e@@Veap_expanded_type_c@@@Z @ 73 NONAME ; enum eap_status_e eap_core_server_message_if_c::unload_module(class eap_expanded_type_c)
	?process_message_type_error@eap_core_server_message_if_c@@AAE?AW4eap_status_e@@PBV?$eap_array_c@Veap_tlv_header_c@@@@@Z @ 74 NONAME ; enum eap_status_e eap_core_server_message_if_c::process_message_type_error(class eap_array_c<class eap_tlv_header_c> const *)
	?complete_get_eap_methods@eap_general_settings_server_message_if_c@@UAE?AW4eap_status_e@@PBVeap_method_settings_c@@@Z @ 75 NONAME ; enum eap_status_e eap_general_settings_server_message_if_c::complete_get_eap_methods(class eap_method_settings_c const *)
	?cancel_timer@eap_core_server_message_if_c@@UAE?AW4eap_status_e@@PAVabs_eap_base_timer_c@@K@Z @ 76 NONAME ; enum eap_status_e eap_core_server_message_if_c::cancel_timer(class abs_eap_base_timer_c *, unsigned long)
	?complete_get_type_info@eap_plugin_server_message_if_c@@UAE?AW4eap_status_e@@PBVeap_method_settings_c@@@Z @ 77 NONAME ; enum eap_status_e eap_plugin_server_message_if_c::complete_get_type_info(class eap_method_settings_c const *)
	?send_message@eap_core_server_message_if_c@@AAE?AW4eap_status_e@@PAVeap_process_tlv_message_data_c@@@Z @ 78 NONAME ; enum eap_status_e eap_core_server_message_if_c::send_message(class eap_process_tlv_message_data_c *)
	?complete_set_eap_methods@eap_general_settings_server_message_if_c@@UAE?AW4eap_status_e@@PBVeap_method_settings_c@@@Z @ 79 NONAME ; enum eap_status_e eap_general_settings_server_message_if_c::complete_set_eap_methods(class eap_method_settings_c const *)
	?configure@eap_am_stack_symbian_c@@UAE?AW4eap_status_e@@PBVeap_variable_data_c@@@Z @ 80 NONAME ; enum eap_status_e eap_am_stack_symbian_c::configure(class eap_variable_data_c const *)
	?configure@eap_core_server_message_if_c@@UAE?AW4eap_status_e@@PBVeap_variable_data_c@@@Z @ 81 NONAME ; enum eap_status_e eap_core_server_message_if_c::configure(class eap_variable_data_c const *)
	?asynchronous_init_remove_eap_session@eap_core_server_message_if_c@@QAE?AW4eap_status_e@@PBVeap_am_network_id_c@@@Z @ 82 NONAME ; enum eap_status_e eap_core_server_message_if_c::asynchronous_init_remove_eap_session(class eap_am_network_id_c const *)
	?process_message_type_error@eap_general_settings_server_message_if_c@@AAE?AW4eap_status_e@@PBV?$eap_array_c@Veap_tlv_header_c@@@@@Z @ 83 NONAME ; enum eap_status_e eap_general_settings_server_message_if_c::process_message_type_error(class eap_array_c<class eap_tlv_header_c> const *)
	?timer_expired@eap_general_settings_server_message_if_c@@UAE?AW4eap_status_e@@KPAX@Z @ 84 NONAME ; enum eap_status_e eap_general_settings_server_message_if_c::timer_expired(unsigned long, void *)
	?set_partner@eap_general_settings_server_message_if_c@@UAEXPAVabs_eap_am_message_if_c@@@Z @ 85 NONAME ; void eap_general_settings_server_message_if_c::set_partner(class abs_eap_am_message_if_c *)
	?load_module@eap_core_server_message_if_c@@UAE?AW4eap_status_e@@Veap_expanded_type_c@@0PAVabs_eap_base_type_c@@PAPAVeap_base_type_c@@_NPBVeap_am_network_id_c@@@Z @ 86 NONAME ; enum eap_status_e eap_core_server_message_if_c::load_module(class eap_expanded_type_c, class eap_expanded_type_c, class abs_eap_base_type_c *, class eap_base_type_c * *, bool, class eap_am_network_id_c const *)
	?send_error_message@eap_plugin_server_message_if_c@@AAE?AW4eap_status_e@@W42@W4eap_tlv_message_type_function_e@@@Z @ 87 NONAME ; enum eap_status_e eap_plugin_server_message_if_c::send_error_message(enum eap_status_e, enum eap_tlv_message_type_function_e)
	?LaunchFromClient@CEapScheduler@@SAHV?$TBuf@$0BI@@@@Z @ 88 NONAME ; int CEapScheduler::LaunchFromClient(class TBuf<24>)
	?ThreadStart@CEapScheduler@@SAHAAVTServerStart@1@@Z @ 89 NONAME ; int CEapScheduler::ThreadStart(class CEapScheduler::TServerStart &)
	?new_eap_am_stack_c@@YAPAVeap_am_stack_c@@PAVabs_eap_am_tools_c@@_N@Z @ 90 NONAME ; class eap_am_stack_c * new_eap_am_stack_c(class abs_eap_am_tools_c *, bool)
	?complete_set_configuration@eap_plugin_server_message_if_c@@UAE?AW4eap_status_e@@PBVeap_method_settings_c@@@Z @ 91 NONAME ; enum eap_status_e eap_plugin_server_message_if_c::complete_set_configuration(class eap_method_settings_c const *)
	?complete_copy_all_eap_settings@eap_general_settings_server_message_if_c@@UAE?AW4eap_status_e@@PBVeap_method_settings_c@@@Z @ 92 NONAME ; enum eap_status_e eap_general_settings_server_message_if_c::complete_copy_all_eap_settings(class eap_method_settings_c const *)
	?timer_delete_data@eap_general_settings_server_message_if_c@@UAE?AW4eap_status_e@@KPAX@Z @ 93 NONAME ; enum eap_status_e eap_general_settings_server_message_if_c::timer_delete_data(unsigned long, void *)
	?send_error_message@eap_core_server_message_if_c@@AAE?AW4eap_status_e@@W42@W4eap_tlv_message_type_function_e@@@Z @ 94 NONAME ; enum eap_status_e eap_core_server_message_if_c::send_error_message(enum eap_status_e, enum eap_tlv_message_type_function_e)
	?NewL@CEapScheduler@@SAPAV1@XZ @ 95 NONAME ; class CEapScheduler * CEapScheduler::NewL(void)
	?get_eapol_key_descriptor_type_string@eapol_key_state_string_c@@SAPBDW4eapol_key_descriptor_type_e@@@Z @ 96 NONAME ; char const * eapol_key_state_string_c::get_eapol_key_descriptor_type_string(enum eapol_key_descriptor_type_e)
	?set_is_valid@eap_general_settings_server_message_if_c@@QAEXXZ @ 97 NONAME ; void eap_general_settings_server_message_if_c::set_is_valid(void)
	??1eap_general_settings_server_message_if_c@@UAE@XZ @ 98 NONAME ; eap_general_settings_server_message_if_c::~eap_general_settings_server_message_if_c(void)
	??1eap_plugin_server_message_if_c@@UAE@XZ @ 99 NONAME ; eap_plugin_server_message_if_c::~eap_plugin_server_message_if_c(void)
	?get_eapol_key_state_string@eapol_key_state_string_c@@SAPBDW4eapol_key_state_e@@@Z @ 100 NONAME ; char const * eapol_key_state_string_c::get_eapol_key_state_string(enum eapol_key_state_e)
	?set_partner@eap_plugin_server_message_if_c@@UAEXPAVabs_eap_am_message_if_c@@@Z @ 101 NONAME ; void eap_plugin_server_message_if_c::set_partner(class abs_eap_am_message_if_c *)
	?process_message@eap_general_settings_server_message_if_c@@AAE?AW4eap_status_e@@PAVeap_process_tlv_message_data_c@@@Z @ 102 NONAME ; enum eap_status_e eap_general_settings_server_message_if_c::process_message(class eap_process_tlv_message_data_c *)
	?get_header_offset@eap_core_server_message_if_c@@UAEKPAK0@Z @ 103 NONAME ; unsigned long eap_core_server_message_if_c::get_header_offset(unsigned long *, unsigned long *)
	??0eap_plugin_server_message_if_c@@QAE@PAVabs_eap_am_tools_c@@@Z @ 104 NONAME ; eap_plugin_server_message_if_c::eap_plugin_server_message_if_c(class abs_eap_am_tools_c *)
	?eap_acknowledge@eap_core_server_message_if_c@@AAE?AW4eap_status_e@@PBV?$eap_array_c@Veap_tlv_header_c@@@@@Z @ 105 NONAME ; enum eap_status_e eap_core_server_message_if_c::eap_acknowledge(class eap_array_c<class eap_tlv_header_c> const *)

