EXPORTS
	?cancel_all_authentication_sessions@eapol_core_c@@QAE?AW4eap_status_e@@XZ @ 1 NONAME ; enum eap_status_e eapol_core_c::cancel_all_authentication_sessions(void)
	?timer_expired@eap_core_client_message_if_c@@UAE?AW4eap_status_e@@KPAX@Z @ 2 NONAME ; enum eap_status_e eap_core_client_message_if_c::timer_expired(unsigned long, void *)
	?get_eapol_packet_body_length@eapol_RSNA_key_header_c@@QBEGXZ @ 3 NONAME ; unsigned short eapol_RSNA_key_header_c::get_eapol_packet_body_length(void) const
	?configure@ethernet_core_c@@UAE?AW4eap_status_e@@XZ @ 4 NONAME ; enum eap_status_e ethernet_core_c::configure(void)
	?zero_key_NONCE@eapol_RSNA_key_header_c@@QAE?AW4eap_status_e@@PAVabs_eap_am_tools_c@@@Z @ 5 NONAME ; enum eap_status_e eapol_RSNA_key_header_c::zero_key_NONCE(class abs_eap_am_tools_c *)
	?packet_data_session_key@ethernet_core_c@@UAE?AW4eap_status_e@@PBVeap_am_network_id_c@@PBVeapol_session_key_c@@@Z @ 6 NONAME ; enum eap_status_e ethernet_core_c::packet_data_session_key(class eap_am_network_id_c const *, class eapol_session_key_c const *)
	?check_padding@eapol_key_state_c@@AAE?AW4eap_status_e@@PBEK@Z @ 7 NONAME ; enum eap_status_e eapol_key_state_c::check_padding(unsigned char const *, unsigned long)
	?set_current_eap_index@eapol_wlan_authentication_c@@UAEXK@Z @ 8 NONAME ; void eapol_wlan_authentication_c::set_current_eap_index(unsigned long)
	?create_4_way_handshake_message_1@eapol_key_state_c@@AAE?AW4eap_status_e@@PAVeap_buf_chain_wr_c@@KPAK1W4eapol_protocol_version_e@@W4eapol_key_descriptor_type_e@@@Z @ 9 NONAME ; enum eap_status_e eapol_key_state_c::create_4_way_handshake_message_1(class eap_buf_chain_wr_c *, unsigned long, unsigned long *, unsigned long *, enum eapol_protocol_version_e, enum eapol_key_descriptor_type_e)
	??1ethernet_core_c@@UAE@XZ @ 10 NONAME ; ethernet_core_c::~ethernet_core_c(void)
	??1eapol_core_c@@UAE@XZ @ 11 NONAME ; eapol_core_c::~eapol_core_c(void)
	?get_key_information_key_type@eapol_RSNA_key_header_c@@QBE_NXZ @ 12 NONAME ; bool eapol_RSNA_key_header_c::get_key_information_key_type(void) const
	?get_eap_type_list@eapol_wlan_authentication_c@@UAE?AW4eap_status_e@@PAV?$eap_array_c@Veap_expanded_type_c@@@@@Z @ 13 NONAME ; enum eap_status_e eapol_wlan_authentication_c::get_eap_type_list(class eap_array_c<class eap_expanded_type_c> *)
	?packet_send@ethernet_core_c@@UAE?AW4eap_status_e@@PBVeap_am_network_id_c@@PAVeap_buf_chain_wr_c@@KKK@Z @ 14 NONAME ; enum eap_status_e ethernet_core_c::packet_send(class eap_am_network_id_c const *, class eap_buf_chain_wr_c *, unsigned long, unsigned long, unsigned long)
	?associate@eapol_message_wlan_authentication_c@@UAE?AW4eap_status_e@@W4eapol_key_802_11_authentication_mode_e@@@Z @ 15 NONAME ; enum eap_status_e eapol_message_wlan_authentication_c::associate(enum eapol_key_802_11_authentication_mode_e)
	?add_RSN_IE_payload@eapol_key_state_c@@AAE?AW4eap_status_e@@PBVeapol_RSNA_key_header_c@@PAVeap_variable_data_c@@PAK@Z @ 16 NONAME ; enum eap_status_e eapol_key_state_c::add_RSN_IE_payload(class eapol_RSNA_key_header_c const *, class eap_variable_data_c *, unsigned long *)
	?get_key_information_reserved_a@eapol_RSNA_key_header_c@@QBEEXZ @ 17 NONAME ; unsigned char eapol_RSNA_key_header_c::get_key_information_reserved_a(void) const
	?asynchronous_init_remove_eapol_key_state@eapol_core_c@@UAE?AW4eap_status_e@@PBVeap_am_network_id_c@@@Z @ 18 NONAME ; enum eap_status_e eapol_core_c::asynchronous_init_remove_eapol_key_state(class eap_am_network_id_c const *)
	?start_4_way_handshake@eapol_key_state_c@@QAE?AW4eap_status_e@@PBVeap_am_network_id_c@@@Z @ 19 NONAME ; enum eap_status_e eapol_key_state_c::start_4_way_handshake(class eap_am_network_id_c const *)
	?load_module@eapol_wlan_authentication_c@@UAE?AW4eap_status_e@@Veap_expanded_type_c@@0PAVabs_eap_base_type_c@@PAPAVeap_base_type_c@@_NPBVeap_am_network_id_c@@@Z @ 20 NONAME ; enum eap_status_e eapol_wlan_authentication_c::load_module(class eap_expanded_type_c, class eap_expanded_type_c, class abs_eap_base_type_c *, class eap_base_type_c * *, bool, class eap_am_network_id_c const *)
	?cancel_retransmission@eapol_key_state_c@@AAE?AW4eap_status_e@@XZ @ 21 NONAME ; enum eap_status_e eapol_key_state_c::cancel_retransmission(void)
	?complete_check_pmksa_cache@eapol_message_wlan_authentication_c@@UAE?AW4eap_status_e@@PBV?$eap_array_c@Veap_am_network_id_c@@@@@Z @ 22 NONAME ; enum eap_status_e eapol_message_wlan_authentication_c::complete_check_pmksa_cache(class eap_array_c<class eap_am_network_id_c> const *)
	?rsna_prf@eapol_key_state_c@@AAE?AW4eap_status_e@@PBVeap_variable_data_c@@00KPAV3@@Z @ 23 NONAME ; enum eap_status_e eapol_key_state_c::rsna_prf(class eap_variable_data_c const *, class eap_variable_data_c const *, class eap_variable_data_c const *, unsigned long, class eap_variable_data_c *)
	?convert@wlan_eap_if_send_status_conversion_c@@SA?AW4eap_status_e@@W4wlan_eap_if_send_status_e@@@Z @ 24 NONAME ; enum eap_status_e wlan_eap_if_send_status_conversion_c::convert(enum wlan_eap_if_send_status_e)
	?start_reassociation@eapol_message_wlan_authentication_c@@AAE?AW4eap_status_e@@PBV?$eap_array_c@Veap_tlv_header_c@@@@@Z @ 25 NONAME ; enum eap_status_e eapol_message_wlan_authentication_c::start_reassociation(class eap_array_c<class eap_tlv_header_c> const *)
	?new_eapol_am_wlan_authentication@eapol_am_wlan_authentication_c@@SAPAV1@PAVabs_eap_am_tools_c@@_N@Z @ 26 NONAME ; class eapol_am_wlan_authentication_c * eapol_am_wlan_authentication_c::new_eapol_am_wlan_authentication(class abs_eap_am_tools_c *, bool)
	?configure@eapol_core_c@@UAE?AW4eap_status_e@@XZ @ 27 NONAME ; enum eap_status_e eapol_core_c::configure(void)
	?reset_header@eapol_RSNA_key_header_c@@QAE?AW4eap_status_e@@EW4eapol_key_authentication_type_e@@W4eapol_RSNA_cipher_e@1@_K_N33333333W4eapol_protocol_version_e@@W4eapol_key_descriptor_type_e@@@Z @ 28 NONAME ; enum eap_status_e eapol_RSNA_key_header_c::reset_header(unsigned char, enum eapol_key_authentication_type_e, enum eapol_RSNA_key_header_c::eapol_RSNA_cipher_e, unsigned long long, bool, bool, bool, bool, bool, bool, bool, bool, bool, enum eapol_protocol_version_e, enum eapol_key_descriptor_type_e)
	?association@eapol_core_c@@QAE?AW4eap_status_e@@PBVeap_am_network_id_c@@W4eapol_key_authentication_type_e@@PBVeap_variable_data_c@@2W4eapol_RSNA_cipher_e@eapol_RSNA_key_header_c@@32@Z @ 29 NONAME ; enum eap_status_e eapol_core_c::association(class eap_am_network_id_c const *, enum eapol_key_authentication_type_e, class eap_variable_data_c const *, class eap_variable_data_c const *, enum eapol_RSNA_key_header_c::eapol_RSNA_cipher_e, enum eapol_RSNA_key_header_c::eapol_RSNA_cipher_e, class eap_variable_data_c const *)
	?complete_WPXM_reassociation@eapol_message_wlan_authentication_c@@AAE?AW4eap_status_e@@PBV?$eap_array_c@Veap_tlv_header_c@@@@@Z @ 30 NONAME ; enum eap_status_e eapol_message_wlan_authentication_c::complete_WPXM_reassociation(class eap_array_c<class eap_tlv_header_c> const *)
	?cancel_all_timers@ethernet_core_c@@UAE?AW4eap_status_e@@XZ @ 31 NONAME ; enum eap_status_e ethernet_core_c::cancel_all_timers(void)
	?object_decrease_reference_count@eapol_key_state_c@@QAEKXZ @ 32 NONAME ; unsigned long eapol_key_state_c::object_decrease_reference_count(void)
	?set_eap_database_reference_values@eapol_wlan_authentication_c@@UAE?AW4eap_status_e@@PBVeap_variable_data_c@@@Z @ 33 NONAME ; enum eap_status_e eapol_wlan_authentication_c::set_eap_database_reference_values(class eap_variable_data_c const *)
	?send_logoff@eapol_core_c@@QAE?AW4eap_status_e@@PBVeap_am_network_id_c@@@Z @ 34 NONAME ; enum eap_status_e eapol_core_c::send_logoff(class eap_am_network_id_c const *)
	?init_eapol_key_pmksa_caching_timeout@eapol_core_c@@AAE?AW4eap_status_e@@PBVeap_am_network_id_c@@@Z @ 35 NONAME ; enum eap_status_e eapol_core_c::init_eapol_key_pmksa_caching_timeout(class eap_am_network_id_c const *)
	??0eapol_message_wlan_authentication_c@@QAE@PAVabs_eap_am_tools_c@@PAVabs_eapol_message_wlan_authentication_c@@@Z @ 36 NONAME ; eapol_message_wlan_authentication_c::eapol_message_wlan_authentication_c(class abs_eap_am_tools_c *, class abs_eapol_message_wlan_authentication_c *)
	?disassociation@eapol_wlan_authentication_c@@UAE?AW4eap_status_e@@PBVeap_am_network_id_c@@@Z @ 37 NONAME ; enum eap_status_e eapol_wlan_authentication_c::disassociation(class eap_am_network_id_c const *)
	?set_key_information_install@eapol_RSNA_key_header_c@@QAE?AW4eap_status_e@@_N@Z @ 38 NONAME ; enum eap_status_e eapol_RSNA_key_header_c::set_key_information_install(bool)
	?check_header@eapol_RC4_key_header_c@@UBE?AW4eap_status_e@@XZ @ 39 NONAME ; enum eap_status_e eapol_RC4_key_header_c::check_header(void) const
	?cancel_authentication_session@eapol_key_state_c@@QAE?AW4eap_status_e@@XZ @ 40 NONAME ; enum eap_status_e eapol_key_state_c::cancel_authentication_session(void)
	?get_header_offset@eapol_core_c@@UAEKPAK0@Z @ 41 NONAME ; unsigned long eapol_core_c::get_header_offset(unsigned long *, unsigned long *)
	?get_key_information_reserved_b@eapol_RSNA_key_header_c@@QBEEXZ @ 42 NONAME ; unsigned char eapol_RSNA_key_header_c::get_key_information_reserved_b(void) const
	??1eapol_message_wlan_authentication_c@@UAE@XZ @ 43 NONAME ; eapol_message_wlan_authentication_c::~eapol_message_wlan_authentication_c(void)
	?set_is_valid@eap_core_client_message_if_c@@EAEXXZ @ 44 NONAME ; void eap_core_client_message_if_c::set_is_valid(void)
	?check_payloads@eapol_rsna_key_data_payloads_c@@QAE_NW4eapol_rsna_key_data_payload_status_e@1@000@Z @ 45 NONAME ; bool eapol_rsna_key_data_payloads_c::check_payloads(enum eapol_rsna_key_data_payloads_c::eapol_rsna_key_data_payload_status_e, enum eapol_rsna_key_data_payloads_c::eapol_rsna_key_data_payload_status_e, enum eapol_rsna_key_data_payloads_c::eapol_rsna_key_data_payload_status_e, enum eapol_rsna_key_data_payloads_c::eapol_rsna_key_data_payload_status_e)
	?initialize@eapol_key_state_c@@QAE?AW4eap_status_e@@PBVeap_am_network_id_c@@W4eapol_key_authentication_type_e@@@Z @ 46 NONAME ; enum eap_status_e eapol_key_state_c::initialize(class eap_am_network_id_c const *, enum eapol_key_authentication_type_e)
	?encrypt_key_data@eapol_key_state_c@@AAE?AW4eap_status_e@@PAVeapol_RSNA_key_header_c@@@Z @ 47 NONAME ; enum eap_status_e eapol_key_state_c::encrypt_key_data(class eapol_RSNA_key_header_c *)
	?get_client_send_key_reply_counter@eapol_key_state_c@@AAE_KXZ @ 48 NONAME ; unsigned long long eapol_key_state_c::get_client_send_key_reply_counter(void)
	?get_802_11_authentication_mode@ethernet_core_c@@QAE?AW4eap_status_e@@PBVeap_am_network_id_c@@W4eapol_key_authentication_type_e@@PBVeap_variable_data_c@@2@Z @ 49 NONAME ; enum eap_status_e ethernet_core_c::get_802_11_authentication_mode(class eap_am_network_id_c const *, enum eapol_key_authentication_type_e, class eap_variable_data_c const *, class eap_variable_data_c const *)
	?set_session_timeout@eapol_core_c@@UAE?AW4eap_status_e@@K@Z @ 50 NONAME ; enum eap_status_e eapol_core_c::set_session_timeout(unsigned long)
	??1eapol_rsna_key_data_payloads_c@@UAE@XZ @ 51 NONAME ; eapol_rsna_key_data_payloads_c::~eapol_rsna_key_data_payloads_c(void)
	?set_key_information_key_MIC@eapol_RSNA_key_header_c@@QAE?AW4eap_status_e@@_N@Z @ 52 NONAME ; enum eap_status_e eapol_RSNA_key_header_c::set_key_information_key_MIC(bool)
	?zero_key_STA_MAC_address@eapol_RSNA_key_header_c@@QAE?AW4eap_status_e@@PAVabs_eap_am_tools_c@@@Z @ 53 NONAME ; enum eap_status_e eapol_RSNA_key_header_c::zero_key_STA_MAC_address(class abs_eap_am_tools_c *)
	?set_key_information_error@eapol_RSNA_key_header_c@@QAE?AW4eap_status_e@@_N@Z @ 54 NONAME ; enum eap_status_e eapol_RSNA_key_header_c::set_key_information_error(bool)
	?read_configure@eapol_wlan_authentication_c@@UAE?AW4eap_status_e@@PBVeap_configuration_field_c@@PAVeap_variable_data_c@@@Z @ 55 NONAME ; enum eap_status_e eapol_wlan_authentication_c::read_configure(class eap_configuration_field_c const *, class eap_variable_data_c *)
	?process_4_way_handshake_message_0@eapol_key_state_c@@AAE?AW4eap_status_e@@PBVeap_am_network_id_c@@PAVeapol_RSNA_key_header_c@@K@Z @ 56 NONAME ; enum eap_status_e eapol_key_state_c::process_4_way_handshake_message_0(class eap_am_network_id_c const *, class eapol_RSNA_key_header_c *, unsigned long)
	?configure@eap_core_client_message_if_c@@UAE?AW4eap_status_e@@XZ @ 57 NONAME ; enum eap_status_e eap_core_client_message_if_c::configure(void)
	?set_eap_database_reference_values@ethernet_core_c@@UAE?AW4eap_status_e@@PBVeap_variable_data_c@@@Z @ 58 NONAME ; enum eap_status_e ethernet_core_c::set_eap_database_reference_values(class eap_variable_data_c const *)
	?get_key_data_offset@eapol_RSNA_key_header_c@@QBEPAEKK@Z @ 59 NONAME ; unsigned char * eapol_RSNA_key_header_c::get_key_data_offset(unsigned long, unsigned long) const
	?get_key_IV@eapol_RC4_key_header_c@@QAEPAEXZ @ 60 NONAME ; unsigned char * eapol_RC4_key_header_c::get_key_IV(void)
	?timer_delete_data@eapol_key_state_c@@UAE?AW4eap_status_e@@KPAX@Z @ 61 NONAME ; enum eap_status_e eapol_key_state_c::timer_delete_data(unsigned long, void *)
	?reset_wpa_configuration@eapol_am_wlan_authentication_symbian_c@@UAE?AW4eap_status_e@@XZ @ 62 NONAME ; enum eap_status_e eapol_am_wlan_authentication_symbian_c::reset_wpa_configuration(void)
	?get_eapol_protocol_version@eapol_RSNA_key_header_c@@QBE?AW4eapol_protocol_version_e@@XZ @ 63 NONAME ; enum eapol_protocol_version_e eapol_RSNA_key_header_c::get_eapol_protocol_version(void) const
	?get_eapol_key_handshake_type_string@eapol_key_state_string_c@@SAPBDW4eapol_key_handshake_type_e@@@Z @ 64 NONAME ; char const * eapol_key_state_string_c::get_eapol_key_handshake_type_string(enum eapol_key_handshake_type_e)
	?get_is_valid@eapol_wlan_authentication_c@@QAE_NXZ @ 65 NONAME ; bool eapol_wlan_authentication_c::get_is_valid(void)
	?zero_EAPOL_key_IV@eapol_RSNA_key_header_c@@QAE?AW4eap_status_e@@PAVabs_eap_am_tools_c@@@Z @ 66 NONAME ; enum eap_status_e eapol_RSNA_key_header_c::zero_EAPOL_key_IV(class abs_eap_am_tools_c *)
	?update_wlan_database_reference_values@eapol_message_wlan_authentication_c@@AAE?AW4eap_status_e@@PBV?$eap_array_c@Veap_tlv_header_c@@@@@Z @ 67 NONAME ; enum eap_status_e eapol_message_wlan_authentication_c::update_wlan_database_reference_values(class eap_array_c<class eap_tlv_header_c> const *)
	?shutdown@eapol_am_wlan_authentication_symbian_c@@UAE?AW4eap_status_e@@XZ @ 68 NONAME ; enum eap_status_e eapol_am_wlan_authentication_symbian_c::shutdown(void)
	?indicate_eapol_key_state_started_eap_authentication@eapol_core_c@@AAE?AW4eap_status_e@@PBVeap_am_network_id_c@@@Z @ 69 NONAME ; enum eap_status_e eapol_core_c::indicate_eapol_key_state_started_eap_authentication(class eap_am_network_id_c const *)
	?read_configure@ethernet_core_c@@UAE?AW4eap_status_e@@PBVeap_configuration_field_c@@PAVeap_variable_data_c@@@Z @ 70 NONAME ; enum eap_status_e ethernet_core_c::read_configure(class eap_configuration_field_c const *, class eap_variable_data_c *)
	?trace_eapol_key_message@eapol_key_state_c@@AAE?AW4eap_status_e@@PBDPAVeapol_RSNA_key_header_c@@@Z @ 71 NONAME ; enum eap_status_e eapol_key_state_c::trace_eapol_key_message(char const *, class eapol_RSNA_key_header_c *)
	?complete_get_802_11_authentication_mode@eapol_core_c@@UAE?AW4eap_status_e@@W42@PBVeap_am_network_id_c@@W4eapol_key_802_11_authentication_mode_e@@@Z @ 72 NONAME ; enum eap_status_e eapol_core_c::complete_get_802_11_authentication_mode(enum eap_status_e, class eap_am_network_id_c const *, enum eapol_key_802_11_authentication_mode_e)
	?zero_key_reserved@eapol_RSNA_key_header_c@@QAE?AW4eap_status_e@@PAVabs_eap_am_tools_c@@@Z @ 73 NONAME ; enum eap_status_e eapol_RSNA_key_header_c::zero_key_reserved(class abs_eap_am_tools_c *)
	?get_key_signature@eapol_RC4_key_header_c@@QBEPAEXZ @ 74 NONAME ; unsigned char * eapol_RC4_key_header_c::get_key_signature(void) const
	?set_key_information_encrypted_key_data@eapol_RSNA_key_header_c@@QAE?AW4eap_status_e@@_N@Z @ 75 NONAME ; enum eap_status_e eapol_RSNA_key_header_c::set_key_information_encrypted_key_data(bool)
	?complete_WPXM_reassociation@ethernet_core_c@@QAE?AW4eap_status_e@@W4eapol_wlan_authentication_state_e@@PBVeap_am_network_id_c@@W4eapol_key_authentication_type_e@@PBVeap_variable_data_c@@@Z @ 76 NONAME ; enum eap_status_e ethernet_core_c::complete_WPXM_reassociation(enum eapol_wlan_authentication_state_e, class eap_am_network_id_c const *, enum eapol_key_authentication_type_e, class eap_variable_data_c const *)
	?check_one_payload@eapol_rsna_key_data_payloads_c@@QAE_NW4eapol_rsna_key_data_payload_status_e@1@PBVeapol_rsna_variable_data_c@@@Z @ 77 NONAME ; bool eapol_rsna_key_data_payloads_c::check_one_payload(enum eapol_rsna_key_data_payloads_c::eapol_rsna_key_data_payload_status_e, class eapol_rsna_variable_data_c const *)
	?cancel_all_timers@eapol_wlan_authentication_c@@UAE?AW4eap_status_e@@XZ @ 78 NONAME ; enum eap_status_e eapol_wlan_authentication_c::cancel_all_timers(void)
	?create_key_mic@eapol_key_state_c@@AAE?AW4eap_status_e@@PAVeapol_RSNA_key_header_c@@PBVeap_variable_data_c@@@Z @ 79 NONAME ; enum eap_status_e eapol_key_state_c::create_key_mic(class eapol_RSNA_key_header_c *, class eap_variable_data_c const *)
	?start_WPXM_reassociation@ethernet_core_c@@QAE?AW4eap_status_e@@PBVeap_am_network_id_c@@W4eapol_key_authentication_type_e@@PAVeap_variable_data_c@@@Z @ 80 NONAME ; enum eap_status_e ethernet_core_c::start_WPXM_reassociation(class eap_am_network_id_c const *, enum eapol_key_authentication_type_e, class eap_variable_data_c *)
	?complete_remove_eap_session@eapol_core_c@@UAE?AW4eap_status_e@@_NPBVeap_am_network_id_c@@@Z @ 81 NONAME ; enum eap_status_e eapol_core_c::complete_remove_eap_session(bool, class eap_am_network_id_c const *)
	?set_key_descriptor_type@eapol_RC4_key_header_c@@QAE?AW4eap_status_e@@W4eapol_key_descriptor_type_e@@@Z @ 82 NONAME ; enum eap_status_e eapol_RC4_key_header_c::set_key_descriptor_type(enum eapol_key_descriptor_type_e)
	?process_group_key_handshake_message@eapol_key_state_c@@AAE?AW4eap_status_e@@PBVeap_am_network_id_c@@PAVeapol_RSNA_key_header_c@@K@Z @ 83 NONAME ; enum eap_status_e eapol_key_state_c::process_group_key_handshake_message(class eap_am_network_id_c const *, class eapol_RSNA_key_header_c *, unsigned long)
	?complete_check_pmksa_cache@ethernet_core_c@@UAE?AW4eap_status_e@@PBV?$eap_array_c@Veap_am_network_id_c@@@@@Z @ 84 NONAME ; enum eap_status_e ethernet_core_c::complete_check_pmksa_cache(class eap_array_c<class eap_am_network_id_c> const *)
	?load_module@ethernet_core_c@@UAE?AW4eap_status_e@@Veap_expanded_type_c@@0PAVabs_eap_base_type_c@@PAPAVeap_base_type_c@@_NPBVeap_am_network_id_c@@@Z @ 85 NONAME ; enum eap_status_e ethernet_core_c::load_module(class eap_expanded_type_c, class eap_expanded_type_c, class abs_eap_base_type_c *, class eap_base_type_c * *, bool, class eap_am_network_id_c const *)
	?process_4_way_handshake_message@eapol_key_state_c@@AAE?AW4eap_status_e@@PBVeap_am_network_id_c@@PAVeapol_RSNA_key_header_c@@K@Z @ 86 NONAME ; enum eap_status_e eapol_key_state_c::process_4_way_handshake_message(class eap_am_network_id_c const *, class eapol_RSNA_key_header_c *, unsigned long)
	?shutdown@eapol_key_state_c@@QAE?AW4eap_status_e@@XZ @ 87 NONAME ; enum eap_status_e eapol_key_state_c::shutdown(void)
	??0eap_core_client_message_if_c@@QAE@PAVabs_eap_am_tools_c@@PAVeap_am_message_if_c@@PAVabs_eap_session_core_c@@_N@Z @ 88 NONAME ; eap_core_client_message_if_c::eap_core_client_message_if_c(class abs_eap_am_tools_c *, class eap_am_message_if_c *, class abs_eap_session_core_c *, bool)
	?shutdown@eap_core_client_message_if_c@@UAE?AW4eap_status_e@@XZ @ 89 NONAME ; enum eap_status_e eap_core_client_message_if_c::shutdown(void)
	?get_key_information_error@eapol_RSNA_key_header_c@@QBE_NXZ @ 90 NONAME ; bool eapol_RSNA_key_header_c::get_key_information_error(void) const
	?complete_WPXM_reassociation@eapol_key_state_c@@QAE?AW4eap_status_e@@W4eapol_wlan_authentication_state_e@@PBVeap_am_network_id_c@@W4eapol_key_authentication_type_e@@PBVeap_variable_data_c@@@Z @ 91 NONAME ; enum eap_status_e eapol_key_state_c::complete_WPXM_reassociation(enum eapol_wlan_authentication_state_e, class eap_am_network_id_c const *, enum eapol_key_authentication_type_e, class eap_variable_data_c const *)
	?set_is_valid@eapol_key_state_c@@AAEXXZ @ 92 NONAME ; void eapol_key_state_c::set_is_valid(void)
	?get_header_offset@eapol_message_wlan_authentication_c@@UAEKPAK0@Z @ 93 NONAME ; unsigned long eapol_message_wlan_authentication_c::get_header_offset(unsigned long *, unsigned long *)
	?set_key_information_key_index@eapol_RSNA_key_header_c@@QAE?AW4eap_status_e@@E@Z @ 94 NONAME ; enum eap_status_e eapol_RSNA_key_header_c::set_key_information_key_index(unsigned char)
	?set_key_information_key_descriptor_version@eapol_RSNA_key_header_c@@QAE?AW4eap_status_e@@E@Z @ 95 NONAME ; enum eap_status_e eapol_RSNA_key_header_c::set_key_information_key_descriptor_version(unsigned char)
	?complete_disassociation@eapol_wlan_authentication_c@@UAE?AW4eap_status_e@@_NPBVeap_am_network_id_c@@@Z @ 96 NONAME ; enum eap_status_e eapol_wlan_authentication_c::complete_disassociation(bool, class eap_am_network_id_c const *)
	?shutdown@eapol_message_wlan_authentication_c@@QAE?AW4eap_status_e@@XZ @ 97 NONAME ; enum eap_status_e eapol_message_wlan_authentication_c::shutdown(void)
	?get_key_information_install@eapol_RSNA_key_header_c@@QBE_NXZ @ 98 NONAME ; bool eapol_RSNA_key_header_c::get_key_information_install(void) const
	?packet_send@eapol_message_wlan_authentication_c@@UAE?AW4eap_status_e@@PBVeap_am_network_id_c@@PAVeap_buf_chain_wr_c@@KKK@Z @ 99 NONAME ; enum eap_status_e eapol_message_wlan_authentication_c::packet_send(class eap_am_network_id_c const *, class eap_buf_chain_wr_c *, unsigned long, unsigned long, unsigned long)
	?get_is_valid@ethernet_core_c@@UAE_NXZ @ 100 NONAME ; bool ethernet_core_c::get_is_valid(void)
	?create_4_way_handshake_message_4@eapol_key_state_c@@AAE?AW4eap_status_e@@PAVeap_buf_chain_wr_c@@KPAK1_K_NW4eapol_protocol_version_e@@W4eapol_key_descriptor_type_e@@@Z @ 101 NONAME ; enum eap_status_e eapol_key_state_c::create_4_way_handshake_message_4(class eap_buf_chain_wr_c *, unsigned long, unsigned long *, unsigned long *, unsigned long long, bool, enum eapol_protocol_version_e, enum eapol_key_descriptor_type_e)
	?get_key_reply_counter@eapol_key_state_c@@AAE_KXZ @ 102 NONAME ; unsigned long long eapol_key_state_c::get_key_reply_counter(void)
	?check_is_aes_key_wrap_padding@eapol_key_state_c@@AAE?AW4eap_status_e@@W4eapol_RSNA_key_descriptor_type_e@@PAVeapol_rsna_key_data_header_c@@K@Z @ 103 NONAME ; enum eap_status_e eapol_key_state_c::check_is_aes_key_wrap_padding(enum eapol_RSNA_key_descriptor_type_e, class eapol_rsna_key_data_header_c *, unsigned long)
	?get_marked_removed@eapol_key_state_c@@QAE_NXZ @ 104 NONAME ; bool eapol_key_state_c::get_marked_removed(void)
	?cancel_timer@ethernet_core_c@@UAE?AW4eap_status_e@@PAVabs_eap_base_timer_c@@K@Z @ 105 NONAME ; enum eap_status_e ethernet_core_c::cancel_timer(class abs_eap_base_timer_c *, unsigned long)
	?set_timer@eapol_core_c@@UAE?AW4eap_status_e@@PAVabs_eap_base_timer_c@@KPAXK@Z @ 106 NONAME ; enum eap_status_e eapol_core_c::set_timer(class abs_eap_base_timer_c *, unsigned long, void *, unsigned long)
	?complete_reassociation@eapol_core_c@@QAE?AW4eap_status_e@@W4eapol_wlan_authentication_state_e@@PBVeap_am_network_id_c@@W4eapol_key_authentication_type_e@@PBVeap_variable_data_c@@3W4eapol_RSNA_cipher_e@eapol_RSNA_key_header_c@@4@Z @ 107 NONAME ; enum eap_status_e eapol_core_c::complete_reassociation(enum eapol_wlan_authentication_state_e, class eap_am_network_id_c const *, enum eapol_key_authentication_type_e, class eap_variable_data_c const *, class eap_variable_data_c const *, enum eapol_RSNA_key_header_c::eapol_RSNA_cipher_e, enum eapol_RSNA_key_header_c::eapol_RSNA_cipher_e)
	?get_key_reserved@eapol_RSNA_key_header_c@@QBEPAEXZ @ 108 NONAME ; unsigned char * eapol_RSNA_key_header_c::get_key_reserved(void) const
	?get_eapol_key_descriptor_type_string@eapol_key_state_string_c@@SAPBDW4eapol_key_descriptor_type_e@@@Z @ 109 NONAME ; char const * eapol_key_state_string_c::get_eapol_key_descriptor_type_string(enum eapol_key_descriptor_type_e)
	?start_authentication@eapol_message_wlan_authentication_c@@AAE?AW4eap_status_e@@PBV?$eap_array_c@Veap_tlv_header_c@@@@@Z @ 110 NONAME ; enum eap_status_e eapol_message_wlan_authentication_c::start_authentication(class eap_array_c<class eap_tlv_header_c> const *)
	?get_key_RSC@eapol_RSNA_key_header_c@@QBEPAEXZ @ 111 NONAME ; unsigned char * eapol_RSNA_key_header_c::get_key_RSC(void) const
	?complete_reassociation@eapol_key_state_c@@QAE?AW4eap_status_e@@W4eapol_wlan_authentication_state_e@@PBVeap_am_network_id_c@@W4eapol_key_authentication_type_e@@PBVeap_variable_data_c@@3W4eapol_RSNA_cipher_e@eapol_RSNA_key_header_c@@4@Z @ 112 NONAME ; enum eap_status_e eapol_key_state_c::complete_reassociation(enum eapol_wlan_authentication_state_e, class eap_am_network_id_c const *, enum eapol_key_authentication_type_e, class eap_variable_data_c const *, class eap_variable_data_c const *, enum eapol_RSNA_key_header_c::eapol_RSNA_cipher_e, enum eapol_RSNA_key_header_c::eapol_RSNA_cipher_e)
	?authentication_finished@eapol_am_wlan_authentication_symbian_c@@UAE?AW4eap_status_e@@_NVeap_expanded_type_c@@W4eapol_key_authentication_type_e@@@Z @ 113 NONAME ; enum eap_status_e eapol_am_wlan_authentication_symbian_c::authentication_finished(bool, class eap_expanded_type_c, enum eapol_key_authentication_type_e)
	?object_increase_reference_count@eapol_key_state_c@@QAEXXZ @ 114 NONAME ; void eapol_key_state_c::object_increase_reference_count(void)
	?tkip_mic_failure@ethernet_core_c@@QAE?AW4eap_status_e@@PBVeap_am_network_id_c@@_NW4eapol_tkip_mic_failure_type_e@eapol_RSNA_key_header_c@@@Z @ 115 NONAME ; enum eap_status_e ethernet_core_c::tkip_mic_failure(class eap_am_network_id_c const *, bool, enum eapol_RSNA_key_header_c::eapol_tkip_mic_failure_type_e)
	?get_eapol_key_authentication_type_string@eapol_key_state_string_c@@SAPBDW4eapol_key_authentication_type_e@@@Z @ 116 NONAME ; char const * eapol_key_state_string_c::get_eapol_key_authentication_type_string(enum eapol_key_authentication_type_e)
	?get_authenticator_RSNA_IE@eapol_key_state_c@@AAEPAVeap_variable_data_c@@XZ @ 117 NONAME ; class eap_variable_data_c * eapol_key_state_c::get_authenticator_RSNA_IE(void)
	??0eapol_core_c@@QAE@PAVabs_eap_am_tools_c@@PAVabs_eapol_core_c@@_N@Z @ 118 NONAME ; eapol_core_c::eapol_core_c(class abs_eap_am_tools_c *, class abs_eapol_core_c *, bool)
	?add_rogue_ap@eapol_wlan_authentication_c@@UAE?AW4eap_status_e@@AAV?$eap_array_c@Veap_rogue_ap_entry_c@@@@@Z @ 119 NONAME ; enum eap_status_e eapol_wlan_authentication_c::add_rogue_ap(class eap_array_c<class eap_rogue_ap_entry_c> &)
	?zero_key_MIC@eapol_RSNA_key_header_c@@QAE?AW4eap_status_e@@PAVabs_eap_am_tools_c@@@Z @ 120 NONAME ; enum eap_status_e eapol_RSNA_key_header_c::zero_key_MIC(class abs_eap_am_tools_c *)
	?start_reassociation@ethernet_core_c@@QAE?AW4eap_status_e@@PBVeap_am_network_id_c@@W4eapol_key_authentication_type_e@@PBVeap_variable_data_c@@@Z @ 121 NONAME ; enum eap_status_e ethernet_core_c::start_reassociation(class eap_am_network_id_c const *, enum eapol_key_authentication_type_e, class eap_variable_data_c const *)
	??0eapol_am_wlan_authentication_symbian_c@@QAE@PAVabs_eap_am_tools_c@@_N@Z @ 122 NONAME ; eapol_am_wlan_authentication_symbian_c::eapol_am_wlan_authentication_symbian_c(class abs_eap_am_tools_c *, bool)
	?get_authentication_counter@eapol_wlan_authentication_c@@QAEKXZ @ 123 NONAME ; unsigned long eapol_wlan_authentication_c::get_authentication_counter(void)
	??0ethernet_core_c@@QAE@PAVabs_eap_am_tools_c@@PAVabs_ethernet_core_c@@_N@Z @ 124 NONAME ; ethernet_core_c::ethernet_core_c(class abs_eap_am_tools_c *, class abs_ethernet_core_c *, bool)
	?timer_delete_data@eap_core_client_message_if_c@@UAE?AW4eap_status_e@@KPAX@Z @ 125 NONAME ; enum eap_status_e eap_core_client_message_if_c::timer_delete_data(unsigned long, void *)
	?get_key_length@eapol_RSNA_key_header_c@@QBEGXZ @ 126 NONAME ; unsigned short eapol_RSNA_key_header_c::get_key_length(void) const
	?set_key_information_key_type@eapol_RSNA_key_header_c@@QAE?AW4eap_status_e@@_N@Z @ 127 NONAME ; enum eap_status_e eapol_RSNA_key_header_c::set_key_information_key_type(bool)
	?get_is_WPXM@eapol_key_state_c@@AAE_NXZ @ 128 NONAME ; bool eapol_key_state_c::get_is_WPXM(void)
	?get_key_information_encrypted_key_data@eapol_RSNA_key_header_c@@QBE_NXZ @ 129 NONAME ; bool eapol_RSNA_key_header_c::get_key_information_encrypted_key_data(void) const
	?asynchronous_init_remove_eap_session@eapol_core_c@@QAE?AW4eap_status_e@@PBVeap_am_network_id_c@@@Z @ 130 NONAME ; enum eap_status_e eapol_core_c::asynchronous_init_remove_eap_session(class eap_am_network_id_c const *)
	?create_nonce@eapol_key_state_c@@AAE?AW4eap_status_e@@PAVeap_variable_data_c@@K@Z @ 131 NONAME ; enum eap_status_e eapol_key_state_c::create_nonce(class eap_variable_data_c *, unsigned long)
	?get_eapol_protocol_version@eapol_RC4_key_header_c@@QBE?AW4eapol_protocol_version_e@@XZ @ 132 NONAME ; enum eapol_protocol_version_e eapol_RC4_key_header_c::get_eapol_protocol_version(void) const
	?get_encryption_KEK@eapol_key_state_c@@AAEPAVeap_variable_data_c@@XZ @ 133 NONAME ; class eap_variable_data_c * eapol_key_state_c::get_encryption_KEK(void)
	?shutdown@eapol_core_c@@UAE?AW4eap_status_e@@XZ @ 134 NONAME ; enum eap_status_e eapol_core_c::shutdown(void)
	?process_RSNA_key_descriptor@eapol_key_state_c@@AAE?AW4eap_status_e@@PBVeap_am_network_id_c@@PAVeap_general_header_base_c@@K@Z @ 135 NONAME ; enum eap_status_e eapol_key_state_c::process_RSNA_key_descriptor(class eap_am_network_id_c const *, class eap_general_header_base_c *, unsigned long)
	?cancel_all_eap_sessions@eap_core_client_message_if_c@@UAE?AW4eap_status_e@@XZ @ 136 NONAME ; enum eap_status_e eap_core_client_message_if_c::cancel_all_eap_sessions(void)
	?get_key_MIC@eapol_RSNA_key_header_c@@QBEPAEXZ @ 137 NONAME ; unsigned char * eapol_RSNA_key_header_c::get_key_MIC(void) const
	?complete_reassociation@eapol_wlan_authentication_c@@QAE?AW4eap_status_e@@W4eapol_wlan_authentication_state_e@@PBVeap_am_network_id_c@@PBVeap_variable_data_c@@2W4eapol_RSNA_cipher_e@eapol_RSNA_key_header_c@@3@Z @ 138 NONAME ; enum eap_status_e eapol_wlan_authentication_c::complete_reassociation(enum eapol_wlan_authentication_state_e, class eap_am_network_id_c const *, class eap_variable_data_c const *, class eap_variable_data_c const *, enum eapol_RSNA_key_header_c::eapol_RSNA_cipher_e, enum eapol_RSNA_key_header_c::eapol_RSNA_cipher_e)
	?read_configure@eapol_am_wlan_authentication_symbian_c@@UAE?AW4eap_status_e@@PBVeap_configuration_field_c@@PAVeap_variable_data_c@@@Z @ 139 NONAME ; enum eap_status_e eapol_am_wlan_authentication_symbian_c::read_configure(class eap_configuration_field_c const *, class eap_variable_data_c *)
	?process_4_way_handshake_message_1@eapol_key_state_c@@AAE?AW4eap_status_e@@PBVeap_am_network_id_c@@PAVeapol_RSNA_key_header_c@@K@Z @ 140 NONAME ; enum eap_status_e eapol_key_state_c::process_4_way_handshake_message_1(class eap_am_network_id_c const *, class eapol_RSNA_key_header_c *, unsigned long)
	?get_key_length@eapol_RC4_key_header_c@@QBEGXZ @ 141 NONAME ; unsigned short eapol_RC4_key_header_c::get_key_length(void) const
	?initialize@eapol_key_state_c@@QAE?AW4eap_status_e@@PBVeap_am_network_id_c@@W4eapol_key_authentication_type_e@@PBVeap_variable_data_c@@2W4eapol_RSNA_cipher_e@eapol_RSNA_key_header_c@@32@Z @ 142 NONAME ; enum eap_status_e eapol_key_state_c::initialize(class eap_am_network_id_c const *, enum eapol_key_authentication_type_e, class eap_variable_data_c const *, class eap_variable_data_c const *, enum eapol_RSNA_key_header_c::eapol_RSNA_cipher_e, enum eapol_RSNA_key_header_c::eapol_RSNA_cipher_e, class eap_variable_data_c const *)
	?reset@eap_core_client_message_if_c@@UAE?AW4eap_status_e@@XZ @ 143 NONAME ; enum eap_status_e eap_core_client_message_if_c::reset(void)
	?get_SNonce@eapol_key_state_c@@AAEPAVeap_variable_data_c@@XZ @ 144 NONAME ; class eap_variable_data_c * eapol_key_state_c::get_SNonce(void)
	?set_marked_removed@eapol_key_state_c@@QAEXXZ @ 145 NONAME ; void eapol_key_state_c::set_marked_removed(void)
	?send_logoff@ethernet_core_c@@QAE?AW4eap_status_e@@PBVeap_am_network_id_c@@@Z @ 146 NONAME ; enum eap_status_e ethernet_core_c::send_logoff(class eap_am_network_id_c const *)
	?start_preauthentication@ethernet_core_c@@QAE?AW4eap_status_e@@PBVeap_am_network_id_c@@W4eapol_key_authentication_type_e@@@Z @ 147 NONAME ; enum eap_status_e ethernet_core_c::start_preauthentication(class eap_am_network_id_c const *, enum eapol_key_authentication_type_e)
	?shutdown@ethernet_core_c@@UAE?AW4eap_status_e@@XZ @ 148 NONAME ; enum eap_status_e ethernet_core_c::shutdown(void)
	?set_eapol_packet_type@eapol_RC4_key_header_c@@QAE?AW4eap_status_e@@W4eapol_packet_type_e@@@Z @ 149 NONAME ; enum eap_status_e eapol_RC4_key_header_c::set_eapol_packet_type(enum eapol_packet_type_e)
	?get_supplicant_MAC_address@eapol_key_state_c@@AAEPAVeap_variable_data_c@@XZ @ 150 NONAME ; class eap_variable_data_c * eapol_key_state_c::get_supplicant_MAC_address(void)
	?initialize_4_way_handshake@eapol_key_state_c@@AAE?AW4eap_status_e@@PBVeap_am_network_id_c@@W4eapol_protocol_version_e@@@Z @ 151 NONAME ; enum eap_status_e eapol_key_state_c::initialize_4_way_handshake(class eap_am_network_id_c const *, enum eapol_protocol_version_e)
	?send_RC4_eapol_key_messages@eapol_key_state_c@@AAE?AW4eap_status_e@@XZ @ 152 NONAME ; enum eap_status_e eapol_key_state_c::send_RC4_eapol_key_messages(void)
	?remove_pmksa_from_cache@eapol_core_c@@QAE?AW4eap_status_e@@PBVeap_am_network_id_c@@@Z @ 153 NONAME ; enum eap_status_e eapol_core_c::remove_pmksa_from_cache(class eap_am_network_id_c const *)
	?copy@eapol_key_state_c@@QAEPAV1@PBVeap_am_network_id_c@@@Z @ 154 NONAME ; class eapol_key_state_c * eapol_key_state_c::copy(class eap_am_network_id_c const *)
	?set_timer@eapol_am_wlan_authentication_symbian_c@@UAE?AW4eap_status_e@@PAVabs_eap_base_timer_c@@KPAXK@Z @ 155 NONAME ; enum eap_status_e eapol_am_wlan_authentication_symbian_c::set_timer(class abs_eap_base_timer_c *, unsigned long, void *, unsigned long)
	?association@eapol_am_wlan_authentication_symbian_c@@UAE?AW4eap_status_e@@PBVeap_am_network_id_c@@@Z @ 156 NONAME ; enum eap_status_e eapol_am_wlan_authentication_symbian_c::association(class eap_am_network_id_c const *)
	?cancel_handshake_timeout@eapol_key_state_c@@AAE?AW4eap_status_e@@XZ @ 157 NONAME ; enum eap_status_e eapol_key_state_c::cancel_handshake_timeout(void)
	??0eapol_rsna_variable_data_c@@QAE@PAVabs_eap_am_tools_c@@_N1@Z @ 158 NONAME ; eapol_rsna_variable_data_c::eapol_rsna_variable_data_c(class abs_eap_am_tools_c *, bool, bool)
	?set_buffer@eapol_rsna_variable_data_c@@QAE?AW4eap_status_e@@PBVeapol_rsna_key_data_header_c@@PAEK_N2@Z @ 159 NONAME ; enum eap_status_e eapol_rsna_variable_data_c::set_buffer(class eapol_rsna_key_data_header_c const *, unsigned char *, unsigned long, bool, bool)
	?get_key_information_key_ack@eapol_RSNA_key_header_c@@QBE_NXZ @ 160 NONAME ; bool eapol_RSNA_key_header_c::get_key_information_key_ack(void) const
	?check_header@eapol_RSNA_key_header_c@@UBE?AW4eap_status_e@@XZ @ 161 NONAME ; enum eap_status_e eapol_RSNA_key_header_c::check_header(void) const
	?set_key_reply_counter@eapol_key_state_c@@AAEX_K@Z @ 162 NONAME ; void eapol_key_state_c::set_key_reply_counter(unsigned long long)
	?reassociate@eapol_message_wlan_authentication_c@@UAE?AW4eap_status_e@@PBVeap_am_network_id_c@@W4eapol_key_authentication_type_e@@PBVeap_variable_data_c@@@Z @ 163 NONAME ; enum eap_status_e eapol_message_wlan_authentication_c::reassociate(class eap_am_network_id_c const *, enum eapol_key_authentication_type_e, class eap_variable_data_c const *)
	?cancel_timer@eapol_am_wlan_authentication_symbian_c@@UAE?AW4eap_status_e@@PAVabs_eap_base_timer_c@@K@Z @ 164 NONAME ; enum eap_status_e eapol_am_wlan_authentication_symbian_c::cancel_timer(class abs_eap_base_timer_c *, unsigned long)
	?cancel_timer@eapol_wlan_authentication_c@@UAE?AW4eap_status_e@@PAVabs_eap_base_timer_c@@K@Z @ 165 NONAME ; enum eap_status_e eapol_wlan_authentication_c::cancel_timer(class abs_eap_base_timer_c *, unsigned long)
	?complete_get_802_11_authentication_mode@ethernet_core_c@@UAE?AW4eap_status_e@@W42@PBVeap_am_network_id_c@@W4eapol_key_802_11_authentication_mode_e@@@Z @ 166 NONAME ; enum eap_status_e ethernet_core_c::complete_get_802_11_authentication_mode(enum eap_status_e, class eap_am_network_id_c const *, enum eapol_key_802_11_authentication_mode_e)
	?set_pairwise_PMK@eapol_key_state_c@@QAE?AW4eap_status_e@@PBVeap_variable_data_c@@PBVeap_am_network_id_c@@@Z @ 167 NONAME ; enum eap_status_e eapol_key_state_c::set_pairwise_PMK(class eap_variable_data_c const *, class eap_am_network_id_c const *)
	?set_key_index@eapol_RC4_key_header_c@@QAE?AW4eap_status_e@@E@Z @ 168 NONAME ; enum eap_status_e eapol_RC4_key_header_c::set_key_index(unsigned char)
	?get_original_header@eapol_rsna_variable_data_c@@QBEPBVeapol_rsna_key_data_header_c@@XZ @ 169 NONAME ; class eapol_rsna_key_data_header_c const * eapol_rsna_variable_data_c::get_original_header(void) const
	?set_is_valid@eapol_wlan_authentication_c@@QAEXXZ @ 170 NONAME ; void eapol_wlan_authentication_c::set_is_valid(void)
	?write_configure@eapol_core_c@@UAE?AW4eap_status_e@@PBVeap_configuration_field_c@@PAVeap_variable_data_c@@@Z @ 171 NONAME ; enum eap_status_e eapol_core_c::write_configure(class eap_configuration_field_c const *, class eap_variable_data_c *)
	?verify_field_is_zero@eapol_key_state_c@@AAE?AW4eap_status_e@@PBEK@Z @ 172 NONAME ; enum eap_status_e eapol_key_state_c::verify_field_is_zero(unsigned char const *, unsigned long)
	?get_header_length@eapol_RSNA_key_header_c@@SAGXZ @ 173 NONAME ; unsigned short eapol_RSNA_key_header_c::get_header_length(void)
	?get_is_associated@eapol_key_state_c@@QAE_NXZ @ 174 NONAME ; bool eapol_key_state_c::get_is_associated(void)
	?unload_module@eapol_core_c@@UAE?AW4eap_status_e@@Veap_expanded_type_c@@@Z @ 175 NONAME ; enum eap_status_e eapol_core_c::unload_module(class eap_expanded_type_c)
	?cancel_pmksa_caching_timeout@eapol_key_state_c@@AAE?AW4eap_status_e@@XZ @ 176 NONAME ; enum eap_status_e eapol_key_state_c::cancel_pmksa_caching_timeout(void)
	?state_notification@ethernet_core_c@@UAEXPBVabs_eap_state_notification_c@@@Z @ 177 NONAME ; void ethernet_core_c::state_notification(class abs_eap_state_notification_c const *)
	?init_pmksa_caching_timeout@eapol_key_state_c@@QAE?AW4eap_status_e@@XZ @ 178 NONAME ; enum eap_status_e eapol_key_state_c::init_pmksa_caching_timeout(void)
	?save_simple_config_session@eapol_core_c@@UAE?AW4eap_status_e@@W4simple_config_state_e@@PBV?$eap_array_c@Vsimple_config_credential_c@@@@PBVeap_variable_data_c@@W4simple_config_Device_Password_ID_e@@PBVsimple_config_payloads_c@@@Z @ 179 NONAME ; enum eap_status_e eapol_core_c::save_simple_config_session(enum simple_config_state_e, class eap_array_c<class simple_config_credential_c> const *, class eap_variable_data_c const *, enum simple_config_Device_Password_ID_e, class simple_config_payloads_c const *)
	?disassociation@eapol_am_wlan_authentication_symbian_c@@UAE?AW4eap_status_e@@PBVeap_am_network_id_c@@@Z @ 180 NONAME ; enum eap_status_e eapol_am_wlan_authentication_symbian_c::disassociation(class eap_am_network_id_c const *)
	?start_reassociation@eapol_wlan_authentication_c@@QAE?AW4eap_status_e@@PBVeap_am_network_id_c@@0W4eapol_key_authentication_type_e@@@Z @ 181 NONAME ; enum eap_status_e eapol_wlan_authentication_c::start_reassociation(class eap_am_network_id_c const *, class eap_am_network_id_c const *, enum eapol_key_authentication_type_e)
	?disassociate@eapol_message_wlan_authentication_c@@UAE?AW4eap_status_e@@PBVeap_am_network_id_c@@_N@Z @ 182 NONAME ; enum eap_status_e eapol_message_wlan_authentication_c::disassociate(class eap_am_network_id_c const *, bool)
	?packet_process@ethernet_core_c@@UAE?AW4eap_status_e@@PBVeap_am_network_id_c@@PAVeap_general_header_base_c@@K@Z @ 183 NONAME ; enum eap_status_e ethernet_core_c::packet_process(class eap_am_network_id_c const *, class eap_general_header_base_c *, unsigned long)
	?get_eapol_packet_type@eapol_RC4_key_header_c@@QBE?AW4eapol_packet_type_e@@XZ @ 184 NONAME ; enum eapol_packet_type_e eapol_RC4_key_header_c::get_eapol_packet_type(void) const
	?get_is_valid@eapol_key_state_c@@QAE_NXZ @ 185 NONAME ; bool eapol_key_state_c::get_is_valid(void)
	?packet_send@eapol_key_state_c@@AAE?AW4eap_status_e@@PBVeap_am_network_id_c@@PAVeap_buf_chain_wr_c@@KKK@Z @ 186 NONAME ; enum eap_status_e eapol_key_state_c::packet_send(class eap_am_network_id_c const *, class eap_buf_chain_wr_c *, unsigned long, unsigned long, unsigned long)
	?get_EAPOL_key_IV@eapol_RSNA_key_header_c@@QBEPAEXZ @ 187 NONAME ; unsigned char * eapol_RSNA_key_header_c::get_EAPOL_key_IV(void) const
	??0eapol_RSNA_key_header_c@@QAE@PAVabs_eap_am_tools_c@@_N1PAXK@Z @ 188 NONAME ; eapol_RSNA_key_header_c::eapol_RSNA_key_header_c(class abs_eap_am_tools_c *, bool, bool, void *, unsigned long)
	?write_configure@ethernet_core_c@@UAE?AW4eap_status_e@@PBVeap_configuration_field_c@@PAVeap_variable_data_c@@@Z @ 189 NONAME ; enum eap_status_e ethernet_core_c::write_configure(class eap_configuration_field_c const *, class eap_variable_data_c *)
	??0eapol_key_state_c@@QAE@PAVabs_eap_am_tools_c@@PAVabs_eapol_key_state_c@@PAVabs_eapol_core_c@@_NPBVeap_am_network_id_c@@W4eapol_key_authentication_type_e@@PBVeap_variable_data_c@@6W4eapol_RSNA_cipher_e@eapol_RSNA_key_header_c@@76@Z @ 190 NONAME ; eapol_key_state_c::eapol_key_state_c(class abs_eap_am_tools_c *, class abs_eapol_key_state_c *, class abs_eapol_core_c *, bool, class eap_am_network_id_c const *, enum eapol_key_authentication_type_e, class eap_variable_data_c const *, class eap_variable_data_c const *, enum eapol_RSNA_key_header_c::eapol_RSNA_cipher_e, enum eapol_RSNA_key_header_c::eapol_RSNA_cipher_e, class eap_variable_data_c const *)
	?get_key_information_secure@eapol_RSNA_key_header_c@@QBE_NXZ @ 191 NONAME ; bool eapol_RSNA_key_header_c::get_key_information_secure(void) const
	?start_preauthentication@eapol_wlan_authentication_c@@QAE?AW4eap_status_e@@PBVeap_am_network_id_c@@@Z @ 192 NONAME ; enum eap_status_e eapol_wlan_authentication_c::start_preauthentication(class eap_am_network_id_c const *)
	?get_key_information_request@eapol_RSNA_key_header_c@@QBE_NXZ @ 193 NONAME ; bool eapol_RSNA_key_header_c::get_key_information_request(void) const
	?complete_association@eapol_message_wlan_authentication_c@@AAE?AW4eap_status_e@@PBV?$eap_array_c@Veap_tlv_header_c@@@@@Z @ 194 NONAME ; enum eap_status_e eapol_message_wlan_authentication_c::complete_association(class eap_array_c<class eap_tlv_header_c> const *)
	?start_reassociation@eapol_core_c@@QAE?AW4eap_status_e@@PBVeap_am_network_id_c@@W4eapol_key_authentication_type_e@@PBVeap_variable_data_c@@@Z @ 195 NONAME ; enum eap_status_e eapol_core_c::start_reassociation(class eap_am_network_id_c const *, enum eapol_key_authentication_type_e, class eap_variable_data_c const *)
	?process_eapol_key_frame@eapol_key_state_c@@QAE?AW4eap_status_e@@PBVeap_am_network_id_c@@PAVeap_general_header_base_c@@K@Z @ 196 NONAME ; enum eap_status_e eapol_key_state_c::process_eapol_key_frame(class eap_am_network_id_c const *, class eap_general_header_base_c *, unsigned long)
	?tkip_mic_failure@eapol_wlan_authentication_c@@QAE?AW4eap_status_e@@PBVeap_am_network_id_c@@_NW4eapol_tkip_mic_failure_type_e@eapol_RSNA_key_header_c@@@Z @ 197 NONAME ; enum eap_status_e eapol_wlan_authentication_c::tkip_mic_failure(class eap_am_network_id_c const *, bool, enum eapol_RSNA_key_header_c::eapol_tkip_mic_failure_type_e)
	?get_header_offset@ethernet_core_c@@UAEKPAK0@Z @ 198 NONAME ; unsigned long ethernet_core_c::get_header_offset(unsigned long *, unsigned long *)
	?increment_authentication_counter@eapol_wlan_authentication_c@@QAEXXZ @ 199 NONAME ; void eapol_wlan_authentication_c::increment_authentication_counter(void)
	?get_unicast_cipher_suite_RSNA_IE@eapol_key_state_c@@AAEPAVeap_variable_data_c@@XZ @ 200 NONAME ; class eap_variable_data_c * eapol_key_state_c::get_unicast_cipher_suite_RSNA_IE(void)
	?write_configure@eapol_am_wlan_authentication_symbian_c@@UAE?AW4eap_status_e@@PBVeap_configuration_field_c@@PAVeap_variable_data_c@@@Z @ 201 NONAME ; enum eap_status_e eapol_am_wlan_authentication_symbian_c::write_configure(class eap_configuration_field_c const *, class eap_variable_data_c *)
	?remove_pmksa_from_cache@ethernet_core_c@@QAE?AW4eap_status_e@@PBVeap_am_network_id_c@@@Z @ 202 NONAME ; enum eap_status_e ethernet_core_c::remove_pmksa_from_cache(class eap_am_network_id_c const *)
	?create_state@eapol_core_c@@QAE?AW4eap_status_e@@PBVeap_am_network_id_c@@W4eapol_key_authentication_type_e@@@Z @ 203 NONAME ; enum eap_status_e eapol_core_c::create_state(class eap_am_network_id_c const *, enum eapol_key_authentication_type_e)
	?create_4_way_handshake_message_2@eapol_key_state_c@@AAE?AW4eap_status_e@@PAVeap_buf_chain_wr_c@@KPAK1_KW4eapol_protocol_version_e@@W4eapol_key_descriptor_type_e@@@Z @ 204 NONAME ; enum eap_status_e eapol_key_state_c::create_4_way_handshake_message_2(class eap_buf_chain_wr_c *, unsigned long, unsigned long *, unsigned long *, unsigned long long, enum eapol_protocol_version_e, enum eapol_key_descriptor_type_e)
	?get_is_valid@eapol_core_c@@UAE_NXZ @ 205 NONAME ; bool eapol_core_c::get_is_valid(void)
	?set_WPXM_parameters@eapol_key_state_c@@QAE?AW4eap_status_e@@PBVeap_am_network_id_c@@@Z @ 206 NONAME ; enum eap_status_e eapol_key_state_c::set_WPXM_parameters(class eap_am_network_id_c const *)
	?start_WPXM_reassociation@eapol_key_state_c@@QAE?AW4eap_status_e@@PBVeap_am_network_id_c@@W4eapol_key_authentication_type_e@@PAVeap_variable_data_c@@@Z @ 207 NONAME ; enum eap_status_e eapol_key_state_c::start_WPXM_reassociation(class eap_am_network_id_c const *, enum eapol_key_authentication_type_e, class eap_variable_data_c *)
	?convert@wlan_eap_if_send_status_conversion_c@@SA?AW4wlan_eap_if_send_status_e@@W4eap_status_e@@@Z @ 208 NONAME ; enum wlan_eap_if_send_status_e wlan_eap_if_send_status_conversion_c::convert(enum eap_status_e)
	?init_group_key_update_timeout@eapol_key_state_c@@AAE?AW4eap_status_e@@K@Z @ 209 NONAME ; enum eap_status_e eapol_key_state_c::init_group_key_update_timeout(unsigned long)
	??1eapol_RC4_key_header_c@@UAE@XZ @ 210 NONAME ; eapol_RC4_key_header_c::~eapol_RC4_key_header_c(void)
	?load_module@eapol_core_c@@UAE?AW4eap_status_e@@Veap_expanded_type_c@@0PAVabs_eap_base_type_c@@PAPAVeap_base_type_c@@_NPBVeap_am_network_id_c@@@Z @ 211 NONAME ; enum eap_status_e eapol_core_c::load_module(class eap_expanded_type_c, class eap_expanded_type_c, class abs_eap_base_type_c *, class eap_base_type_c * *, bool, class eap_am_network_id_c const *)
	?zero_key_signature@eapol_RC4_key_header_c@@QAEXPAVabs_eap_am_tools_c@@@Z @ 212 NONAME ; void eapol_RC4_key_header_c::zero_key_signature(class abs_eap_am_tools_c *)
	?eap_acknowledge@ethernet_core_c@@QAE?AW4eap_status_e@@PBVeap_am_network_id_c@@@Z @ 213 NONAME ; enum eap_status_e ethernet_core_c::eap_acknowledge(class eap_am_network_id_c const *)
	?save_simple_config_session@eapol_am_wlan_authentication_symbian_c@@UAE?AW4eap_status_e@@W4simple_config_state_e@@PBV?$eap_array_c@Vsimple_config_credential_c@@@@PBVeap_variable_data_c@@W4simple_config_Device_Password_ID_e@@PBVsimple_config_payloads_c@@@Z @ 214 NONAME ; enum eap_status_e eapol_am_wlan_authentication_symbian_c::save_simple_config_session(enum simple_config_state_e, class eap_array_c<class simple_config_credential_c> const *, class eap_variable_data_c const *, enum simple_config_Device_Password_ID_e, class simple_config_payloads_c const *)
	?get_eapol_key_state_string@eapol_key_state_string_c@@SAPBDW4eapol_key_state_e@@@Z @ 215 NONAME ; char const * eapol_key_state_string_c::get_eapol_key_state_string(enum eapol_key_state_e)
	?set_is_valid@eapol_core_c@@UAEXXZ @ 216 NONAME ; void eapol_core_c::set_is_valid(void)
	?get_header_length@eapol_RC4_key_header_c@@SAGXZ @ 217 NONAME ; unsigned short eapol_RC4_key_header_c::get_header_length(void)
	?create_state@ethernet_core_c@@QAE?AW4eap_status_e@@PBVeap_am_network_id_c@@W4eapol_key_authentication_type_e@@@Z @ 218 NONAME ; enum eap_status_e ethernet_core_c::create_state(class eap_am_network_id_c const *, enum eapol_key_authentication_type_e)
	?process_message_type_error@eapol_message_wlan_authentication_c@@AAE?AW4eap_status_e@@PBV?$eap_array_c@Veap_tlv_header_c@@@@@Z @ 219 NONAME ; enum eap_status_e eapol_message_wlan_authentication_c::process_message_type_error(class eap_array_c<class eap_tlv_header_c> const *)
	?create_PMKID@eapol_key_state_c@@AAE?AW4eap_status_e@@XZ @ 220 NONAME ; enum eap_status_e eapol_key_state_c::create_PMKID(void)
	?process_4_way_handshake_message_2@eapol_key_state_c@@AAE?AW4eap_status_e@@PBVeap_am_network_id_c@@PAVeapol_RSNA_key_header_c@@K@Z @ 221 NONAME ; enum eap_status_e eapol_key_state_c::process_4_way_handshake_message_2(class eap_am_network_id_c const *, class eapol_RSNA_key_header_c *, unsigned long)
	?get_wlan_configuration@eapol_am_wlan_authentication_symbian_c@@UAE?AW4eap_status_e@@PAVeap_variable_data_c@@@Z @ 222 NONAME ; enum eap_status_e eapol_am_wlan_authentication_symbian_c::get_wlan_configuration(class eap_variable_data_c *)
	?check_one_payload@eapol_rsna_key_data_payloads_c@@QAE_NW4eapol_rsna_key_data_payload_status_e@1@PBV?$eap_array_c@Veap_variable_data_c@@@@@Z @ 223 NONAME ; bool eapol_rsna_key_data_payloads_c::check_one_payload(enum eapol_rsna_key_data_payloads_c::eapol_rsna_key_data_payload_status_e, class eap_array_c<class eap_variable_data_c> const *)
	?start_authentication@ethernet_core_c@@QAE?AW4eap_status_e@@PBVeap_am_network_id_c@@_N@Z @ 224 NONAME ; enum eap_status_e ethernet_core_c::start_authentication(class eap_am_network_id_c const *, bool)
	??1eapol_key_state_string_c@@UAE@XZ @ 225 NONAME ; eapol_key_state_string_c::~eapol_key_state_string_c(void)
	?unload_module@eapol_wlan_authentication_c@@UAE?AW4eap_status_e@@Veap_expanded_type_c@@@Z @ 226 NONAME ; enum eap_status_e eapol_wlan_authentication_c::unload_module(class eap_expanded_type_c)
	?get_eap_type_list@eapol_core_c@@UAE?AW4eap_status_e@@PAV?$eap_array_c@Veap_expanded_type_c@@@@@Z @ 227 NONAME ; enum eap_status_e eapol_core_c::get_eap_type_list(class eap_array_c<class eap_expanded_type_c> *)
	?remove_eap_session@eap_core_client_message_if_c@@UAE?AW4eap_status_e@@_NPBVeap_am_network_id_c@@@Z @ 228 NONAME ; enum eap_status_e eap_core_client_message_if_c::remove_eap_session(bool, class eap_am_network_id_c const *)
	??0eapol_RC4_key_header_c@@QAE@PAVabs_eap_am_tools_c@@PAXK@Z @ 229 NONAME ; eapol_RC4_key_header_c::eapol_RC4_key_header_c(class abs_eap_am_tools_c *, void *, unsigned long)
	?unload_module@ethernet_core_c@@UAE?AW4eap_status_e@@Veap_expanded_type_c@@@Z @ 230 NONAME ; enum eap_status_e ethernet_core_c::unload_module(class eap_expanded_type_c)
	?set_key_length@eapol_RSNA_key_header_c@@QAE?AW4eap_status_e@@G@Z @ 231 NONAME ; enum eap_status_e eapol_RSNA_key_header_c::set_key_length(unsigned short)
	?reset_cached_pmksa@eapol_key_state_c@@QAE?AW4eap_status_e@@XZ @ 232 NONAME ; enum eap_status_e eapol_key_state_c::reset_cached_pmksa(void)
	?complete_reassociation@ethernet_core_c@@QAE?AW4eap_status_e@@W4eapol_wlan_authentication_state_e@@PBVeap_am_network_id_c@@W4eapol_key_authentication_type_e@@PBVeap_variable_data_c@@3W4eapol_RSNA_cipher_e@eapol_RSNA_key_header_c@@4@Z @ 233 NONAME ; enum eap_status_e ethernet_core_c::complete_reassociation(enum eapol_wlan_authentication_state_e, class eap_am_network_id_c const *, enum eapol_key_authentication_type_e, class eap_variable_data_c const *, class eap_variable_data_c const *, enum eapol_RSNA_key_header_c::eapol_RSNA_cipher_e, enum eapol_RSNA_key_header_c::eapol_RSNA_cipher_e)
	?set_eap_database_reference_values@eap_core_client_message_if_c@@UAE?AW4eap_status_e@@PBVeap_variable_data_c@@@Z @ 234 NONAME ; enum eap_status_e eap_core_client_message_if_c::set_eap_database_reference_values(class eap_variable_data_c const *)
	?initialize_preauthentication@eapol_key_state_c@@QAE?AW4eap_status_e@@PBVeap_am_network_id_c@@W4eapol_key_authentication_type_e@@@Z @ 235 NONAME ; enum eap_status_e eapol_key_state_c::initialize_preauthentication(class eap_am_network_id_c const *, enum eapol_key_authentication_type_e)
	?get_key_information_key_index@eapol_RSNA_key_header_c@@QBEEXZ @ 236 NONAME ; unsigned char eapol_RSNA_key_header_c::get_key_information_key_index(void) const
	?set_timer@ethernet_core_c@@UAE?AW4eap_status_e@@PAVabs_eap_base_timer_c@@KPAXK@Z @ 237 NONAME ; enum eap_status_e ethernet_core_c::set_timer(class abs_eap_base_timer_c *, unsigned long, void *, unsigned long)
	?set_s_nonce@eapol_key_state_c@@QAE?AW4eap_status_e@@PBVeap_variable_data_c@@@Z @ 238 NONAME ; enum eap_status_e eapol_key_state_c::set_s_nonce(class eap_variable_data_c const *)
	?state_notification@eapol_wlan_authentication_c@@UAEXPBVabs_eap_state_notification_c@@@Z @ 239 NONAME ; void eapol_wlan_authentication_c::state_notification(class abs_eap_state_notification_c const *)
	??0eapol_wlan_authentication_c@@QAE@PAVabs_eap_am_tools_c@@PAVabs_eapol_wlan_authentication_c@@PAVeapol_am_wlan_authentication_c@@_N@Z @ 240 NONAME ; eapol_wlan_authentication_c::eapol_wlan_authentication_c(class abs_eap_am_tools_c *, class abs_eapol_wlan_authentication_c *, class eapol_am_wlan_authentication_c *, bool)
	?set_key_descriptor_type@eapol_RSNA_key_header_c@@QAE?AW4eap_status_e@@W4eapol_key_descriptor_type_e@@@Z @ 241 NONAME ; enum eap_status_e eapol_RSNA_key_header_c::set_key_descriptor_type(enum eapol_key_descriptor_type_e)
	?complete_WPXM_reassociation@eapol_wlan_authentication_c@@QAE?AW4eap_status_e@@W4eapol_wlan_authentication_state_e@@PBVeap_am_network_id_c@@PBVeap_variable_data_c@@@Z @ 242 NONAME ; enum eap_status_e eapol_wlan_authentication_c::complete_WPXM_reassociation(enum eapol_wlan_authentication_state_e, class eap_am_network_id_c const *, class eap_variable_data_c const *)
	?set_eapol_packet_type@eapol_RSNA_key_header_c@@QAE?AW4eap_status_e@@W4eapol_packet_type_e@@@Z @ 243 NONAME ; enum eap_status_e eapol_RSNA_key_header_c::set_eapol_packet_type(enum eapol_packet_type_e)
	?read_configure@eapol_core_c@@UAE?AW4eap_status_e@@PBVeap_configuration_field_c@@PAVeap_variable_data_c@@@Z @ 244 NONAME ; enum eap_status_e eapol_core_c::read_configure(class eap_configuration_field_c const *, class eap_variable_data_c *)
	?get_key_data@eapol_RSNA_key_header_c@@QBEPAEK@Z @ 245 NONAME ; unsigned char * eapol_RSNA_key_header_c::get_key_data(unsigned long) const
	?create_group_key_handshake_message_2@eapol_key_state_c@@AAE?AW4eap_status_e@@PAVeap_buf_chain_wr_c@@KPAK1_KW4eapol_protocol_version_e@@W4eapol_key_descriptor_type_e@@@Z @ 246 NONAME ; enum eap_status_e eapol_key_state_c::create_group_key_handshake_message_2(class eap_buf_chain_wr_c *, unsigned long, unsigned long *, unsigned long *, unsigned long long, enum eapol_protocol_version_e, enum eapol_key_descriptor_type_e)
	?process_data@eapol_message_wlan_authentication_c@@QAE?AW4wlan_eap_if_send_status_e@@PBXK@Z @ 247 NONAME ; enum wlan_eap_if_send_status_e eapol_message_wlan_authentication_c::process_data(void const *, unsigned long)
	?complete_disassociation@ethernet_core_c@@UAE?AW4eap_status_e@@_NPBVeap_am_network_id_c@@@Z @ 248 NONAME ; enum eap_status_e ethernet_core_c::complete_disassociation(bool, class eap_am_network_id_c const *)
	?configure@eapol_message_wlan_authentication_c@@QAE?AW4eap_status_e@@KKK@Z @ 249 NONAME ; enum eap_status_e eapol_message_wlan_authentication_c::configure(unsigned long, unsigned long, unsigned long)
	?configure@eapol_am_wlan_authentication_symbian_c@@UAE?AW4eap_status_e@@XZ @ 250 NONAME ; enum eap_status_e eapol_am_wlan_authentication_symbian_c::configure(void)
	??1eapol_am_wlan_authentication_symbian_c@@UAE@XZ @ 251 NONAME ; eapol_am_wlan_authentication_symbian_c::~eapol_am_wlan_authentication_symbian_c(void)
	?start_WPXM_reassociation@eapol_wlan_authentication_c@@QAE?AW4eap_status_e@@PBVeap_am_network_id_c@@0PAVeap_variable_data_c@@PBV4@2@Z @ 252 NONAME ; enum eap_status_e eapol_wlan_authentication_c::start_WPXM_reassociation(class eap_am_network_id_c const *, class eap_am_network_id_c const *, class eap_variable_data_c *, class eap_variable_data_c const *, class eap_variable_data_c const *)
	?get_key_information_key_descriptor_version@eapol_RSNA_key_header_c@@QBE?AW4key_descriptor_version_e@1@XZ @ 253 NONAME ; enum eapol_RSNA_key_header_c::key_descriptor_version_e eapol_RSNA_key_header_c::get_key_information_key_descriptor_version(void) const
	?process_4_way_handshake_message_3_payloads_a@eapol_key_state_c@@AAE?AW4eap_status_e@@PBVeap_am_network_id_c@@PAVeapol_RSNA_key_header_c@@KPA_N@Z @ 254 NONAME ; enum eap_status_e eapol_key_state_c::process_4_way_handshake_message_3_payloads_a(class eap_am_network_id_c const *, class eapol_RSNA_key_header_c *, unsigned long, bool *)
	?set_bits_on@eapol_RSNA_key_header_c@@QAEGGGKK@Z @ 255 NONAME ; unsigned short eapol_RSNA_key_header_c::set_bits_on(unsigned short, unsigned short, unsigned long, unsigned long)
	?init_retransmission@eapol_key_state_c@@AAE?AW4eap_status_e@@PBVeap_am_network_id_c@@PAVeap_buf_chain_wr_c@@KKW4eap_code_value_e@@EVeap_expanded_type_c@@@Z @ 256 NONAME ; enum eap_status_e eapol_key_state_c::init_retransmission(class eap_am_network_id_c const *, class eap_buf_chain_wr_c *, unsigned long, unsigned long, enum eap_code_value_e, unsigned char, class eap_expanded_type_c)
	?start_preauthentication@eapol_message_wlan_authentication_c@@AAE?AW4eap_status_e@@PBV?$eap_array_c@Veap_tlv_header_c@@@@@Z @ 257 NONAME ; enum eap_status_e eapol_message_wlan_authentication_c::start_preauthentication(class eap_array_c<class eap_tlv_header_c> const *)
	?asynchronous_start_authentication@eapol_core_c@@QAE?AW4eap_status_e@@PBVeap_am_network_id_c@@_N@Z @ 258 NONAME ; enum eap_status_e eapol_core_c::asynchronous_start_authentication(class eap_am_network_id_c const *, bool)
	?get_authenticator_MAC_address@eapol_key_state_c@@AAEPAVeap_variable_data_c@@XZ @ 259 NONAME ; class eap_variable_data_c * eapol_key_state_c::get_authenticator_MAC_address(void)
	?packet_data_session_key@eapol_message_wlan_authentication_c@@UAE?AW4eap_status_e@@PBVeap_am_network_id_c@@PBVeapol_session_key_c@@@Z @ 260 NONAME ; enum eap_status_e eapol_message_wlan_authentication_c::packet_data_session_key(class eap_am_network_id_c const *, class eapol_session_key_c const *)
	?process_group_key_handshake_message_0@eapol_key_state_c@@AAE?AW4eap_status_e@@PBVeap_am_network_id_c@@PAVeapol_RSNA_key_header_c@@K@Z @ 261 NONAME ; enum eap_status_e eapol_key_state_c::process_group_key_handshake_message_0(class eap_am_network_id_c const *, class eapol_RSNA_key_header_c *, unsigned long)
	?create_group_key_handshake_message_1@eapol_key_state_c@@AAE?AW4eap_status_e@@PAVeap_buf_chain_wr_c@@KPAK1W4eapol_protocol_version_e@@W4eapol_key_descriptor_type_e@@@Z @ 262 NONAME ; enum eap_status_e eapol_key_state_c::create_group_key_handshake_message_1(class eap_buf_chain_wr_c *, unsigned long, unsigned long *, unsigned long *, enum eapol_protocol_version_e, enum eapol_key_descriptor_type_e)
	?create_eapol_key_handshake_message_0@eapol_key_state_c@@AAE?AW4eap_status_e@@_NPAVeap_buf_chain_wr_c@@KPAK2_KW4eapol_protocol_version_e@@@Z @ 263 NONAME ; enum eap_status_e eapol_key_state_c::create_eapol_key_handshake_message_0(bool, class eap_buf_chain_wr_c *, unsigned long, unsigned long *, unsigned long *, unsigned long long, enum eapol_protocol_version_e)
	?shutdown@eapol_wlan_authentication_c@@QAE?AW4eap_status_e@@XZ @ 264 NONAME ; enum eap_status_e eapol_wlan_authentication_c::shutdown(void)
	?get_is_valid@eap_core_client_message_if_c@@UAE_NXZ @ 265 NONAME ; bool eap_core_client_message_if_c::get_is_valid(void)
	?eap_acknowledge@eapol_core_c@@QAE?AW4eap_status_e@@PBVeap_am_network_id_c@@@Z @ 266 NONAME ; enum eap_status_e eapol_core_c::eap_acknowledge(class eap_am_network_id_c const *)
	?select_minimum@eapol_key_state_c@@AAE?AW4eap_status_e@@PBVeap_variable_data_c@@0PAPBV3@1@Z @ 267 NONAME ; enum eap_status_e eapol_key_state_c::select_minimum(class eap_variable_data_c const *, class eap_variable_data_c const *, class eap_variable_data_c const * *, class eap_variable_data_c const * *)
	?write_configure@eapol_wlan_authentication_c@@UAE?AW4eap_status_e@@PBVeap_configuration_field_c@@PAVeap_variable_data_c@@@Z @ 268 NONAME ; enum eap_status_e eapol_wlan_authentication_c::write_configure(class eap_configuration_field_c const *, class eap_variable_data_c *)
	?get_key_information_key_MIC@eapol_RSNA_key_header_c@@QBE_NXZ @ 269 NONAME ; bool eapol_RSNA_key_header_c::get_key_information_key_MIC(void) const
	?check_is_valid_eap_type@ethernet_core_c@@UAE?AW4eap_status_e@@Veap_expanded_type_c@@@Z @ 270 NONAME ; enum eap_status_e ethernet_core_c::check_is_valid_eap_type(class eap_expanded_type_c)
	??1eap_core_client_message_if_c@@UAE@XZ @ 271 NONAME ; eap_core_client_message_if_c::~eap_core_client_message_if_c(void)
	?get_key_information@eapol_RSNA_key_header_c@@QBEGXZ @ 272 NONAME ; unsigned short eapol_RSNA_key_header_c::get_key_information(void) const
	?check_is_valid_eap_type@eapol_wlan_authentication_c@@UAE?AW4eap_status_e@@Veap_expanded_type_c@@@Z @ 273 NONAME ; enum eap_status_e eapol_wlan_authentication_c::check_is_valid_eap_type(class eap_expanded_type_c)
	?start_WPXM_reassociation@eapol_message_wlan_authentication_c@@AAE?AW4eap_status_e@@PBV?$eap_array_c@Veap_tlv_header_c@@@@@Z @ 274 NONAME ; enum eap_status_e eapol_message_wlan_authentication_c::start_WPXM_reassociation(class eap_array_c<class eap_tlv_header_c> const *)
	?send_message@eapol_message_wlan_authentication_c@@AAE?AW4eap_status_e@@PAVeapol_handle_tlv_message_data_c@@@Z @ 275 NONAME ; enum eap_status_e eapol_message_wlan_authentication_c::send_message(class eapol_handle_tlv_message_data_c *)
	?create_eap_session@eap_core_client_message_if_c@@UAE?AW4eap_status_e@@PBVeap_am_network_id_c@@@Z @ 276 NONAME ; enum eap_status_e eap_core_client_message_if_c::create_eap_session(class eap_am_network_id_c const *)
	?get_802_11_authentication_mode@eap_core_client_message_if_c@@UAE?AW4eap_status_e@@PBVeap_am_network_id_c@@W4eapol_key_authentication_type_e@@PBVeap_variable_data_c@@2@Z @ 277 NONAME ; enum eap_status_e eap_core_client_message_if_c::get_802_11_authentication_mode(class eap_am_network_id_c const *, enum eapol_key_authentication_type_e, class eap_variable_data_c const *, class eap_variable_data_c const *)
	?process_4_way_handshake_message_3_payloads_b@eapol_key_state_c@@AAE?AW4eap_status_e@@PBVeap_am_network_id_c@@PAVeapol_RSNA_key_header_c@@K_N@Z @ 278 NONAME ; enum eap_status_e eapol_key_state_c::process_4_way_handshake_message_3_payloads_b(class eap_am_network_id_c const *, class eapol_RSNA_key_header_c *, unsigned long, bool)
	?disassociation@eapol_core_c@@QAE?AW4eap_status_e@@_NPBVeap_am_network_id_c@@@Z @ 279 NONAME ; enum eap_status_e eapol_core_c::disassociation(bool, class eap_am_network_id_c const *)
	?set_eapol_protocol_version@eapol_RC4_key_header_c@@QAE?AW4eap_status_e@@W4eapol_protocol_version_e@@@Z @ 280 NONAME ; enum eap_status_e eapol_RC4_key_header_c::set_eapol_protocol_version(enum eapol_protocol_version_e)
	??0eapol_key_state_string_c@@QAE@XZ @ 281 NONAME ; eapol_key_state_string_c::eapol_key_state_string_c(void)
	?packet_send@eapol_wlan_authentication_c@@UAE?AW4eap_status_e@@PBVeap_am_network_id_c@@PAVeap_buf_chain_wr_c@@KKK@Z @ 282 NONAME ; enum eap_status_e eapol_wlan_authentication_c::packet_send(class eap_am_network_id_c const *, class eap_buf_chain_wr_c *, unsigned long, unsigned long, unsigned long)
	?packet_process@eapol_wlan_authentication_c@@QAE?AW4eap_status_e@@PBVeap_am_network_id_c@@PAVeap_general_header_base_c@@K@Z @ 283 NONAME ; enum eap_status_e eapol_wlan_authentication_c::packet_process(class eap_am_network_id_c const *, class eap_general_header_base_c *, unsigned long)
	?add_rogue_ap@eapol_core_c@@UAE?AW4eap_status_e@@AAV?$eap_array_c@Veap_rogue_ap_entry_c@@@@@Z @ 284 NONAME ; enum eap_status_e eapol_core_c::add_rogue_ap(class eap_array_c<class eap_rogue_ap_entry_c> &)
	?packet_data_session_key@eapol_wlan_authentication_c@@UAE?AW4eap_status_e@@PBVeap_am_network_id_c@@PBVeapol_session_key_c@@@Z @ 285 NONAME ; enum eap_status_e eapol_wlan_authentication_c::packet_data_session_key(class eap_am_network_id_c const *, class eapol_session_key_c const *)
	?complete_association@eapol_wlan_authentication_c@@QAE?AW4eap_status_e@@W4eapol_wlan_authentication_state_e@@PBVeap_am_network_id_c@@PBVeap_variable_data_c@@2W4eapol_RSNA_cipher_e@eapol_RSNA_key_header_c@@3@Z @ 286 NONAME ; enum eap_status_e eapol_wlan_authentication_c::complete_association(enum eapol_wlan_authentication_state_e, class eap_am_network_id_c const *, class eap_variable_data_c const *, class eap_variable_data_c const *, enum eapol_RSNA_key_header_c::eapol_RSNA_cipher_e, enum eapol_RSNA_key_header_c::eapol_RSNA_cipher_e)
	?get_current_eap_index@eapol_wlan_authentication_c@@UAEKXZ @ 287 NONAME ; unsigned long eapol_wlan_authentication_c::get_current_eap_index(void)
	?packet_send@eapol_core_c@@UAE?AW4eap_status_e@@PBVeap_am_network_id_c@@PAVeap_buf_chain_wr_c@@KKK@Z @ 288 NONAME ; enum eap_status_e eapol_core_c::packet_send(class eap_am_network_id_c const *, class eap_buf_chain_wr_c *, unsigned long, unsigned long, unsigned long)
	??0eapol_key_state_c@@QAE@PAVabs_eap_am_tools_c@@PAVabs_eapol_key_state_c@@PAVabs_eapol_core_c@@_NPBVeap_am_network_id_c@@W4eapol_key_authentication_type_e@@@Z @ 289 NONAME ; eapol_key_state_c::eapol_key_state_c(class abs_eap_am_tools_c *, class abs_eapol_key_state_c *, class abs_eapol_core_c *, bool, class eap_am_network_id_c const *, enum eapol_key_authentication_type_e)
	?create_tkip_mic_failure_message@eapol_key_state_c@@AAE?AW4eap_status_e@@PAVeap_buf_chain_wr_c@@KPAK1W4eapol_tkip_mic_failure_type_e@eapol_RSNA_key_header_c@@W4eapol_protocol_version_e@@@Z @ 290 NONAME ; enum eap_status_e eapol_key_state_c::create_tkip_mic_failure_message(class eap_buf_chain_wr_c *, unsigned long, unsigned long *, unsigned long *, enum eapol_RSNA_key_header_c::eapol_tkip_mic_failure_type_e, enum eapol_protocol_version_e)
	?cancel_all_authentication_sessions@ethernet_core_c@@QAE?AW4eap_status_e@@XZ @ 291 NONAME ; enum eap_status_e ethernet_core_c::cancel_all_authentication_sessions(void)
	?decrypt_key_data@eapol_key_state_c@@AAE?AW4eap_status_e@@PAVeapol_RSNA_key_header_c@@@Z @ 292 NONAME ; enum eap_status_e eapol_key_state_c::decrypt_key_data(class eapol_RSNA_key_header_c *)
	?get_header_offset@eapol_wlan_authentication_c@@UAEKPAK0@Z @ 293 NONAME ; unsigned long eapol_wlan_authentication_c::get_header_offset(unsigned long *, unsigned long *)
	?state_notification@eapol_message_wlan_authentication_c@@UAEXPBVabs_eap_state_notification_c@@@Z @ 294 NONAME ; void eapol_message_wlan_authentication_c::state_notification(class abs_eap_state_notification_c const *)
	?check_is_valid_eap_type@eapol_core_c@@UAE?AW4eap_status_e@@Veap_expanded_type_c@@@Z @ 295 NONAME ; enum eap_status_e eapol_core_c::check_is_valid_eap_type(class eap_expanded_type_c)
	?association@ethernet_core_c@@QAE?AW4eap_status_e@@PBVeap_am_network_id_c@@W4eapol_key_authentication_type_e@@PBVeap_variable_data_c@@2W4eapol_RSNA_cipher_e@eapol_RSNA_key_header_c@@32@Z @ 296 NONAME ; enum eap_status_e ethernet_core_c::association(class eap_am_network_id_c const *, enum eapol_key_authentication_type_e, class eap_variable_data_c const *, class eap_variable_data_c const *, enum eapol_RSNA_key_header_c::eapol_RSNA_cipher_e, enum eapol_RSNA_key_header_c::eapol_RSNA_cipher_e, class eap_variable_data_c const *)
	?configure@eapol_wlan_authentication_c@@QAE?AW4eap_status_e@@XZ @ 297 NONAME ; enum eap_status_e eapol_wlan_authentication_c::configure(void)
	?get_received_PMKID@eapol_key_state_c@@AAEPAVeap_variable_data_c@@XZ @ 298 NONAME ; class eap_variable_data_c * eapol_key_state_c::get_received_PMKID(void)
	?set_key_replay_counter@eapol_RSNA_key_header_c@@QAE?AW4eap_status_e@@_K@Z @ 299 NONAME ; enum eap_status_e eapol_RSNA_key_header_c::set_key_replay_counter(unsigned long long)
	?allow_4_way_handshake@eapol_key_state_c@@QAE?AW4eap_status_e@@XZ @ 300 NONAME ; enum eap_status_e eapol_key_state_c::allow_4_way_handshake(void)
	?read_reassociation_parameters@ethernet_core_c@@QAE?AW4eap_status_e@@PBVeap_am_network_id_c@@0W4eapol_key_authentication_type_e@@PAVeap_variable_data_c@@PBV5@3@Z @ 301 NONAME ; enum eap_status_e ethernet_core_c::read_reassociation_parameters(class eap_am_network_id_c const *, class eap_am_network_id_c const *, enum eapol_key_authentication_type_e, class eap_variable_data_c *, class eap_variable_data_c const *, class eap_variable_data_c const *)
	?check_pmksa_cache@eapol_key_state_c@@QAE?AW4eap_status_e@@W4eapol_key_authentication_type_e@@W4eapol_RSNA_cipher_e@eapol_RSNA_key_header_c@@1@Z @ 302 NONAME ; enum eap_status_e eapol_key_state_c::check_pmksa_cache(enum eapol_key_authentication_type_e, enum eapol_RSNA_key_header_c::eapol_RSNA_cipher_e, enum eapol_RSNA_key_header_c::eapol_RSNA_cipher_e)
	?process_4_way_handshake_message_3@eapol_key_state_c@@AAE?AW4eap_status_e@@PBVeap_am_network_id_c@@PAVeapol_RSNA_key_header_c@@K@Z @ 303 NONAME ; enum eap_status_e eapol_key_state_c::process_4_way_handshake_message_3(class eap_am_network_id_c const *, class eapol_RSNA_key_header_c *, unsigned long)
	?timer_delete_data@eapol_message_wlan_authentication_c@@UAE?AW4eap_status_e@@KPAX@Z @ 304 NONAME ; enum eap_status_e eapol_message_wlan_authentication_c::timer_delete_data(unsigned long, void *)
	?resend_packet@eapol_key_state_c@@AAE?AW4eap_status_e@@PBVeap_am_network_id_c@@PAVeap_buf_chain_wr_c@@KKK@Z @ 305 NONAME ; enum eap_status_e eapol_key_state_c::resend_packet(class eap_am_network_id_c const *, class eap_buf_chain_wr_c *, unsigned long, unsigned long, unsigned long)
	?get_eapol_packet_body_length@eapol_RC4_key_header_c@@QBEGXZ @ 306 NONAME ; unsigned short eapol_RC4_key_header_c::get_eapol_packet_body_length(void) const
	?read_reassociation_parameters@eapol_key_state_c@@QAE?AW4eap_status_e@@PBVeap_am_network_id_c@@W4eapol_key_authentication_type_e@@PAVeap_variable_data_c@@PBV5@3@Z @ 307 NONAME ; enum eap_status_e eapol_key_state_c::read_reassociation_parameters(class eap_am_network_id_c const *, enum eapol_key_authentication_type_e, class eap_variable_data_c *, class eap_variable_data_c const *, class eap_variable_data_c const *)
	??1eapol_key_state_c@@UAE@XZ @ 308 NONAME ; eapol_key_state_c::~eapol_key_state_c(void)
	?set_key_data_length@eapol_RSNA_key_header_c@@QAE?AW4eap_status_e@@G@Z @ 309 NONAME ; enum eap_status_e eapol_RSNA_key_header_c::set_key_data_length(unsigned short)
	?increase_key_reply_counter@eapol_key_state_c@@AAEXXZ @ 310 NONAME ; void eapol_key_state_c::increase_key_reply_counter(void)
	?verify_key_mic@eapol_key_state_c@@AAE?AW4eap_status_e@@PAVeapol_RSNA_key_header_c@@PBVeap_variable_data_c@@@Z @ 311 NONAME ; enum eap_status_e eapol_key_state_c::verify_key_mic(class eapol_RSNA_key_header_c *, class eap_variable_data_c const *)
	??0eapol_handle_tlv_message_data_c@@QAE@PAVabs_eap_am_tools_c@@@Z @ 312 NONAME ; eapol_handle_tlv_message_data_c::eapol_handle_tlv_message_data_c(class abs_eap_am_tools_c *)
	?get_is_client@eapol_wlan_authentication_c@@UAE_NXZ @ 313 NONAME ; bool eapol_wlan_authentication_c::get_is_client(void)
	?save_simple_config_session@ethernet_core_c@@UAE?AW4eap_status_e@@W4simple_config_state_e@@PBV?$eap_array_c@Vsimple_config_credential_c@@@@PBVeap_variable_data_c@@W4simple_config_Device_Password_ID_e@@PBVsimple_config_payloads_c@@@Z @ 314 NONAME ; enum eap_status_e ethernet_core_c::save_simple_config_session(enum simple_config_state_e, class eap_array_c<class simple_config_credential_c> const *, class eap_variable_data_c const *, enum simple_config_Device_Password_ID_e, class simple_config_payloads_c const *)
	?restart_authentication@eapol_core_c@@UAE?AW4eap_status_e@@PBVeap_am_network_id_c@@_N11@Z @ 315 NONAME ; enum eap_status_e eapol_core_c::restart_authentication(class eap_am_network_id_c const *, bool, bool, bool)
	?started_eap_authentication@eapol_key_state_c@@QAE?AW4eap_status_e@@XZ @ 316 NONAME ; enum eap_status_e eapol_key_state_c::started_eap_authentication(void)
	?set_key_length@eapol_RC4_key_header_c@@QAE?AW4eap_status_e@@G@Z @ 317 NONAME ; enum eap_status_e eapol_RC4_key_header_c::set_key_length(unsigned short)
	?disassociation@ethernet_core_c@@QAE?AW4eap_status_e@@_NPBVeap_am_network_id_c@@@Z @ 318 NONAME ; enum eap_status_e ethernet_core_c::disassociation(bool, class eap_am_network_id_c const *)
	?get_key_index@eapol_RC4_key_header_c@@QBEEXZ @ 319 NONAME ; unsigned char eapol_RC4_key_header_c::get_key_index(void) const
	?get_key_flag@eapol_RC4_key_header_c@@QBE?AW4eapol_RC4_key_flags_e@@XZ @ 320 NONAME ; enum eapol_RC4_key_flags_e eapol_RC4_key_header_c::get_key_flag(void) const
	?eap_acknowledge@eapol_wlan_authentication_c@@QAE?AW4eap_status_e@@PBVeap_am_network_id_c@@@Z @ 321 NONAME ; enum eap_status_e eapol_wlan_authentication_c::eap_acknowledge(class eap_am_network_id_c const *)
	?save_simple_config_session@eapol_wlan_authentication_c@@UAE?AW4eap_status_e@@W4simple_config_state_e@@PBV?$eap_array_c@Vsimple_config_credential_c@@@@PBVeap_variable_data_c@@W4simple_config_Device_Password_ID_e@@PBVsimple_config_payloads_c@@@Z @ 322 NONAME ; enum eap_status_e eapol_wlan_authentication_c::save_simple_config_session(enum simple_config_state_e, class eap_array_c<class simple_config_credential_c> const *, class eap_variable_data_c const *, enum simple_config_Device_Password_ID_e, class simple_config_payloads_c const *)
	?get_key_replay_counter@eapol_RSNA_key_header_c@@QBE_KXZ @ 323 NONAME ; unsigned long long eapol_RSNA_key_header_c::get_key_replay_counter(void) const
	?check_pmksa_cache@eapol_core_c@@QAE?AW4eap_status_e@@PAV?$eap_array_c@Veap_am_network_id_c@@@@W4eapol_key_authentication_type_e@@W4eapol_RSNA_cipher_e@eapol_RSNA_key_header_c@@2@Z @ 324 NONAME ; enum eap_status_e eapol_core_c::check_pmksa_cache(class eap_array_c<class eap_am_network_id_c> *, enum eapol_key_authentication_type_e, enum eapol_RSNA_key_header_c::eapol_RSNA_cipher_e, enum eapol_RSNA_key_header_c::eapol_RSNA_cipher_e)
	?derive_PTK@eapol_key_state_c@@AAE?AW4eap_status_e@@XZ @ 325 NONAME ; enum eap_status_e eapol_key_state_c::derive_PTK(void)
	?timer_expired@eapol_wlan_authentication_c@@UAE?AW4eap_status_e@@KPAX@Z @ 326 NONAME ; enum eap_status_e eapol_wlan_authentication_c::timer_expired(unsigned long, void *)
	?get_key_STA_MAC_address@eapol_RSNA_key_header_c@@QBEPAEXZ @ 327 NONAME ; unsigned char * eapol_RSNA_key_header_c::get_key_STA_MAC_address(void) const
	?packet_process@eapol_message_wlan_authentication_c@@AAE?AW4eap_status_e@@PBV?$eap_array_c@Veap_tlv_header_c@@@@@Z @ 328 NONAME ; enum eap_status_e eapol_message_wlan_authentication_c::packet_process(class eap_array_c<class eap_tlv_header_c> const *)
	?get_eap_type_list@ethernet_core_c@@UAE?AW4eap_status_e@@PAV?$eap_array_c@Veap_expanded_type_c@@@@@Z @ 329 NONAME ; enum eap_status_e ethernet_core_c::get_eap_type_list(class eap_array_c<class eap_expanded_type_c> *)
	?zero_EAPOL_header_and_Key_descriptor@eapol_RSNA_key_header_c@@QAE?AW4eap_status_e@@PAVabs_eap_am_tools_c@@@Z @ 330 NONAME ; enum eap_status_e eapol_RSNA_key_header_c::zero_EAPOL_header_and_Key_descriptor(class abs_eap_am_tools_c *)
	?get_replay_counter@eapol_RC4_key_header_c@@QAEPAEXZ @ 331 NONAME ; unsigned char * eapol_RC4_key_header_c::get_replay_counter(void)
	?set_eap_database_reference_values@eapol_core_c@@UAE?AW4eap_status_e@@PBVeap_variable_data_c@@@Z @ 332 NONAME ; enum eap_status_e eapol_core_c::set_eap_database_reference_values(class eap_variable_data_c const *)
	?new_eapol_wlan_authentication@eapol_wlan_authentication_c@@SAPAV1@PAVabs_eap_am_tools_c@@PAVabs_eapol_wlan_authentication_c@@_N@Z @ 333 NONAME ; class eapol_wlan_authentication_c * eapol_wlan_authentication_c::new_eapol_wlan_authentication(class abs_eap_am_tools_c *, class abs_eapol_wlan_authentication_c *, bool)
	?process_message@eap_core_client_message_if_c@@AAE?AW4eap_status_e@@PAVeap_process_tlv_message_data_c@@@Z @ 334 NONAME ; enum eap_status_e eap_core_client_message_if_c::process_message(class eap_process_tlv_message_data_c *)
	?check_pmksa_cache@ethernet_core_c@@QAE?AW4eap_status_e@@PAV?$eap_array_c@Veap_am_network_id_c@@@@W4eapol_key_authentication_type_e@@W4eapol_RSNA_cipher_e@eapol_RSNA_key_header_c@@2@Z @ 335 NONAME ; enum eap_status_e ethernet_core_c::check_pmksa_cache(class eap_array_c<class eap_am_network_id_c> *, enum eapol_key_authentication_type_e, enum eapol_RSNA_key_header_c::eapol_RSNA_cipher_e, enum eapol_RSNA_key_header_c::eapol_RSNA_cipher_e)
	?start_authentication@eapol_wlan_authentication_c@@QAE?AW4eap_status_e@@PBVeap_variable_data_c@@W4eapol_key_authentication_type_e@@0_NPBVeap_am_network_id_c@@@Z @ 336 NONAME ; enum eap_status_e eapol_wlan_authentication_c::start_authentication(class eap_variable_data_c const *, enum eapol_key_authentication_type_e, class eap_variable_data_c const *, bool, class eap_am_network_id_c const *)
	?get_is_encryption_on@eapol_key_state_c@@QAE_NXZ @ 337 NONAME ; bool eapol_key_state_c::get_is_encryption_on(void)
	?zero_key_RSC@eapol_RSNA_key_header_c@@QAE?AW4eap_status_e@@PAVabs_eap_am_tools_c@@@Z @ 338 NONAME ; enum eap_status_e eapol_RSNA_key_header_c::zero_key_RSC(class abs_eap_am_tools_c *)
	?parse_key_data@eapol_key_state_c@@AAE?AW4eap_status_e@@W4eapol_key_descriptor_type_e@@PBVeapol_rsna_key_data_header_c@@PAKPAVeapol_rsna_key_data_payloads_c@@W4eapol_key_state_e@@W4key_descriptor_version_e@eapol_RSNA_key_header_c@@@Z @ 339 NONAME ; enum eap_status_e eapol_key_state_c::parse_key_data(enum eapol_key_descriptor_type_e, class eapol_rsna_key_data_header_c const *, unsigned long *, class eapol_rsna_key_data_payloads_c *, enum eapol_key_state_e, enum eapol_RSNA_key_header_c::key_descriptor_version_e)
	?eap_acknowledge@eap_core_client_message_if_c@@UAE?AW4eap_status_e@@PBVeap_am_network_id_c@@@Z @ 340 NONAME ; enum eap_status_e eap_core_client_message_if_c::eap_acknowledge(class eap_am_network_id_c const *)
	?set_am_partner@eapol_am_wlan_authentication_symbian_c@@UAE?AW4eap_status_e@@PAVabs_eapol_am_wlan_authentication_c@@PAVabs_eap_configuration_if_c@@@Z @ 341 NONAME ; enum eap_status_e eapol_am_wlan_authentication_symbian_c::set_am_partner(class abs_eapol_am_wlan_authentication_c *, class abs_eap_configuration_if_c *)
	?process_4_way_handshake_message_2_payloads@eapol_key_state_c@@AAE?AW4eap_status_e@@PBVeap_am_network_id_c@@PAVeapol_RSNA_key_header_c@@K@Z @ 342 NONAME ; enum eap_status_e eapol_key_state_c::process_4_way_handshake_message_2_payloads(class eap_am_network_id_c const *, class eapol_RSNA_key_header_c *, unsigned long)
	?get_eapol_packet_type@eapol_RSNA_key_header_c@@QBE?AW4eapol_packet_type_e@@XZ @ 343 NONAME ; enum eapol_packet_type_e eapol_RSNA_key_header_c::get_eapol_packet_type(void) const
	?get_is_valid@eapol_handle_tlv_message_data_c@@QAE_NXZ @ 344 NONAME ; bool eapol_handle_tlv_message_data_c::get_is_valid(void)
	?send_data@eap_core_client_message_if_c@@UAE?AW4eap_status_e@@PBXK@Z @ 345 NONAME ; enum eap_status_e eap_core_client_message_if_c::send_data(void const *, unsigned long)
	?get_eapol_packet_length@eapol_RSNA_key_header_c@@QBEGXZ @ 346 NONAME ; unsigned short eapol_RSNA_key_header_c::get_eapol_packet_length(void) const
	?increase_client_send_key_reply_counter@eapol_key_state_c@@AAEXXZ @ 347 NONAME ; void eapol_key_state_c::increase_client_send_key_reply_counter(void)
	?unset_marked_removed@eapol_key_state_c@@QAEXXZ @ 348 NONAME ; void eapol_key_state_c::unset_marked_removed(void)
	?get_ANonce@eapol_key_state_c@@AAEPAVeap_variable_data_c@@XZ @ 349 NONAME ; class eap_variable_data_c * eapol_key_state_c::get_ANonce(void)
	?send_eap_identity_request@eap_core_client_message_if_c@@UAE?AW4eap_status_e@@PBVeap_am_network_id_c@@@Z @ 350 NONAME ; enum eap_status_e eap_core_client_message_if_c::send_eap_identity_request(class eap_am_network_id_c const *)
	?set_eap_database_reference_values@eapol_am_wlan_authentication_symbian_c@@UAE?AW4eap_status_e@@PBVeap_variable_data_c@@@Z @ 351 NONAME ; enum eap_status_e eapol_am_wlan_authentication_symbian_c::set_eap_database_reference_values(class eap_variable_data_c const *)
	?add_RSN_GTK_payload@eapol_key_state_c@@AAE?AW4eap_status_e@@PBVeapol_RSNA_key_header_c@@PAVeap_variable_data_c@@PAK@Z @ 352 NONAME ; enum eap_status_e eapol_key_state_c::add_RSN_GTK_payload(class eapol_RSNA_key_header_c const *, class eap_variable_data_c *, unsigned long *)
	?set_wlan_parameters@eapol_am_wlan_authentication_symbian_c@@UAE?AW4eap_status_e@@PBVeap_variable_data_c@@_N0W4eapol_key_authentication_type_e@@@Z @ 353 NONAME ; enum eap_status_e eapol_am_wlan_authentication_symbian_c::set_wlan_parameters(class eap_variable_data_c const *, bool, class eap_variable_data_c const *, enum eapol_key_authentication_type_e)
	?packet_data_session_key@eapol_core_c@@UAE?AW4eap_status_e@@PBVeap_am_network_id_c@@PBVeapol_session_key_c@@@Z @ 354 NONAME ; enum eap_status_e eapol_core_c::packet_data_session_key(class eap_am_network_id_c const *, class eapol_session_key_c const *)
	?set_timer@eapol_wlan_authentication_c@@UAE?AW4eap_status_e@@PAVabs_eap_base_timer_c@@KPAXK@Z @ 355 NONAME ; enum eap_status_e eapol_wlan_authentication_c::set_timer(class abs_eap_base_timer_c *, unsigned long, void *, unsigned long)
	?get_key_length@eapol_key_state_c@@AAE?AW4eap_status_e@@W4eapol_RSNA_cipher_e@eapol_RSNA_key_header_c@@PAG@Z @ 356 NONAME ; enum eap_status_e eapol_key_state_c::get_key_length(enum eapol_RSNA_key_header_c::eapol_RSNA_cipher_e, unsigned short *)
	?reset@eapol_key_state_c@@QAE?AW4eap_status_e@@XZ @ 357 NONAME ; enum eap_status_e eapol_key_state_c::reset(void)
	?get_is_valid@eapol_am_wlan_authentication_symbian_c@@UAE_NXZ @ 358 NONAME ; bool eapol_am_wlan_authentication_symbian_c::get_is_valid(void)
	?set_client_send_key_reply_counter@eapol_key_state_c@@AAEX_K@Z @ 359 NONAME ; void eapol_key_state_c::set_client_send_key_reply_counter(unsigned long long)
	?eap_acknowledge@eapol_message_wlan_authentication_c@@AAE?AW4eap_status_e@@PBV?$eap_array_c@Veap_tlv_header_c@@@@@Z @ 360 NONAME ; enum eap_status_e eapol_message_wlan_authentication_c::eap_acknowledge(class eap_array_c<class eap_tlv_header_c> const *)
	?complete_disassociation@eapol_message_wlan_authentication_c@@UAE?AW4eap_status_e@@PBVeap_am_network_id_c@@@Z @ 361 NONAME ; enum eap_status_e eapol_message_wlan_authentication_c::complete_disassociation(class eap_am_network_id_c const *)
	?get_is_valid@eapol_message_wlan_authentication_c@@QAE_NXZ @ 362 NONAME ; bool eapol_message_wlan_authentication_c::get_is_valid(void)
	?process_group_key_handshake_message_1@eapol_key_state_c@@AAE?AW4eap_status_e@@PBVeap_am_network_id_c@@PAVeapol_RSNA_key_header_c@@K@Z @ 363 NONAME ; enum eap_status_e eapol_key_state_c::process_group_key_handshake_message_1(class eap_am_network_id_c const *, class eapol_RSNA_key_header_c *, unsigned long)
	?send_error_message@eapol_message_wlan_authentication_c@@AAE?AW4eap_status_e@@W42@W4eap_tlv_message_type_function_e@@@Z @ 364 NONAME ; enum eap_status_e eapol_message_wlan_authentication_c::send_error_message(enum eap_status_e, enum eap_tlv_message_type_function_e)
	?get_is_WPA@eapol_key_state_c@@AAE_NXZ @ 365 NONAME ; bool eapol_key_state_c::get_is_WPA(void)
	?packet_data_crypto_keys@eapol_core_c@@UAE?AW4eap_status_e@@PBVeap_am_network_id_c@@PBVeap_master_session_key_c@@@Z @ 366 NONAME ; enum eap_status_e eapol_core_c::packet_data_crypto_keys(class eap_am_network_id_c const *, class eap_master_session_key_c const *)
	?remove_eapol_key_state@eapol_core_c@@AAE?AW4eap_status_e@@PBVeap_am_network_id_c@@_N@Z @ 367 NONAME ; enum eap_status_e eapol_core_c::remove_eapol_key_state(class eap_am_network_id_c const *, bool)
	?timer_delete_data@eapol_wlan_authentication_c@@UAE?AW4eap_status_e@@KPAX@Z @ 368 NONAME ; enum eap_status_e eapol_wlan_authentication_c::timer_delete_data(unsigned long, void *)
	??1eapol_RSNA_key_header_c@@UAE@XZ @ 369 NONAME ; eapol_RSNA_key_header_c::~eapol_RSNA_key_header_c(void)
	?add_rogue_ap@ethernet_core_c@@UAE?AW4eap_status_e@@AAV?$eap_array_c@Veap_rogue_ap_entry_c@@@@@Z @ 370 NONAME ; enum eap_status_e ethernet_core_c::add_rogue_ap(class eap_array_c<class eap_rogue_ap_entry_c> &)
	?get_802_11_authentication_mode@eapol_core_c@@QAE?AW4eap_status_e@@PBVeap_am_network_id_c@@W4eapol_key_authentication_type_e@@PBVeap_variable_data_c@@2@Z @ 371 NONAME ; enum eap_status_e eapol_core_c::get_802_11_authentication_mode(class eap_am_network_id_c const *, enum eapol_key_authentication_type_e, class eap_variable_data_c const *, class eap_variable_data_c const *)
	?process_message@eapol_message_wlan_authentication_c@@AAE?AW4eap_status_e@@PAVeapol_handle_tlv_message_data_c@@@Z @ 372 NONAME ; enum eap_status_e eapol_message_wlan_authentication_c::process_message(class eapol_handle_tlv_message_data_c *)
	?get_and_increment_global_key_counter@eapol_core_c@@UAE?AW4eap_status_e@@PAVeap_variable_data_c@@@Z @ 373 NONAME ; enum eap_status_e eapol_core_c::get_and_increment_global_key_counter(class eap_variable_data_c *)
	?set_eapol_protocol_version@eapol_RSNA_key_header_c@@QAE?AW4eap_status_e@@W4eapol_protocol_version_e@@@Z @ 374 NONAME ; enum eap_status_e eapol_RSNA_key_header_c::set_eapol_protocol_version(enum eapol_protocol_version_e)
	?load_type@ethernet_core_c@@QAEPAVeap_base_type_c@@Veap_expanded_type_c@@@Z @ 375 NONAME ; class eap_base_type_c * ethernet_core_c::load_type(class eap_expanded_type_c)
	?start_preauthentication@eapol_core_c@@QAE?AW4eap_status_e@@PBVeap_am_network_id_c@@W4eapol_key_authentication_type_e@@@Z @ 376 NONAME ; enum eap_status_e eapol_core_c::start_preauthentication(class eap_am_network_id_c const *, enum eapol_key_authentication_type_e)
	?set_key_flag@eapol_RC4_key_header_c@@QAE?AW4eap_status_e@@W4eapol_RC4_key_flags_e@@@Z @ 377 NONAME ; enum eap_status_e eapol_RC4_key_header_c::set_key_flag(enum eapol_RC4_key_flags_e)
	?timer_delete_data@eapol_core_c@@UAE?AW4eap_status_e@@KPAX@Z @ 378 NONAME ; enum eap_status_e eapol_core_c::timer_delete_data(unsigned long, void *)
	?shutdown_operation@eapol_core_c@@SA?AW4eap_status_e@@PAVeapol_key_state_c@@PAVabs_eap_am_tools_c@@@Z @ 379 NONAME ; enum eap_status_e eapol_core_c::shutdown_operation(class eapol_key_state_c *, class abs_eap_am_tools_c *)
	?get_key_NONCE@eapol_RSNA_key_header_c@@QBEPAEXZ @ 380 NONAME ; unsigned char * eapol_RSNA_key_header_c::get_key_NONCE(void) const
	?complete_reassociation@eapol_message_wlan_authentication_c@@AAE?AW4eap_status_e@@PBV?$eap_array_c@Veap_tlv_header_c@@@@@Z @ 381 NONAME ; enum eap_status_e eapol_message_wlan_authentication_c::complete_reassociation(class eap_array_c<class eap_tlv_header_c> const *)
	?process_4_way_handshake_message_4@eapol_key_state_c@@AAE?AW4eap_status_e@@PBVeap_am_network_id_c@@PAVeapol_RSNA_key_header_c@@K@Z @ 382 NONAME ; enum eap_status_e eapol_key_state_c::process_4_way_handshake_message_4(class eap_am_network_id_c const *, class eapol_RSNA_key_header_c *, unsigned long)
	?add_rogue_ap@eapol_message_wlan_authentication_c@@UAE?AW4eap_status_e@@AAV?$eap_array_c@Veap_rogue_ap_entry_c@@@@@Z @ 383 NONAME ; enum eap_status_e eapol_message_wlan_authentication_c::add_rogue_ap(class eap_array_c<class eap_rogue_ap_entry_c> &)
	?init_handshake_timeout@eapol_key_state_c@@AAE?AW4eap_status_e@@K@Z @ 384 NONAME ; enum eap_status_e eapol_key_state_c::init_handshake_timeout(unsigned long)
	?check_pmksa_cache@eapol_message_wlan_authentication_c@@AAE?AW4eap_status_e@@PBV?$eap_array_c@Veap_tlv_header_c@@@@@Z @ 385 NONAME ; enum eap_status_e eapol_message_wlan_authentication_c::check_pmksa_cache(class eap_array_c<class eap_tlv_header_c> const *)
	?check_pmksa_cache@eapol_wlan_authentication_c@@QAE?AW4eap_status_e@@PAV?$eap_array_c@Veap_am_network_id_c@@@@W4eapol_key_authentication_type_e@@W4eapol_RSNA_cipher_e@eapol_RSNA_key_header_c@@2@Z @ 386 NONAME ; enum eap_status_e eapol_wlan_authentication_c::check_pmksa_cache(class eap_array_c<class eap_am_network_id_c> *, enum eapol_key_authentication_type_e, enum eapol_RSNA_key_header_c::eapol_RSNA_cipher_e, enum eapol_RSNA_key_header_c::eapol_RSNA_cipher_e)
	?parse_generic_key_data_payload@eapol_key_state_c@@AAE?AW4eap_status_e@@W4eapol_key_descriptor_type_e@@W4eapol_RSNA_key_descriptor_type_e@@PAVeapol_rsna_key_data_header_c@@PAKPAVeapol_rsna_key_data_payloads_c@@W4eapol_key_state_e@@@Z @ 387 NONAME ; enum eap_status_e eapol_key_state_c::parse_generic_key_data_payload(enum eapol_key_descriptor_type_e, enum eapol_RSNA_key_descriptor_type_e, class eapol_rsna_key_data_header_c *, unsigned long *, class eapol_rsna_key_data_payloads_c *, enum eapol_key_state_e)
	?set_eapol_key_state@eapol_key_state_c@@AAEXW4eapol_key_state_e@@@Z @ 388 NONAME ; void eapol_key_state_c::set_eapol_key_state(enum eapol_key_state_e)
	?asynchronous_init_remove_eapol_key_state@eapol_key_state_c@@AAE?AW4eap_status_e@@XZ @ 389 NONAME ; enum eap_status_e eapol_key_state_c::asynchronous_init_remove_eapol_key_state(void)
	?get_key_data_length@eapol_RSNA_key_header_c@@QBEGXZ @ 390 NONAME ; unsigned short eapol_RSNA_key_header_c::get_key_data_length(void) const
	?packet_process@eapol_core_c@@UAE?AW4eap_status_e@@PBVeap_am_network_id_c@@PAVeap_general_header_base_c@@K@Z @ 391 NONAME ; enum eap_status_e eapol_core_c::packet_process(class eap_am_network_id_c const *, class eap_general_header_base_c *, unsigned long)
	?set_key_information@eapol_RSNA_key_header_c@@AAE?AW4eap_status_e@@G@Z @ 392 NONAME ; enum eap_status_e eapol_RSNA_key_header_c::set_key_information(unsigned short)
	?save_simple_config_session@eapol_message_wlan_authentication_c@@UAE?AW4eap_status_e@@W4simple_config_state_e@@PBV?$eap_array_c@Vsimple_config_credential_c@@@@PBVeap_variable_data_c@@W4simple_config_Device_Password_ID_e@@PBVsimple_config_payloads_c@@@Z @ 393 NONAME ; enum eap_status_e eapol_message_wlan_authentication_c::save_simple_config_session(enum simple_config_state_e, class eap_array_c<class simple_config_credential_c> const *, class eap_variable_data_c const *, enum simple_config_Device_Password_ID_e, class simple_config_payloads_c const *)
	?cancel_group_key_update_timeout@eapol_key_state_c@@AAE?AW4eap_status_e@@XZ @ 394 NONAME ; enum eap_status_e eapol_key_state_c::cancel_group_key_update_timeout(void)
	?packet_process@eap_core_client_message_if_c@@UAE?AW4eap_status_e@@PBVeap_am_network_id_c@@PAVeap_general_header_base_c@@K@Z @ 395 NONAME ; enum eap_status_e eap_core_client_message_if_c::packet_process(class eap_am_network_id_c const *, class eap_general_header_base_c *, unsigned long)
	?state_notification@eapol_am_wlan_authentication_symbian_c@@UAEXPBVabs_eap_state_notification_c@@@Z @ 396 NONAME ; void eapol_am_wlan_authentication_symbian_c::state_notification(class abs_eap_state_notification_c const *)
	?set_eapol_packet_body_length@eapol_RSNA_key_header_c@@QAE?AW4eap_status_e@@K@Z @ 397 NONAME ; enum eap_status_e eapol_RSNA_key_header_c::set_eapol_packet_body_length(unsigned long)
	?create_4_way_handshake_message_3@eapol_key_state_c@@AAE?AW4eap_status_e@@PAVeap_buf_chain_wr_c@@KPAK1W4eapol_protocol_version_e@@W4eapol_key_descriptor_type_e@@@Z @ 398 NONAME ; enum eap_status_e eapol_key_state_c::create_4_way_handshake_message_3(class eap_buf_chain_wr_c *, unsigned long, unsigned long *, unsigned long *, enum eapol_protocol_version_e, enum eapol_key_descriptor_type_e)
	?start_group_key_handshake@eapol_key_state_c@@AAE?AW4eap_status_e@@PBVeap_am_network_id_c@@W4eapol_protocol_version_e@@W4eapol_key_descriptor_type_e@@@Z @ 399 NONAME ; enum eap_status_e eapol_key_state_c::start_group_key_handshake(class eap_am_network_id_c const *, enum eapol_protocol_version_e, enum eapol_key_descriptor_type_e)
	?process_RC4_key_descriptor@eapol_key_state_c@@AAE?AW4eap_status_e@@PBVeap_am_network_id_c@@PAVeap_general_header_base_c@@K@Z @ 400 NONAME ; enum eap_status_e eapol_key_state_c::process_RC4_key_descriptor(class eap_am_network_id_c const *, class eap_general_header_base_c *, unsigned long)
	?update_header_offset@eapol_message_wlan_authentication_c@@AAE?AW4eap_status_e@@PBV?$eap_array_c@Veap_tlv_header_c@@@@@Z @ 401 NONAME ; enum eap_status_e eapol_message_wlan_authentication_c::update_header_offset(class eap_array_c<class eap_tlv_header_c> const *)
	?tkip_mic_failure@eapol_message_wlan_authentication_c@@AAE?AW4eap_status_e@@PBV?$eap_array_c@Veap_tlv_header_c@@@@@Z @ 402 NONAME ; enum eap_status_e eapol_message_wlan_authentication_c::tkip_mic_failure(class eap_array_c<class eap_tlv_header_c> const *)
	?get_supplicant_RSNA_IE@eapol_key_state_c@@AAEPAVeap_variable_data_c@@XZ @ 403 NONAME ; class eap_variable_data_c * eapol_key_state_c::get_supplicant_RSNA_IE(void)
	?get_key_descriptor_type@eapol_RC4_key_header_c@@QBE?AW4eapol_key_descriptor_type_e@@XZ @ 404 NONAME ; enum eapol_key_descriptor_type_e eapol_RC4_key_header_c::get_key_descriptor_type(void) const
	?tkip_mic_failure@eapol_core_c@@QAE?AW4eap_status_e@@PBVeap_am_network_id_c@@_NW4eapol_tkip_mic_failure_type_e@eapol_RSNA_key_header_c@@@Z @ 405 NONAME ; enum eap_status_e eapol_core_c::tkip_mic_failure(class eap_am_network_id_c const *, bool, enum eapol_RSNA_key_header_c::eapol_tkip_mic_failure_type_e)
	?timer_expired@eapol_message_wlan_authentication_c@@UAE?AW4eap_status_e@@KPAX@Z @ 406 NONAME ; enum eap_status_e eapol_message_wlan_authentication_c::timer_expired(unsigned long, void *)
	?timer_expired@eapol_core_c@@UAE?AW4eap_status_e@@KPAX@Z @ 407 NONAME ; enum eap_status_e eapol_core_c::timer_expired(unsigned long, void *)
	?get_is_RSNA@eapol_key_state_c@@AAE_NXZ @ 408 NONAME ; bool eapol_key_state_c::get_is_RSNA(void)
	?cancel_all_timers@eapol_am_wlan_authentication_symbian_c@@UAE?AW4eap_status_e@@XZ @ 409 NONAME ; enum eap_status_e eapol_am_wlan_authentication_symbian_c::cancel_all_timers(void)
	?get_confirmation_KCK@eapol_key_state_c@@AAEPAVeap_variable_data_c@@XZ @ 410 NONAME ; class eap_variable_data_c * eapol_key_state_c::get_confirmation_KCK(void)
	?get_key_descriptor_type@eapol_RSNA_key_header_c@@QBE?AW4eapol_key_descriptor_type_e@@XZ @ 411 NONAME ; enum eapol_key_descriptor_type_e eapol_RSNA_key_header_c::get_key_descriptor_type(void) const
	?set_key_information_request@eapol_RSNA_key_header_c@@QAE?AW4eap_status_e@@_N@Z @ 412 NONAME ; enum eap_status_e eapol_RSNA_key_header_c::set_key_information_request(bool)
	?get_key@eapol_RC4_key_header_c@@QBEPAEXZ @ 413 NONAME ; unsigned char * eapol_RC4_key_header_c::get_key(void) const
	??1eapol_am_wlan_authentication_c@@UAE@XZ @ 414 NONAME ; eapol_am_wlan_authentication_c::~eapol_am_wlan_authentication_c(void)
	?tkip_mic_failure@eapol_key_state_c@@QAE?AW4eap_status_e@@_NW4eapol_tkip_mic_failure_type_e@eapol_RSNA_key_header_c@@@Z @ 415 NONAME ; enum eap_status_e eapol_key_state_c::tkip_mic_failure(bool, enum eapol_RSNA_key_header_c::eapol_tkip_mic_failure_type_e)
	?set_is_valid@ethernet_core_c@@UAEXXZ @ 416 NONAME ; void ethernet_core_c::set_is_valid(void)
	?read_reassociation_parameters@eapol_core_c@@QAE?AW4eap_status_e@@PBVeap_am_network_id_c@@0W4eapol_key_authentication_type_e@@PAVeap_variable_data_c@@PBV5@3@Z @ 417 NONAME ; enum eap_status_e eapol_core_c::read_reassociation_parameters(class eap_am_network_id_c const *, class eap_am_network_id_c const *, enum eapol_key_authentication_type_e, class eap_variable_data_c *, class eap_variable_data_c const *, class eap_variable_data_c const *)
	?disassociation@eapol_message_wlan_authentication_c@@AAE?AW4eap_status_e@@PBV?$eap_array_c@Veap_tlv_header_c@@@@@Z @ 418 NONAME ; enum eap_status_e eapol_message_wlan_authentication_c::disassociation(class eap_array_c<class eap_tlv_header_c> const *)
	?complete_get_802_11_authentication_mode@eapol_wlan_authentication_c@@UAE?AW4eap_status_e@@W42@PBVeap_am_network_id_c@@W4eapol_key_802_11_authentication_mode_e@@@Z @ 419 NONAME ; enum eap_status_e eapol_wlan_authentication_c::complete_get_802_11_authentication_mode(enum eap_status_e, class eap_am_network_id_c const *, enum eapol_key_802_11_authentication_mode_e)
	?cancel_authentication_session@eapol_core_c@@SA?AW4eap_status_e@@PAVeapol_key_state_c@@PAVabs_eap_am_tools_c@@@Z @ 420 NONAME ; enum eap_status_e eapol_core_c::cancel_authentication_session(class eapol_key_state_c *, class abs_eap_am_tools_c *)
	?cancel_timer@eapol_core_c@@UAE?AW4eap_status_e@@PAVabs_eap_base_timer_c@@K@Z @ 421 NONAME ; enum eap_status_e eapol_core_c::cancel_timer(class abs_eap_base_timer_c *, unsigned long)
	?state_notification@eapol_core_c@@UAEXPBVabs_eap_state_notification_c@@@Z @ 422 NONAME ; void eapol_core_c::state_notification(class abs_eap_state_notification_c const *)
	?set_eapol_packet_body_length@eapol_RC4_key_header_c@@QAE?AW4eap_status_e@@G@Z @ 423 NONAME ; enum eap_status_e eapol_RC4_key_header_c::set_eapol_packet_body_length(unsigned short)
	?set_key_information_secure@eapol_RSNA_key_header_c@@QAE?AW4eap_status_e@@_N@Z @ 424 NONAME ; enum eap_status_e eapol_RSNA_key_header_c::set_key_information_secure(bool)
	??1eapol_rsna_variable_data_c@@UAE@XZ @ 425 NONAME ; eapol_rsna_variable_data_c::~eapol_rsna_variable_data_c(void)
	?get_eapol_key_state@eapol_key_state_c@@ABE?AW4eapol_key_state_e@@XZ @ 426 NONAME ; enum eapol_key_state_e eapol_key_state_c::get_eapol_key_state(void) const
	??0eapol_rsna_key_data_payloads_c@@QAE@PAVabs_eap_am_tools_c@@_N1@Z @ 427 NONAME ; eapol_rsna_key_data_payloads_c::eapol_rsna_key_data_payloads_c(class abs_eap_am_tools_c *, bool, bool)
	?set_key_information_key_ack@eapol_RSNA_key_header_c@@QAE?AW4eap_status_e@@_N@Z @ 428 NONAME ; enum eap_status_e eapol_RSNA_key_header_c::set_key_information_key_ack(bool)
	?configure@eapol_key_state_c@@QAE?AW4eap_status_e@@XZ @ 429 NONAME ; enum eap_status_e eapol_key_state_c::configure(void)
	??1eapol_handle_tlv_message_data_c@@UAE@XZ @ 430 NONAME ; eapol_handle_tlv_message_data_c::~eapol_handle_tlv_message_data_c(void)
	?save_parameters@eapol_key_state_c@@AAE?AW4eap_status_e@@W4eapol_key_authentication_type_e@@PBVeap_variable_data_c@@1W4eapol_RSNA_cipher_e@eapol_RSNA_key_header_c@@2@Z @ 431 NONAME ; enum eap_status_e eapol_key_state_c::save_parameters(enum eapol_key_authentication_type_e, class eap_variable_data_c const *, class eap_variable_data_c const *, enum eapol_RSNA_key_header_c::eapol_RSNA_cipher_e, enum eapol_RSNA_key_header_c::eapol_RSNA_cipher_e)
	?timer_expired@eapol_key_state_c@@UAE?AW4eap_status_e@@KPAX@Z @ 432 NONAME ; enum eap_status_e eapol_key_state_c::timer_expired(unsigned long, void *)
	?process_group_key_handshake_message_2@eapol_key_state_c@@AAE?AW4eap_status_e@@PBVeap_am_network_id_c@@PAVeapol_RSNA_key_header_c@@K@Z @ 433 NONAME ; enum eap_status_e eapol_key_state_c::process_group_key_handshake_message_2(class eap_am_network_id_c const *, class eapol_RSNA_key_header_c *, unsigned long)

