EXPORTS
	dss_pseudo_random @ 1 NONAME
	?md5_copy_context@eap_am_crypto_symbian_c@@UAE?AW4eap_status_e@@PAVeap_variable_data_c@@PBV3@@Z @ 2 NONAME ; enum eap_status_e eap_am_crypto_symbian_c::md5_copy_context(class eap_variable_data_c *, class eap_variable_data_c const *)
	?get_type@eap_tlv_header_c@@QBEKXZ @ 3 NONAME ; unsigned long eap_tlv_header_c::get_type(void) const
	?set_use_timer_queue@eap_am_tools_c@@QAEXXZ @ 4 NONAME ; void eap_am_tools_c::set_use_timer_queue(void)
	?copy@eap_buf_chain_wr_c@@QAEPAV1@XZ @ 5 NONAME ; class eap_buf_chain_wr_c * eap_buf_chain_wr_c::copy(void)
	?reset_data_buffer@eap_buf_chain_base_c@@AAEXXZ @ 6 NONAME ; void eap_buf_chain_base_c::reset_data_buffer(void)
	?get_network_id@eap_am_network_id_c@@QBEPBV1@XZ @ 7 NONAME ; class eap_am_network_id_c const * eap_am_network_id_c::get_network_id(void) const
	?GetLabel@EapCertificateEntry@@QBEPBVTDes16@@XZ @ 8 NONAME ; class TDes16 const * EapCertificateEntry::GetLabel(void) const
	?memory_store_get_data@eap_am_tools_c@@UAE?AW4eap_status_e@@PBVeap_variable_data_c@@PAVeap_tlv_message_data_c@@@Z @ 9 NONAME ; enum eap_status_e eap_am_tools_c::memory_store_get_data(class eap_variable_data_c const *, class eap_tlv_message_data_c *)
	??1eap_am_network_id_c@@UAE@XZ @ 10 NONAME ; eap_am_network_id_c::~eap_am_network_id_c(void)
	?set_is_invalid@eap_variable_data_c@@QAEXXZ @ 11 NONAME ; void eap_variable_data_c::set_is_invalid(void)
	?get_data_length@eap_core_retransmission_c@@QBEKXZ @ 12 NONAME ; unsigned long eap_core_retransmission_c::get_data_length(void) const
	?add_rand_seed_hw_ticks@eap_am_crypto_symbian_c@@UAE?AW4eap_status_e@@XZ @ 13 NONAME ; enum eap_status_e eap_am_crypto_symbian_c::add_rand_seed_hw_ticks(void)
	??0eap_am_crypto_sha_256_c@@QAE@PAVabs_eap_am_tools_c@@@Z @ 14 NONAME ; eap_am_crypto_sha_256_c::eap_am_crypto_sha_256_c(class abs_eap_am_tools_c *)
	??0crypto_dsa_c@@QAE@PAVabs_eap_am_tools_c@@@Z @ 15 NONAME ; crypto_dsa_c::crypto_dsa_c(class abs_eap_am_tools_c *)
	?reset@crypto_cbc_c@@AAEXXZ @ 16 NONAME ; void crypto_cbc_c::reset(void)
	?check_is_valid_eap_type@eap_session_core_c@@UAE?AW4eap_status_e@@Veap_expanded_type_c@@@Z @ 17 NONAME ; enum eap_status_e eap_session_core_c::check_is_valid_eap_type(class eap_expanded_type_c)
	?set_is_valid@eap_am_crypto_sha_256_c@@AAEXXZ @ 18 NONAME ; void eap_am_crypto_sha_256_c::set_is_valid(void)
	?add_rand_seed@crypto_random_c@@QAE?AW4eap_status_e@@PBXK@Z @ 19 NONAME ; enum eap_status_e crypto_random_c::add_rand_seed(void const *, unsigned long)
	?set_eap_type_values@eap_expanded_type_c@@QAEXW4eap_type_vendor_id_e@@K@Z @ 20 NONAME ; void eap_expanded_type_c::set_eap_type_values(enum eap_type_vendor_id_e, unsigned long)
	?get_data_length@eap_header_base_c@@QBEGXZ @ 21 NONAME ; unsigned short eap_header_base_c::get_data_length(void) const
	?get_send_network_id@eap_state_notification_c@@UBEPBVeap_am_network_id_c@@XZ @ 22 NONAME ; class eap_am_network_id_c const * eap_state_notification_c::get_send_network_id(void) const
	?get_payload_size@eap_process_tlv_message_data_c@@QBEKPBVeap_variable_data_c@@@Z @ 23 NONAME ; unsigned long eap_process_tlv_message_data_c::get_payload_size(class eap_variable_data_c const *) const
	?get_use_timer_queue@eap_am_tools_c@@UAE_NXZ @ 24 NONAME ; bool eap_am_tools_c::get_use_timer_queue(void)
	?get_is_valid@crypto_3des_ede_c@@UAE_NXZ @ 25 NONAME ; bool crypto_3des_ede_c::get_is_valid(void)
	??0eap_expanded_type_c@@QAE@W4eap_type_vendor_id_e@@K@Z @ 26 NONAME ; eap_expanded_type_c::eap_expanded_type_c(enum eap_type_vendor_id_e, unsigned long)
	?encrypt_with_public_key@crypto_rsa_c@@QAE?AW4eap_status_e@@PBVeap_variable_data_c@@0PAV3@@Z @ 27 NONAME ; enum eap_status_e crypto_rsa_c::encrypt_with_public_key(class eap_variable_data_c const *, class eap_variable_data_c const *, class eap_variable_data_c *)
	?get_parameter_data@eap_process_tlv_message_data_c@@QAE?AW4eap_status_e@@PBVeap_tlv_header_c@@PAV?$eap_array_c@Vnetwork_key_and_index_c@@@@@Z @ 28 NONAME ; enum eap_status_e eap_process_tlv_message_data_c::get_parameter_data(class eap_tlv_header_c const *, class eap_array_c<class network_key_and_index_c> *)
	?set_data_length@eap_buf_chain_base_c@@QAE?AW4eap_status_e@@K@Z @ 29 NONAME ; enum eap_status_e eap_buf_chain_base_c::set_data_length(unsigned long)
	?set_is_invalid@crypto_tls_base_prf_c@@AAEXXZ @ 30 NONAME ; void crypto_tls_base_prf_c::set_is_invalid(void)
	?get_leap_password@eap_master_session_key_c@@QBEPBVeap_variable_data_c@@XZ @ 31 NONAME ; class eap_variable_data_c const * eap_master_session_key_c::get_leap_password(void) const
	?set_selector@eap_network_id_selector_c@@QAE?AW4eap_status_e@@PBVeap_am_network_id_c@@@Z @ 32 NONAME ; enum eap_status_e eap_network_id_selector_c::set_selector(class eap_am_network_id_c const *)
	??0eap_core_nak_info_c@@QAE@PAVabs_eap_am_tools_c@@PBVeap_am_network_id_c@@Veap_expanded_type_c@@E@Z @ 33 NONAME ; eap_core_nak_info_c::eap_core_nak_info_c(class abs_eap_am_tools_c *, class eap_am_network_id_c const *, class eap_expanded_type_c, unsigned char)
	?add_parameter_data@eap_process_tlv_message_data_c@@QAE?AW4eap_status_e@@Veap_expanded_type_c@@@Z @ 34 NONAME ; enum eap_status_e eap_process_tlv_message_data_c::add_parameter_data(class eap_expanded_type_c)
	?set_timer@eap_core_c@@UAE?AW4eap_status_e@@PAVabs_eap_base_timer_c@@KPAXK@Z @ 35 NONAME ; enum eap_status_e eap_core_c::set_timer(class abs_eap_base_timer_c *, unsigned long, void *, unsigned long)
	?get_block_size@crypto_md5_c@@UAEKXZ @ 36 NONAME ; unsigned long crypto_md5_c::get_block_size(void)
	??0crypto_hmac_c@@QAE@PAVabs_eap_am_tools_c@@PAVabs_crypto_hash_algorithm_c@@_N@Z @ 37 NONAME ; crypto_hmac_c::crypto_hmac_c(class abs_eap_am_tools_c *, class abs_crypto_hash_algorithm_c *, bool)
	??0crypto_random_c@@QAE@PAVabs_eap_am_tools_c@@@Z @ 38 NONAME ; crypto_random_c::crypto_random_c(class abs_eap_am_tools_c *)
	?get_eap_header@eapol_header_rd_c@@QBEPAEXZ @ 39 NONAME ; unsigned char * eapol_header_rd_c::get_eap_header(void) const
	?rc4_decrypt@eap_am_crypto_symbian_c@@UAE?AW4eap_status_e@@PBVeap_variable_data_c@@PAXK@Z @ 40 NONAME ; enum eap_status_e eap_am_crypto_symbian_c::rc4_decrypt(class eap_variable_data_c const *, void *, unsigned long)
	?set_length@eap_header_base_c@@QAEXG_N@Z @ 41 NONAME ; void eap_header_base_c::set_length(unsigned short, bool)
	?check_guard_bytes@eap_buf_chain_base_c@@ABE_NPBE@Z @ 42 NONAME ; bool eap_buf_chain_base_c::check_guard_bytes(unsigned char const *) const
	??1eap_am_crypto_rc4_c@@UAE@XZ @ 43 NONAME ; eap_am_crypto_rc4_c::~eap_am_crypto_rc4_c(void)
	?get_protocol_string@eap_state_notification_c@@UBEPBDXZ @ 44 NONAME ; char const * eap_state_notification_c::get_protocol_string(void) const
	?aes_encrypt_block@eap_am_crypto_symbian_c@@UAE?AW4eap_status_e@@PAVeap_variable_data_c@@PBEPAEK@Z @ 45 NONAME ; enum eap_status_e eap_am_crypto_symbian_c::aes_encrypt_block(class eap_variable_data_c *, unsigned char const *, unsigned char *, unsigned long)
	?sha_256_init@eap_am_crypto_symbian_c@@UAE?AW4eap_status_e@@PAVeap_variable_data_c@@@Z @ 46 NONAME ; enum eap_status_e eap_am_crypto_symbian_c::sha_256_init(class eap_variable_data_c *)
	?get_is_valid@eap_type_selection_c@@QBE_NXZ @ 47 NONAME ; bool eap_type_selection_c::get_is_valid(void) const
	?cancel_retransmission@eap_core_c@@AAE?AW4eap_status_e@@XZ @ 48 NONAME ; enum eap_status_e eap_core_c::cancel_retransmission(void)
	?get_is_valid@eap_am_crypto_sha_256_c@@QAE_NXZ @ 49 NONAME ; bool eap_am_crypto_sha_256_c::get_is_valid(void)
	?copy_context@crypto_md4_c@@QAE?AW4eap_status_e@@PBVeap_variable_data_c@@@Z @ 50 NONAME ; enum eap_status_e crypto_md4_c::copy_context(class eap_variable_data_c const *)
	?cbc_copy_block@crypto_cbc_c@@AAEXPAXPBXKK@Z @ 51 NONAME ; void crypto_cbc_c::cbc_copy_block(void *, void const *, unsigned long, unsigned long)
	?load_module@eap_core_c@@UAE?AW4eap_status_e@@Veap_expanded_type_c@@0PAVabs_eap_base_type_c@@PAPAVeap_base_type_c@@_NPBVeap_am_network_id_c@@@Z @ 52 NONAME ; enum eap_status_e eap_core_c::load_module(class eap_expanded_type_c, class eap_expanded_type_c, class abs_eap_base_type_c *, class eap_base_type_c * *, bool, class eap_am_network_id_c const *)
	?add_parameter_data@eap_process_tlv_message_data_c@@QAE?AW4eap_status_e@@PBVabs_eap_state_notification_c@@@Z @ 53 NONAME ; enum eap_status_e eap_process_tlv_message_data_c::add_parameter_data(class abs_eap_state_notification_c const *)
	?get_is_valid@crypto_tls_md5_prf_c@@QAE_NXZ @ 54 NONAME ; bool crypto_tls_md5_prf_c::get_is_valid(void)
	?get_value@eap_tlv_header_c@@QBEPAEK@Z @ 55 NONAME ; unsigned char * eap_tlv_header_c::get_value(unsigned long) const
	?add_data@eap_buf_chain_base_c@@QAE?AW4eap_status_e@@PBXK@Z @ 56 NONAME ; enum eap_status_e eap_buf_chain_base_c::add_data(void const *, unsigned long)
	?convert_selected_bytes_to_ascii_armor@eap_am_tools_c@@AAEXEPAKPAE10_N@Z @ 57 NONAME ; void eap_am_tools_c::convert_selected_bytes_to_ascii_armor(unsigned char, unsigned long *, unsigned char *, unsigned char *, unsigned long *, bool)
	?shutdown@eap_session_core_c@@UAE?AW4eap_status_e@@XZ @ 58 NONAME ; enum eap_status_e eap_session_core_c::shutdown(void)
	?read_parameter_data@eap_process_tlv_message_data_c@@QAE?AW4eap_status_e@@PBV?$eap_array_c@Veap_tlv_header_c@@@@KPAV?$eap_array_c@Vnetwork_key_and_index_c@@@@@Z @ 59 NONAME ; enum eap_status_e eap_process_tlv_message_data_c::read_parameter_data(class eap_array_c<class eap_tlv_header_c> const *, unsigned long, class eap_array_c<class network_key_and_index_c> *)
	??1crypto_hmac_c@@UAE@XZ @ 60 NONAME ; crypto_hmac_c::~crypto_hmac_c(void)
	?get_SSID@simple_config_credential_c@@QAEPAVeap_variable_data_c@@XZ @ 61 NONAME ; class eap_variable_data_c * simple_config_credential_c::get_SSID(void)
	??1crypto_aes_c@@UAE@XZ @ 62 NONAME ; crypto_aes_c::~crypto_aes_c(void)
	?set_is_valid@crypto_tls_base_prf_c@@AAEXXZ @ 63 NONAME ; void crypto_tls_base_prf_c::set_is_valid(void)
	?GetVendorType@TEapExpandedType@@QBEIXZ @ 64 NONAME ; unsigned int TEapExpandedType::GetVendorType(void) const
	?pulse_timer@eap_am_tools_symbian_c@@UAEKK@Z @ 65 NONAME ; unsigned long eap_am_tools_symbian_c::pulse_timer(unsigned long)
	?get_network_key_index@network_key_and_index_c@@QBEEXZ @ 66 NONAME ; unsigned char network_key_and_index_c::get_network_key_index(void) const
	?get_message_data_length@eap_tlv_message_data_c@@QBEKXZ @ 67 NONAME ; unsigned long eap_tlv_message_data_c::get_message_data_length(void) const
	?get_encrypts@crypto_aes_wrap_c@@QAE_NXZ @ 68 NONAME ; bool crypto_aes_wrap_c::get_encrypts(void)
	?hash_final@crypto_sha1_c@@UAE?AW4eap_status_e@@PAXPAK@Z @ 69 NONAME ; enum eap_status_e crypto_sha1_c::hash_final(void *, unsigned long *)
	?get_block_size@eap_am_crypto_sha1_c@@QAEKXZ @ 70 NONAME ; unsigned long eap_am_crypto_sha1_c::get_block_size(void)
	?set_type@eapol_ethernet_header_base_c@@QAEXW4eapol_ethernet_type_e@@@Z @ 71 NONAME ; void eapol_ethernet_header_base_c::set_type(enum eapol_ethernet_type_e)
	?set_mem_guard_bytes@eap_buf_chain_base_c@@AAEXXZ @ 72 NONAME ; void eap_buf_chain_base_c::set_mem_guard_bytes(void)
	?get_is_valid_data@eap_expanded_type_c@@QBE_NXZ @ 73 NONAME ; bool eap_expanded_type_c::get_is_valid_data(void) const
	?copy_context@eap_am_crypto_sha_256_c@@AAE?AW4eap_status_e@@PBVeap_variable_data_c@@_KPBK22@Z @ 74 NONAME ; enum eap_status_e eap_am_crypto_sha_256_c::copy_context(class eap_variable_data_c const *, unsigned long long, unsigned long const *, unsigned long const *, unsigned long const *)
	?get_attribute_type_string@eap_simple_config_trace_string_c@@QBEPBDW4simple_config_Attribute_Type_e@@@Z @ 75 NONAME ; char const * eap_simple_config_trace_string_c::get_attribute_type_string(enum simple_config_Attribute_Type_e) const
	?create_uuid_v5@eap_am_tools_c@@UAE?AW4eap_status_e@@PBXK0KPAVeap_variable_data_c@@@Z @ 76 NONAME ; enum eap_status_e eap_am_tools_c::create_uuid_v5(void const *, unsigned long, void const *, unsigned long, class eap_variable_data_c *)
	?rc4_decrypt@eap_am_crypto_symbian_c@@UAE?AW4eap_status_e@@PBVeap_variable_data_c@@PBXPAXK@Z @ 77 NONAME ; enum eap_status_e eap_am_crypto_symbian_c::rc4_decrypt(class eap_variable_data_c const *, void const *, void *, unsigned long)
	?ConvertEAPSettingsToInternalType@CEapConversion@@SAHPAVabs_eap_am_tools_c@@PBVEAPSettings@@PAVeap_method_settings_c@@@Z @ 78 NONAME ; int CEapConversion::ConvertEAPSettingsToInternalType(class abs_eap_am_tools_c *, class EAPSettings const *, class eap_method_settings_c *)
	?add_message_data@eap_tlv_message_data_c@@QAE?AW4eap_status_e@@KKPBX@Z @ 79 NONAME ; enum eap_status_e eap_tlv_message_data_c::add_message_data(unsigned long, unsigned long, void const *)
	?get_is_valid@crypto_sha1_c@@UAE_NXZ @ 80 NONAME ; bool crypto_sha1_c::get_is_valid(void)
	?set_is_invalid@crypto_md5_c@@AAEXXZ @ 81 NONAME ; void crypto_md5_c::set_is_invalid(void)
	?get_is_reserved@eap_am_mutex_symbian_c@@UBE_NXZ @ 82 NONAME ; bool eap_am_mutex_symbian_c::get_is_reserved(void) const
	?set_eap_database_reference_values@eap_session_core_c@@UAE?AW4eap_status_e@@PBVeap_variable_data_c@@@Z @ 83 NONAME ; enum eap_status_e eap_session_core_c::set_eap_database_reference_values(class eap_variable_data_c const *)
	?get_md5_digest_length@eap_am_crypto_symbian_c@@UAEKPAVeap_variable_data_c@@@Z @ 84 NONAME ; unsigned long eap_am_crypto_symbian_c::get_md5_digest_length(class eap_variable_data_c *)
	?get_parameter_data@eap_process_tlv_message_data_c@@QAE?AW4eap_status_e@@PBVeap_tlv_header_c@@PA_K@Z @ 85 NONAME ; enum eap_status_e eap_process_tlv_message_data_c::get_parameter_data(class eap_tlv_header_c const *, unsigned long long *)
	?GetPrimaryNamePresent@EapCertificateEntry@@QBEHXZ @ 86 NONAME ; int EapCertificateEntry::GetPrimaryNamePresent(void) const
	??0crypto_rsa_c@@QAE@PAVabs_eap_am_tools_c@@@Z @ 87 NONAME ; crypto_rsa_c::crypto_rsa_c(class abs_eap_am_tools_c *)
	?rsa_encrypt_with_public_key@eap_am_crypto_symbian_c@@UAE?AW4eap_status_e@@PAVeap_variable_data_c@@PBV3@10@Z @ 88 NONAME ; enum eap_status_e eap_am_crypto_symbian_c::rsa_encrypt_with_public_key(class eap_variable_data_c *, class eap_variable_data_c const *, class eap_variable_data_c const *, class eap_variable_data_c *)
	?get_block_size@crypto_sha_256_c@@UAEKXZ @ 89 NONAME ; unsigned long crypto_sha_256_c::get_block_size(void)
	??0eapol_header_wr_c@@QAE@PAVabs_eap_am_tools_c@@PAEK@Z @ 90 NONAME ; eapol_header_wr_c::eapol_header_wr_c(class abs_eap_am_tools_c *, unsigned char *, unsigned long)
	?hash_cleanup@crypto_md4_c@@UAE?AW4eap_status_e@@XZ @ 91 NONAME ; enum eap_status_e crypto_md4_c::hash_cleanup(void)
	?read_parameter_data@eap_process_tlv_message_data_c@@QAE?AW4eap_status_e@@PBV?$eap_array_c@Veap_tlv_header_c@@@@KPAV?$eap_array_c@Veap_expanded_type_c@@@@@Z @ 92 NONAME ; enum eap_status_e eap_process_tlv_message_data_c::read_parameter_data(class eap_array_c<class eap_tlv_header_c> const *, unsigned long, class eap_array_c<class eap_expanded_type_c> *)
	?object_decrease_reference_count@eap_tlv_message_data_c@@QAEKXZ @ 93 NONAME ; unsigned long eap_tlv_message_data_c::object_decrease_reference_count(void)
	?init@crypto_dsa_c@@QAE?AW4eap_status_e@@XZ @ 94 NONAME ; enum eap_status_e crypto_dsa_c::init(void)
	?ConvertHBufC8ToInternalTypes@CEapConversion@@SAHPAVabs_eap_am_tools_c@@PBVHBufC8@@PAV?$eap_array_c@Veap_expanded_type_c@@@@@Z @ 95 NONAME ; int CEapConversion::ConvertHBufC8ToInternalTypes(class abs_eap_am_tools_c *, class HBufC8 const *, class eap_array_c<class eap_expanded_type_c> *)
	?hmac_set_key@crypto_hmac_c@@UAE?AW4eap_status_e@@PBVeap_variable_data_c@@@Z @ 96 NONAME ; enum eap_status_e crypto_hmac_c::hmac_set_key(class eap_variable_data_c const *)
	?GetThumbprintWritable@EapCertificateEntry@@QAEPAVTDes16@@XZ @ 97 NONAME ; class TDes16 * EapCertificateEntry::GetThumbprintWritable(void)
	?get_eap_type_list@eap_core_c@@UAE?AW4eap_status_e@@PAV?$eap_array_c@Veap_expanded_type_c@@@@@Z @ 98 NONAME ; enum eap_status_e eap_core_c::get_eap_type_list(class eap_array_c<class eap_expanded_type_c> *)
	?get_type@eapol_ethernet_header_base_c@@QBEGXZ @ 99 NONAME ; unsigned short eapol_ethernet_header_base_c::get_type(void) const
	?encrypt_block@crypto_3des_ede_c@@UAE?AW4eap_status_e@@PBXPAXK@Z @ 100 NONAME ; enum eap_status_e crypto_3des_ede_c::encrypt_block(void const *, void *, unsigned long)
	?get_length@eap_header_base_c@@QBEGXZ @ 101 NONAME ; unsigned short eap_header_base_c::get_length(void) const
	?set_buffer_length@eap_variable_data_c@@QAE?AW4eap_status_e@@K@Z @ 102 NONAME ; enum eap_status_e eap_variable_data_c::set_buffer_length(unsigned long)
	?set_is_invalid@crypto_sha1_c@@AAEXXZ @ 103 NONAME ; void crypto_sha1_c::set_is_invalid(void)
	?add_parameter_data@eap_process_tlv_message_data_c@@QAE?AW4eap_status_e@@W4eap_tlv_message_type_function_e@@@Z @ 104 NONAME ; enum eap_status_e eap_process_tlv_message_data_c::add_parameter_data(enum eap_tlv_message_type_function_e)
	?dsa_init@eap_am_crypto_symbian_c@@UAE?AW4eap_status_e@@PAVeap_variable_data_c@@@Z @ 105 NONAME ; enum eap_status_e eap_am_crypto_symbian_c::dsa_init(class eap_variable_data_c *)
	?get_is_valid@crypto_dsa_c@@QAE_NXZ @ 106 NONAME ; bool crypto_dsa_c::get_is_valid(void)
	?asynchronous_init_remove_eap_session@eap_session_core_c@@QAE?AW4eap_status_e@@PBVeap_network_id_selector_c@@@Z @ 107 NONAME ; enum eap_status_e eap_session_core_c::asynchronous_init_remove_eap_session(class eap_network_id_selector_c const *)
	?unload_module@eap_core_c@@UAE?AW4eap_status_e@@Veap_expanded_type_c@@@Z @ 108 NONAME ; enum eap_status_e eap_core_c::unload_module(class eap_expanded_type_c)
	?aes_decrypt_block@eap_am_crypto_symbian_c@@UAE?AW4eap_status_e@@PAVeap_variable_data_c@@PBEPAEK@Z @ 109 NONAME ; enum eap_status_e eap_am_crypto_symbian_c::aes_decrypt_block(class eap_variable_data_c *, unsigned char const *, unsigned char *, unsigned long)
	?ConvertInternalTypeToEAPSettings@CEapConversion@@SAHPAVabs_eap_am_tools_c@@PBVeap_method_settings_c@@PAVEAPSettings@@@Z @ 110 NONAME ; int CEapConversion::ConvertInternalTypeToEAPSettings(class abs_eap_am_tools_c *, class eap_method_settings_c const *, class EAPSettings *)
	?set_do_packet_retransmission@eap_buf_chain_base_c@@QAEX_N@Z @ 111 NONAME ; void eap_buf_chain_base_c::set_do_packet_retransmission(bool)
	?get_is_valid@crypto_rsa_c@@QAE_NXZ @ 112 NONAME ; bool crypto_rsa_c::get_is_valid(void)
	??1eapol_header_base_c@@UAE@XZ @ 113 NONAME ; eapol_header_base_c::~eapol_header_base_c(void)
	??8eap_expanded_type_c@@QBE_NW4eap_type_ietf_values_e@@@Z @ 114 NONAME ; bool eap_expanded_type_c::operator==(enum eap_type_ietf_values_e) const
	?get_type_partner@eap_base_type_c@@QAEPAVabs_eap_base_type_c@@XZ @ 115 NONAME ; class abs_eap_base_type_c * eap_base_type_c::get_type_partner(void)
	?read_configure@eap_session_core_c@@UAE?AW4eap_status_e@@PBVeap_configuration_field_c@@PAVeap_variable_data_c@@@Z @ 116 NONAME ; enum eap_status_e eap_session_core_c::read_configure(class eap_configuration_field_c const *, class eap_variable_data_c *)
	?memory_store_add_data@eap_am_tools_c@@UAE?AW4eap_status_e@@PBVeap_variable_data_c@@PAVeap_tlv_message_data_c@@K@Z @ 117 NONAME ; enum eap_status_e eap_am_tools_c::memory_store_add_data(class eap_variable_data_c const *, class eap_tlv_message_data_c *, unsigned long)
	?get_sha_256_digest_length@eap_am_crypto_symbian_c@@UAEKPAVeap_variable_data_c@@@Z @ 118 NONAME ; unsigned long eap_am_crypto_symbian_c::get_sha_256_digest_length(class eap_variable_data_c *)
	??0eap_core_c@@QAE@PAVabs_eap_am_tools_c@@PAVabs_eap_core_c@@_NPBVeap_am_network_id_c@@2@Z @ 119 NONAME ; eap_core_c::eap_core_c(class abs_eap_am_tools_c *, class abs_eap_core_c *, bool, class eap_am_network_id_c const *, bool)
	?set_decryption_key@crypto_aes_c@@UAE?AW4eap_status_e@@PBXK@Z @ 120 NONAME ; enum eap_status_e crypto_aes_c::set_decryption_key(void const *, unsigned long)
	?get_is_manipulated@eap_buf_chain_base_c@@QAE_NXZ @ 121 NONAME ; bool eap_buf_chain_base_c::get_is_manipulated(void)
	?set_subsection@eap_config_value_c@@QAEXPAV?$eap_core_map_c@Veap_config_value_c@@Vabs_eap_core_map_c@@Veap_variable_data_c@@@@@Z @ 122 NONAME ; void eap_config_value_c::set_subsection(class eap_core_map_c<class eap_config_value_c, class abs_eap_core_map_c, class eap_variable_data_c> *)
	?get_source@eap_am_network_id_c@@QBEPBEXZ @ 123 NONAME ; unsigned char const * eap_am_network_id_c::get_source(void) const
	??0crypto_3des_ede_c@@QAE@PAVabs_eap_am_tools_c@@@Z @ 124 NONAME ; crypto_3des_ede_c::crypto_3des_ede_c(class abs_eap_am_tools_c *)
	??0eap_am_memory_store_tlv_data_c@@QAE@PAVabs_eap_am_tools_c@@@Z @ 125 NONAME ; eap_am_memory_store_tlv_data_c::eap_am_memory_store_tlv_data_c(class abs_eap_am_tools_c *)
	??1crypto_md5_c@@UAE@XZ @ 126 NONAME ; crypto_md5_c::~crypto_md5_c(void)
	?SetThumbprintPresent@EapCertificateEntry@@QAEXXZ @ 127 NONAME ; void EapCertificateEntry::SetThumbprintPresent(void)
	?set_trace_file_name@eap_am_tools_symbian_c@@UAE?AW4eap_status_e@@PBVeap_variable_data_c@@@Z @ 128 NONAME ; enum eap_status_e eap_am_tools_symbian_c::set_trace_file_name(class eap_variable_data_c const *)
	?add_parameter_data@eap_process_tlv_message_data_c@@QAE?AW4eap_status_e@@K@Z @ 129 NONAME ; enum eap_status_e eap_process_tlv_message_data_c::add_parameter_data(unsigned long)
	?set_is_valid@crypto_ephemeral_diffie_hellman_c@@QAEXXZ @ 130 NONAME ; void crypto_ephemeral_diffie_hellman_c::set_is_valid(void)
	??1eap_am_file_input_symbian_c@@UAE@XZ @ 131 NONAME ; eap_am_file_input_symbian_c::~eap_am_file_input_symbian_c(void)
	?SetIssuerNamePresent@EapCertificateEntry@@QAEXXZ @ 132 NONAME ; void EapCertificateEntry::SetIssuerNamePresent(void)
	??1eap_session_core_base_c@@UAE@XZ @ 133 NONAME ; eap_session_core_base_c::~eap_session_core_base_c(void)
	?get_Encryption_Type@simple_config_credential_c@@QAE?AW4simple_config_Encryption_Type_e@@XZ @ 134 NONAME ; enum simple_config_Encryption_Type_e simple_config_credential_c::get_Encryption_Type(void)
	?get_digest_length@crypto_md4_c@@UAEKXZ @ 135 NONAME ; unsigned long crypto_md4_c::get_digest_length(void)
	?eap_read_u16_t_little_endian_order@@YAGPBXK@Z @ 136 NONAME ; unsigned short eap_read_u16_t_little_endian_order(void const *, unsigned long)
	?get_vendor_id@eap_expanded_type_c@@QBE?AW4eap_type_vendor_id_e@@XZ @ 137 NONAME ; enum eap_type_vendor_id_e eap_expanded_type_c::get_vendor_id(void) const
	?decrypt_data@crypto_rc4_c@@UAE?AW4eap_status_e@@PBXPAXK@Z @ 138 NONAME ; enum eap_status_e crypto_rc4_c::decrypt_data(void const *, void *, unsigned long)
	?u64_struct_to_u64_t@eap_am_tools_symbian_c@@UAE_KUu64_struct@@@Z @ 139 NONAME ; unsigned long long eap_am_tools_symbian_c::u64_struct_to_u64_t(struct u64_struct)
	?get_eap_identifier@eap_core_nak_info_c@@QBEEXZ @ 140 NONAME ; unsigned char eap_core_nak_info_c::get_eap_identifier(void) const
	?add_parameter_data@eap_process_tlv_message_data_c@@QAE?AW4eap_status_e@@PBVeap_buf_chain_wr_c@@@Z @ 141 NONAME ; enum eap_status_e eap_process_tlv_message_data_c::add_parameter_data(class eap_buf_chain_wr_c const *)
	??0crypto_aes_c@@QAE@PAVabs_eap_am_tools_c@@@Z @ 142 NONAME ; crypto_aes_c::crypto_aes_c(class abs_eap_am_tools_c *)
	?md4_final@eap_am_crypto_symbian_c@@UAE?AW4eap_status_e@@PAVeap_variable_data_c@@PAEPAK@Z @ 143 NONAME ; enum eap_status_e eap_am_crypto_symbian_c::md4_final(class eap_variable_data_c *, unsigned char *, unsigned long *)
	?t_prf_init@crypto_eap_fast_hmac_sha1_prf_c@@QAE?AW4eap_status_e@@PBVeap_variable_data_c@@00@Z @ 144 NONAME ; enum eap_status_e crypto_eap_fast_hmac_sha1_prf_c::t_prf_init(class eap_variable_data_c const *, class eap_variable_data_c const *, class eap_variable_data_c const *)
	?SetThumbprint@EapCertificateEntry@@QAEHABV?$TBuf@$0EA@@@@Z @ 145 NONAME ; int EapCertificateEntry::SetThumbprint(class TBuf<64> const &)
	??0eap_am_network_id_c@@QAE@PAVabs_eap_am_tools_c@@PBVeap_variable_data_c@@1G@Z @ 146 NONAME ; eap_am_network_id_c::eap_am_network_id_c(class abs_eap_am_tools_c *, class eap_variable_data_c const *, class eap_variable_data_c const *, unsigned short)
	??1abs_crypto_block_algorithm_c@@UAE@XZ @ 147 NONAME ; abs_crypto_block_algorithm_c::~abs_crypto_block_algorithm_c(void)
	?add_data_to_offset@eap_variable_data_c@@QAE?AW4eap_status_e@@KPBXK@Z @ 148 NONAME ; enum eap_status_e eap_variable_data_c::add_data_to_offset(unsigned long, void const *, unsigned long)
	?create_uuid_v5_from_mac_address@eap_am_tools_c@@UAE?AW4eap_status_e@@PBEKPAVeap_variable_data_c@@@Z @ 149 NONAME ; enum eap_status_e eap_am_tools_c::create_uuid_v5_from_mac_address(unsigned char const *, unsigned long, class eap_variable_data_c *)
	?shutdown_operation@eap_core_c@@CA?AW4eap_status_e@@PAVeap_base_type_c@@PAVabs_eap_am_tools_c@@@Z @ 150 NONAME ; enum eap_status_e eap_core_c::shutdown_operation(class eap_base_type_c *, class abs_eap_am_tools_c *)
	?stop_timer_thread@eap_am_tools_symbian_c@@UAE?AW4eap_status_e@@XZ @ 151 NONAME ; enum eap_status_e eap_am_tools_symbian_c::stop_timer_thread(void)
	?get_mac_address@eap_rogue_ap_entry_c@@QBEPAEXZ @ 152 NONAME ; unsigned char * eap_rogue_ap_entry_c::get_mac_address(void) const
	?compare_length@eap_variable_data_c@@QBEJPBV1@K@Z @ 153 NONAME ; long eap_variable_data_c::compare_length(class eap_variable_data_c const *, unsigned long) const
	?create_eap_session@eap_session_core_c@@UAE?AW4eap_status_e@@PBVeap_am_network_id_c@@@Z @ 154 NONAME ; enum eap_status_e eap_session_core_c::create_eap_session(class eap_am_network_id_c const *)
	??0eap_am_mutex_base_c@@QAE@XZ @ 155 NONAME ; eap_am_mutex_base_c::eap_am_mutex_base_c(void)
	?get_header_buffer_length@eap_general_header_base_c@@QBEKXZ @ 156 NONAME ; unsigned long eap_general_header_base_c::get_header_buffer_length(void) const
	?get_data_length@eap_variable_data_c@@QBEKXZ @ 157 NONAME ; unsigned long eap_variable_data_c::get_data_length(void) const
	?restart_authentication@eap_session_core_c@@UAE?AW4eap_status_e@@PBVeap_am_network_id_c@@_N11@Z @ 158 NONAME ; enum eap_status_e eap_session_core_c::restart_authentication(class eap_am_network_id_c const *, bool, bool, bool)
	?add_rand_seed@eap_am_crypto_symbian_c@@UAE?AW4eap_status_e@@PBEK@Z @ 159 NONAME ; enum eap_status_e eap_am_crypto_symbian_c::add_rand_seed(unsigned char const *, unsigned long)
	?SetSubjectName@EapCertificateEntry@@QAEHABV?$TBuf@$0PP@@@@Z @ 160 NONAME ; int EapCertificateEntry::SetSubjectName(class TBuf<255> const &)
	??0simple_config_credential_c@@QAE@PAVabs_eap_am_tools_c@@@Z @ 161 NONAME ; simple_config_credential_c::simple_config_credential_c(class abs_eap_am_tools_c *)
	??0EapMessageQueue@@QAE@PAVabs_eap_am_tools_c@@@Z @ 162 NONAME ; EapMessageQueue::EapMessageQueue(class abs_eap_am_tools_c *)
	?set_type@eap_am_network_id_c@@QAEXG@Z @ 163 NONAME ; void eap_am_network_id_c::set_type(unsigned short)
	?set_is_valid@eap_variable_data_c@@QAEXXZ @ 164 NONAME ; void eap_variable_data_c::set_is_valid(void)
	?get_trace_mask@eap_am_tools_c@@UBEKXZ @ 165 NONAME ; unsigned long eap_am_tools_c::get_trace_mask(void) const
	?set_trace_prefix@eap_am_tools_symbian_c@@UAE?AW4eap_status_e@@PBVeap_variable_data_c@@@Z @ 166 NONAME ; enum eap_status_e eap_am_tools_symbian_c::set_trace_prefix(class eap_variable_data_c const *)
	?get_owner_thread@eap_am_mutex_symbian_c@@QBEPBVRThread@@XZ @ 167 NONAME ; class RThread const * eap_am_mutex_symbian_c::get_owner_thread(void) const
	?copy@eap_am_crypto_sha_256_c@@QAEPAV1@XZ @ 168 NONAME ; class eap_am_crypto_sha_256_c * eap_am_crypto_sha_256_c::copy(void)
	??0crypto_md5_c@@QAE@PAVabs_eap_am_tools_c@@@Z @ 169 NONAME ; crypto_md5_c::crypto_md5_c(class abs_eap_am_tools_c *)
	??1eapol_ethernet_header_wr_c@@UAE@XZ @ 170 NONAME ; eapol_ethernet_header_wr_c::~eapol_ethernet_header_wr_c(void)
	?ConvertInternalTypeToExpandedEAPType@CEapConversion@@SAHPBVeap_expanded_type_c@@PAVTEapExpandedType@@@Z @ 171 NONAME ; int CEapConversion::ConvertInternalTypeToExpandedEAPType(class eap_expanded_type_c const *, class TEapExpandedType *)
	?parse_nai@eap_am_tools_c@@UAE?AW4eap_status_e@@PBVeap_variable_data_c@@PAV3@1@Z @ 172 NONAME ; enum eap_status_e eap_am_tools_c::parse_nai(class eap_variable_data_c const *, class eap_variable_data_c *, class eap_variable_data_c *)
	?get_eap_type@eap_state_notification_c@@UBE?AVeap_expanded_type_c@@XZ @ 173 NONAME ; class eap_expanded_type_c eap_state_notification_c::get_eap_type(void) const
	?read_parameter_data@eap_process_tlv_message_data_c@@QAE?AW4eap_status_e@@PBV?$eap_array_c@Veap_tlv_header_c@@@@KPAE@Z @ 174 NONAME ; enum eap_status_e eap_process_tlv_message_data_c::read_parameter_data(class eap_array_c<class eap_tlv_header_c> const *, unsigned long, unsigned char *)
	?get_header_offset@eap_session_core_c@@UAEKPAK0@Z @ 175 NONAME ; unsigned long eap_session_core_c::get_header_offset(unsigned long *, unsigned long *)
	?ConvertCertificatesToInternalType@CEapConversion@@SAHPAVabs_eap_am_tools_c@@PBV?$RPointerArray@VEapCertificateEntry@@@@PAV?$eap_array_c@Veap_certificate_entry_c@@@@@Z @ 176 NONAME ; int CEapConversion::ConvertCertificatesToInternalType(class abs_eap_am_tools_c *, class RPointerArray<class EapCertificateEntry> const *, class eap_array_c<class eap_certificate_entry_c> *)
	?decrypt_data@crypto_cbc_c@@UAE?AW4eap_status_e@@PBXPAXK@Z @ 177 NONAME ; enum eap_status_e crypto_cbc_c::decrypt_data(void const *, void *, unsigned long)
	?get_expanded_type_data@eap_expanded_type_c@@QBE?AW4eap_status_e@@PAVabs_eap_am_tools_c@@PAVeap_variable_data_c@@@Z @ 178 NONAME ; enum eap_status_e eap_expanded_type_c::get_expanded_type_data(class abs_eap_am_tools_c *, class eap_variable_data_c *) const
	?hmac_128_final@crypto_hmac_c@@QAE?AW4eap_status_e@@PAXPAK@Z @ 179 NONAME ; enum eap_status_e crypto_hmac_c::hmac_128_final(void *, unsigned long *)
	?get_is_valid@crypto_rc4_c@@UAE_NXZ @ 180 NONAME ; bool crypto_rc4_c::get_is_valid(void)
	??0TEapExpandedType@@QAE@ABV0@@Z @ 181 NONAME ; TEapExpandedType::TEapExpandedType(class TEapExpandedType const &)
	?read_parameter_data@eap_process_tlv_message_data_c@@QAE?AW4eap_status_e@@PBV?$eap_array_c@Veap_tlv_header_c@@@@KPAW4eapol_tkip_mic_failure_type_e@eapol_RSNA_key_header_c@@@Z @ 182 NONAME ; enum eap_status_e eap_process_tlv_message_data_c::read_parameter_data(class eap_array_c<class eap_tlv_header_c> const *, unsigned long, enum eapol_RSNA_key_header_c::eapol_tkip_mic_failure_type_e *)
	?set_is_valid@eap_session_core_c@@UAEXXZ @ 183 NONAME ; void eap_session_core_c::set_is_valid(void)
	?GetEapRequestsString@EapServerStrings@@SAPBDH@Z @ 184 NONAME ; char const * EapServerStrings::GetEapRequestsString(int)
	?re_activate_timer_queue@eap_am_tools_symbian_c@@UAE?AW4eap_status_e@@XZ @ 185 NONAME ; enum eap_status_e eap_am_tools_symbian_c::re_activate_timer_queue(void)
	?eap_host_to_little_endian_long_long@@YA_K_K@Z @ 186 NONAME ; unsigned long long eap_host_to_little_endian_long_long(unsigned long long)
	??1eap_buf_chain_rd_c@@UAE@XZ @ 187 NONAME ; eap_buf_chain_rd_c::~eap_buf_chain_rd_c(void)
	?set_decryption_key_3des_ede@eap_am_crypto_symbian_c@@UAE?AW4eap_status_e@@PAVeap_variable_data_c@@PBEK@Z @ 188 NONAME ; enum eap_status_e eap_am_crypto_symbian_c::set_decryption_key_3des_ede(class eap_variable_data_c *, unsigned char const *, unsigned long)
	??0eap_am_mutex_symbian_c@@QAE@PBV0@@Z @ 189 NONAME ; eap_am_mutex_symbian_c::eap_am_mutex_symbian_c(class eap_am_mutex_symbian_c const *)
	?eap_status_return_file_number@eap_am_tools_c@@UAE?AW4eap_status_e@@_NW42@KKJ@Z @ 190 NONAME ; enum eap_status_e eap_am_tools_c::eap_status_return_file_number(bool, enum eap_status_e, unsigned long, unsigned long, long)
	??1eap_core_c@@UAE@XZ @ 191 NONAME ; eap_core_c::~eap_core_c(void)
	?get_payload_size@eap_process_tlv_message_data_c@@QBEKPBV?$eap_array_c@Vnetwork_key_and_index_c@@@@@Z @ 192 NONAME ; unsigned long eap_process_tlv_message_data_c::get_payload_size(class eap_array_c<class network_key_and_index_c> const *) const
	?copy_context@crypto_sha_256_c@@QAE?AW4eap_status_e@@PBVeap_variable_data_c@@@Z @ 193 NONAME ; enum eap_status_e crypto_sha_256_c::copy_context(class eap_variable_data_c const *)
	??0eap_header_wr_c@@QAE@PAVabs_eap_am_tools_c@@PAEK@Z @ 194 NONAME ; eap_header_wr_c::eap_header_wr_c(class abs_eap_am_tools_c *, unsigned char *, unsigned long)
	?hash_init@crypto_sha1_c@@UAE?AW4eap_status_e@@XZ @ 195 NONAME ; enum eap_status_e crypto_sha1_c::hash_init(void)
	?get_payload_size@eap_process_tlv_message_data_c@@QBEKPBVabs_eap_state_notification_c@@@Z @ 196 NONAME ; unsigned long eap_process_tlv_message_data_c::get_payload_size(class abs_eap_state_notification_c const *) const
	?GetSubjectNameWritable@EapCertificateEntry@@QAEPAVTDes16@@XZ @ 197 NONAME ; class TDes16 * EapCertificateEntry::GetSubjectNameWritable(void)
	?set_copy_of_network_id@eap_am_network_id_c@@QAE?AW4eap_status_e@@PBV1@@Z @ 198 NONAME ; enum eap_status_e eap_am_network_id_c::set_copy_of_network_id(class eap_am_network_id_c const *)
	?hash@eap_variable_data_c@@QBEKK@Z @ 199 NONAME ; unsigned long eap_variable_data_c::hash(unsigned long) const
	?eap_status_return@eap_am_tools_c@@UAE?AW4eap_status_e@@_NW42@PBDJ@Z @ 200 NONAME ; enum eap_status_e eap_am_tools_c::eap_status_return(bool, enum eap_status_e, char const *, long)
	?object_increase_reference_count@eap_core_c@@QAEXXZ @ 201 NONAME ; void eap_core_c::object_increase_reference_count(void)
	?expand_key@crypto_kd_hmac_sha256_c@@QAE?AW4eap_status_e@@PAVeap_variable_data_c@@KPBV3@1@Z @ 202 NONAME ; enum eap_status_e crypto_kd_hmac_sha256_c::expand_key(class eap_variable_data_c *, unsigned long, class eap_variable_data_c const *, class eap_variable_data_c const *)
	?set_is_invalid@crypto_tls_sha1_prf_c@@AAEXXZ @ 203 NONAME ; void crypto_tls_sha1_prf_c::set_is_invalid(void)
	?get_is_valid@crypto_eap_fast_hmac_sha1_prf_c@@QAE_NXZ @ 204 NONAME ; bool crypto_eap_fast_hmac_sha1_prf_c::get_is_valid(void)
	?copy@eap_rogue_ap_entry_c@@QBEPAV1@XZ @ 205 NONAME ; class eap_rogue_ap_entry_c * eap_rogue_ap_entry_c::copy(void) const
	?set_is_valid@crypto_cbc_c@@UAEXXZ @ 206 NONAME ; void crypto_cbc_c::set_is_valid(void)
	?tls_prf_cleanup@crypto_tls_prf_c@@QAE?AW4eap_status_e@@XZ @ 207 NONAME ; enum eap_status_e crypto_tls_prf_c::tls_prf_cleanup(void)
	?get_packet_type@eapol_header_base_c@@QBE?AW4eapol_packet_type_e@@XZ @ 208 NONAME ; enum eapol_packet_type_e eapol_header_base_c::get_packet_type(void) const
	?copy@crypto_sha1_c@@UAEPAVabs_crypto_hash_algorithm_c@@XZ @ 209 NONAME ; class abs_crypto_hash_algorithm_c * crypto_sha1_c::copy(void)
	?timer_expired@eap_core_c@@UAE?AW4eap_status_e@@KPAX@Z @ 210 NONAME ; enum eap_status_e eap_core_c::timer_expired(unsigned long, void *)
	?get_parameter_data@eap_process_tlv_message_data_c@@QAE?AW4eap_status_e@@PBVeap_tlv_header_c@@PAK@Z @ 211 NONAME ; enum eap_status_e eap_process_tlv_message_data_c::get_parameter_data(class eap_tlv_header_c const *, unsigned long *)
	?get_data_length@eapol_ethernet_header_base_c@@QBEKXZ @ 212 NONAME ; unsigned long eapol_ethernet_header_base_c::get_data_length(void) const
	?file_read_line@eap_am_file_input_symbian_c@@UAE?AW4eap_status_e@@PAVeap_variable_data_c@@@Z @ 213 NONAME ; enum eap_status_e eap_am_file_input_symbian_c::file_read_line(class eap_variable_data_c *)
	?reset@eap_core_c@@QAE?AW4eap_status_e@@XZ @ 214 NONAME ; enum eap_status_e eap_core_c::reset(void)
	?eap_host_to_little_endian_short@@YAGG@Z @ 215 NONAME ; unsigned short eap_host_to_little_endian_short(unsigned short)
	?get_key_index@eapol_session_key_c@@QBEKXZ @ 216 NONAME ; unsigned long eapol_session_key_c::get_key_index(void) const
	?GetValue@TEapExpandedType@@QBEABV?$TBuf8@$07@@XZ @ 217 NONAME ; class TBuf8<8> const & TEapExpandedType::GetValue(void) const
	?get_message_type_string@eap_simple_config_trace_string_c@@QBEPBDW4simple_config_Message_Type_e@@@Z @ 218 NONAME ; char const * eap_simple_config_trace_string_c::get_message_type_string(enum simple_config_Message_Type_e) const
	??0eap_variable_data_c@@QAE@PAVabs_eap_am_tools_c@@PBXK_N2@Z @ 219 NONAME ; eap_variable_data_c::eap_variable_data_c(class abs_eap_am_tools_c *, void const *, unsigned long, bool, bool)
	?read_parameter_data@eap_process_tlv_message_data_c@@QAE?AW4eap_status_e@@PBV?$eap_array_c@Veap_tlv_header_c@@@@KPAVeapol_session_key_c@@@Z @ 220 NONAME ; enum eap_status_e eap_process_tlv_message_data_c::read_parameter_data(class eap_array_c<class eap_tlv_header_c> const *, unsigned long, class eapol_session_key_c *)
	?set_type@eap_config_value_c@@QAEXW4eap_configure_type_e@@@Z @ 221 NONAME ; void eap_config_value_c::set_type(enum eap_configure_type_e)
	??1abs_crypto_stream_algorithm_c@@UAE@XZ @ 222 NONAME ; abs_crypto_stream_algorithm_c::~abs_crypto_stream_algorithm_c(void)
	??1eapol_ethernet_header_base_c@@UAE@XZ @ 223 NONAME ; eapol_ethernet_header_base_c::~eapol_ethernet_header_base_c(void)
	?eap_read_u24_t_network_order@@YAKPBXK@Z @ 224 NONAME ; unsigned long eap_read_u24_t_network_order(void const *, unsigned long)
	?hash_init@eap_am_crypto_md4_c@@QAE?AW4eap_status_e@@XZ @ 225 NONAME ; enum eap_status_e eap_am_crypto_md4_c::hash_init(void)
	?sleep@eap_am_tools_symbian_c@@UAEXK@Z @ 226 NONAME ; void eap_am_tools_symbian_c::sleep(unsigned long)
	?eap_sha1_process_data_host_order@eap_am_crypto_sha1_c@@AAE?AW4eap_status_e@@PBKK@Z @ 227 NONAME ; enum eap_status_e eap_am_crypto_sha1_c::eap_sha1_process_data_host_order(unsigned long const *, unsigned long)
	?get_data@eapol_header_base_c@@QBEPAEK@Z @ 228 NONAME ; unsigned char * eapol_header_base_c::get_data(unsigned long) const
	?get_parameter_data@eap_process_tlv_message_data_c@@QAE?AW4eap_status_e@@PBVeap_tlv_header_c@@PAV?$eap_array_c@Vsimple_config_credential_c@@@@@Z @ 229 NONAME ; enum eap_status_e eap_process_tlv_message_data_c::get_parameter_data(class eap_tlv_header_c const *, class eap_array_c<class simple_config_credential_c> *)
	?get_block_size@crypto_sha1_c@@UAEKXZ @ 230 NONAME ; unsigned long crypto_sha1_c::get_block_size(void)
	?set_is_valid@crypto_tls_sha1_prf_c@@AAEXXZ @ 231 NONAME ; void crypto_tls_sha1_prf_c::set_is_valid(void)
	?get_clock_ticks@eap_am_tools_symbian_c@@UAE_KXZ @ 232 NONAME ; unsigned long long eap_am_tools_symbian_c::get_clock_ticks(void)
	?GetSubjectName@EapCertificateEntry@@QBEPBVTDes16@@XZ @ 233 NONAME ; class TDes16 const * EapCertificateEntry::GetSubjectName(void) const
	?get_data@eap_buf_chain_base_c@@QBEPAEK@Z @ 234 NONAME ; unsigned char * eap_buf_chain_base_c::get_data(unsigned long) const
	?SetSerialNumber@EapCertificateEntry@@QAEHABV?$TBuf@$0PP@@@@Z @ 235 NONAME ; int EapCertificateEntry::SetSerialNumber(class TBuf<255> const &)
	?read_parameter_data@eap_process_tlv_message_data_c@@QAE?AW4eap_status_e@@PBV?$eap_array_c@Veap_tlv_header_c@@@@KPAW4eapol_key_authentication_type_e@@@Z @ 236 NONAME ; enum eap_status_e eap_process_tlv_message_data_c::read_parameter_data(class eap_array_c<class eap_tlv_header_c> const *, unsigned long, enum eapol_key_authentication_type_e *)
	?copy@network_key_and_index_c@@QAEPAV1@XZ @ 237 NONAME ; class network_key_and_index_c * network_key_and_index_c::copy(void)
	?copy@crypto_md5_c@@UAEPAVabs_crypto_hash_algorithm_c@@XZ @ 238 NONAME ; class abs_crypto_hash_algorithm_c * crypto_md5_c::copy(void)
	?get_rand_bytes@eap_am_crypto_symbian_c@@UAE?AW4eap_status_e@@PAEK@Z @ 239 NONAME ; enum eap_status_e eap_am_crypto_symbian_c::get_rand_bytes(unsigned char *, unsigned long)
	?ConvertFromBuf16ToInternal@CEapConversion@@SAHPAVabs_eap_am_tools_c@@PBVTDes16@@PAVeap_variable_data_c@@@Z @ 240 NONAME ; int CEapConversion::ConvertFromBuf16ToInternal(class abs_eap_am_tools_c *, class TDes16 const *, class eap_variable_data_c *)
	?read_parameter_data@eap_process_tlv_message_data_c@@QAE?AW4eap_status_e@@PBV?$eap_array_c@Veap_tlv_header_c@@@@KW4eap_tlv_message_type_e@@PAW42@@Z @ 241 NONAME ; enum eap_status_e eap_process_tlv_message_data_c::read_parameter_data(class eap_array_c<class eap_tlv_header_c> const *, unsigned long, enum eap_tlv_message_type_e, enum eap_status_e *)
	?get_type@eap_am_network_id_c@@QBEGXZ @ 242 NONAME ; unsigned short eap_am_network_id_c::get_type(void) const
	?get_eap_type@eap_master_session_key_c@@QBE?AVeap_expanded_type_c@@XZ @ 243 NONAME ; class eap_expanded_type_c eap_master_session_key_c::get_eap_type(void) const
	??8TEapExpandedType@@QBE_NABV0@@Z @ 244 NONAME ; bool TEapExpandedType::operator==(class TEapExpandedType const &) const
	?get_key_length@crypto_cbc_c@@UAEKXZ @ 245 NONAME ; unsigned long crypto_cbc_c::get_key_length(void)
	?packet_process@eap_core_c@@UAE?AW4eap_status_e@@PBVeap_am_network_id_c@@PAVeap_general_header_base_c@@K@Z @ 246 NONAME ; enum eap_status_e eap_core_c::packet_process(class eap_am_network_id_c const *, class eap_general_header_base_c *, unsigned long)
	?hash_init@crypto_md5_c@@UAE?AW4eap_status_e@@XZ @ 247 NONAME ; enum eap_status_e crypto_md5_c::hash_init(void)
	?memmove@eap_am_tools_symbian_c@@UAEXPAXPBXK@Z @ 248 NONAME ; void eap_am_tools_symbian_c::memmove(void *, void const *, unsigned long)
	?set_marked_removed@eap_core_c@@QAEXXZ @ 249 NONAME ; void eap_core_c::set_marked_removed(void)
	?set_key_type@eapol_session_key_c@@QAEXW4eapol_key_type_e@@@Z @ 250 NONAME ; void eapol_session_key_c::set_key_type(enum eapol_key_type_e)
	?eap_htonl@@YAKK@Z @ 251 NONAME ; unsigned long eap_htonl(unsigned long)
	?sha_256_update@eap_am_crypto_symbian_c@@UAE?AW4eap_status_e@@PAVeap_variable_data_c@@PBEK@Z @ 252 NONAME ; enum eap_status_e eap_am_crypto_symbian_c::sha_256_update(class eap_variable_data_c *, unsigned char const *, unsigned long)
	?eap_md4_transform_host_order@eap_am_crypto_md4_c@@AAE?AW4eap_status_e@@PBKK@Z @ 253 NONAME ; enum eap_status_e eap_am_crypto_md4_c::eap_md4_transform_host_order(unsigned long const *, unsigned long)
	?get_payload_size@eap_process_tlv_message_data_c@@QBEKPBVeap_variable_data_c@@PBVeap_config_value_c@@@Z @ 254 NONAME ; unsigned long eap_process_tlv_message_data_c::get_payload_size(class eap_variable_data_c const *, class eap_config_value_c const *) const
	??0eap_am_network_id_c@@QAE@PAVabs_eap_am_tools_c@@@Z @ 255 NONAME ; eap_am_network_id_c::eap_am_network_id_c(class abs_eap_am_tools_c *)
	?read_parameter_data@eap_process_tlv_message_data_c@@QAE?AW4eap_status_e@@PBV?$eap_array_c@Veap_tlv_header_c@@@@KPA_N@Z @ 256 NONAME ; enum eap_status_e eap_process_tlv_message_data_c::read_parameter_data(class eap_array_c<class eap_tlv_header_c> const *, unsigned long, bool *)
	?get_partner@eap_session_core_c@@QAEPAVabs_eap_session_core_c@@XZ @ 257 NONAME ; class abs_eap_session_core_c * eap_session_core_c::get_partner(void)
	?get_is_valid@eap_am_crypto_rc4_c@@QAE_NXZ @ 258 NONAME ; bool eap_am_crypto_rc4_c::get_is_valid(void)
	?set_version@eapol_header_base_c@@QAEXW4eapol_protocol_version_e@@@Z @ 259 NONAME ; void eapol_header_base_c::set_version(enum eapol_protocol_version_e)
	?set_encryption_key@crypto_aes_wrap_c@@QAE?AW4eap_status_e@@PBXK@Z @ 260 NONAME ; enum eap_status_e crypto_aes_wrap_c::set_encryption_key(void const *, unsigned long)
	?add_parameter_data@eap_process_tlv_message_data_c@@QAE?AW4eap_status_e@@PBV?$eap_array_c@Vsimple_config_credential_c@@@@@Z @ 261 NONAME ; enum eap_status_e eap_process_tlv_message_data_c::add_parameter_data(class eap_array_c<class simple_config_credential_c> const *)
	?write_configure@eap_core_c@@UAE?AW4eap_status_e@@PBVeap_configuration_field_c@@PAVeap_variable_data_c@@@Z @ 262 NONAME ; enum eap_status_e eap_core_c::write_configure(class eap_configuration_field_c const *, class eap_variable_data_c *)
	?ConvertFromTDesCToInternal@CEapConversion@@SAHPAVabs_eap_am_tools_c@@ABVTDesC16@@PAVeap_variable_data_c@@@Z @ 263 NONAME ; int CEapConversion::ConvertFromTDesCToInternal(class abs_eap_am_tools_c *, class TDesC16 const &, class eap_variable_data_c *)
	?cleanup@crypto_rsa_c@@QAE?AW4eap_status_e@@XZ @ 264 NONAME ; enum eap_status_e crypto_rsa_c::cleanup(void)
	?object_decrease_reference_count@eap_base_type_c@@QAEKXZ @ 265 NONAME ; unsigned long eap_base_type_c::object_decrease_reference_count(void)
	?get_is_valid@crypto_md4_c@@UAE_NXZ @ 266 NONAME ; bool crypto_md4_c::get_is_valid(void)
	?allocate_message_buffer@eap_tlv_message_data_c@@QAE?AW4eap_status_e@@KKPAPAX@Z @ 267 NONAME ; enum eap_status_e eap_tlv_message_data_c::allocate_message_buffer(unsigned long, unsigned long, void * *)
	??1eap_header_rd_c@@UAE@XZ @ 268 NONAME ; eap_header_rd_c::~eap_header_rd_c(void)
	?hash_cleanup@crypto_sha1_c@@UAE?AW4eap_status_e@@XZ @ 269 NONAME ; enum eap_status_e crypto_sha1_c::hash_cleanup(void)
	?GetSecondaryName@EapCertificateEntry@@QBEPBVTDes16@@XZ @ 270 NONAME ; class TDes16 const * EapCertificateEntry::GetSecondaryName(void) const
	?convert_hex_ascii_to_bytes@eap_am_tools_c@@UAE?AW4eap_status_e@@PBXKPAVeap_variable_data_c@@@Z @ 271 NONAME ; enum eap_status_e eap_am_tools_c::convert_hex_ascii_to_bytes(void const *, unsigned long, class eap_variable_data_c *)
	?hash_update@eap_am_crypto_md4_c@@QAE?AW4eap_status_e@@PBXK@Z @ 272 NONAME ; enum eap_status_e eap_am_crypto_md4_c::hash_update(void const *, unsigned long)
	??0EapMessageBuffer@@QAE@PAVabs_eap_am_tools_c@@@Z @ 273 NONAME ; EapMessageBuffer::EapMessageBuffer(class abs_eap_am_tools_c *)
	?get_parameter_data@eap_process_tlv_message_data_c@@QAE?AW4eap_status_e@@PBVeap_tlv_header_c@@PAVnetwork_key_and_index_c@@@Z @ 274 NONAME ; enum eap_status_e eap_process_tlv_message_data_c::get_parameter_data(class eap_tlv_header_c const *, class network_key_and_index_c *)
	?get_is_reserved@eap_am_mutex_base_c@@QBE_NXZ @ 275 NONAME ; bool eap_am_mutex_base_c::get_is_reserved(void) const
	?hash_init@eap_am_crypto_sha1_c@@QAE?AW4eap_status_e@@XZ @ 276 NONAME ; enum eap_status_e eap_am_crypto_sha1_c::hash_init(void)
	?get_is_valid@crypto_cbc_c@@UAE_NXZ @ 277 NONAME ; bool crypto_cbc_c::get_is_valid(void)
	?convert_bytes_to_ascii_armor@eap_am_tools_c@@UAE?AW4eap_status_e@@PBEKPAEPAK@Z @ 278 NONAME ; enum eap_status_e eap_am_tools_c::convert_bytes_to_ascii_armor(unsigned char const *, unsigned long, unsigned char *, unsigned long *)
	?copy@eap_network_id_selector_c@@QBEPAV1@XZ @ 279 NONAME ; class eap_network_id_selector_c * eap_network_id_selector_c::copy(void) const
	?get_mem_guard_length@eap_buf_chain_base_c@@QAEKXZ @ 280 NONAME ; unsigned long eap_buf_chain_base_c::get_mem_guard_length(void)
	?eap_write_u16_t_little_endian_order@@YA?AW4eap_status_e@@PAXKG@Z @ 281 NONAME ; enum eap_status_e eap_write_u16_t_little_endian_order(void *, unsigned long, unsigned short)
	?trace@EAPSettings@@QBEXXZ @ 282 NONAME ; void EAPSettings::trace(void) const
	?read_parameter_data@eap_process_tlv_message_data_c@@QAE?AW4eap_status_e@@PBV?$eap_array_c@Veap_tlv_header_c@@@@KPAG@Z @ 283 NONAME ; enum eap_status_e eap_process_tlv_message_data_c::read_parameter_data(class eap_array_c<class eap_tlv_header_c> const *, unsigned long, unsigned short *)
	?read_parameter_data@eap_process_tlv_message_data_c@@QAE?AW4eap_status_e@@PBV?$eap_array_c@Veap_tlv_header_c@@@@KPAW4eapol_RSNA_cipher_e@eapol_RSNA_key_header_c@@@Z @ 284 NONAME ; enum eap_status_e eap_process_tlv_message_data_c::read_parameter_data(class eap_array_c<class eap_tlv_header_c> const *, unsigned long, enum eapol_RSNA_key_header_c::eapol_RSNA_cipher_e *)
	??1crypto_3des_ede_c@@UAE@XZ @ 285 NONAME ; crypto_3des_ede_c::~crypto_3des_ede_c(void)
	?get_saved_eap_identity@eap_core_c@@UAE?AW4eap_status_e@@PAVeap_variable_data_c@@@Z @ 286 NONAME ; enum eap_status_e eap_core_c::get_saved_eap_identity(class eap_variable_data_c *)
	?convert_ascii_to_uppercase@eap_am_tools_c@@UAE?AW4eap_status_e@@PAEK@Z @ 287 NONAME ; enum eap_status_e eap_am_tools_c::convert_ascii_to_uppercase(unsigned char *, unsigned long)
	?get_subsection@eap_config_value_c@@QAEPAV?$eap_core_map_c@Veap_config_value_c@@Vabs_eap_core_map_c@@Veap_variable_data_c@@@@XZ @ 288 NONAME ; class eap_core_map_c<class eap_config_value_c, class abs_eap_core_map_c, class eap_variable_data_c> * eap_config_value_c::get_subsection(void)
	?decrypt_with_private_key@crypto_rsa_c@@QAE?AW4eap_status_e@@PBVeap_variable_data_c@@0PAV3@@Z @ 289 NONAME ; enum eap_status_e crypto_rsa_c::decrypt_with_private_key(class eap_variable_data_c const *, class eap_variable_data_c const *, class eap_variable_data_c *)
	?GetSerialNumber@EapCertificateEntry@@QBEPBVTDes16@@XZ @ 290 NONAME ; class TDes16 const * EapCertificateEntry::GetSerialNumber(void) const
	?tls_prf_output@crypto_tls_prf_c@@QAE?AW4eap_status_e@@PAXK@Z @ 291 NONAME ; enum eap_status_e crypto_tls_prf_c::tls_prf_output(void *, unsigned long)
	?get_is_writable@eap_variable_data_c@@QBE_NXZ @ 292 NONAME ; bool eap_variable_data_c::get_is_writable(void) const
	?GetVendorId@TEapExpandedType@@QBEIXZ @ 293 NONAME ; unsigned int TEapExpandedType::GetVendorId(void) const
	?convert_eap_type_to_u64_t@@YA_KVeap_expanded_type_c@@@Z @ 294 NONAME ; unsigned long long convert_eap_type_to_u64_t(class eap_expanded_type_c)
	?hash_cleanup@crypto_sha_256_c@@UAE?AW4eap_status_e@@XZ @ 295 NONAME ; enum eap_status_e crypto_sha_256_c::hash_cleanup(void)
	?get_vendor_type@eap_expanded_type_c@@QBEKXZ @ 296 NONAME ; unsigned long eap_expanded_type_c::get_vendor_type(void) const
	?get_expanded_ietf_type_offset@eap_header_base_c@@SAKXZ @ 297 NONAME ; unsigned long eap_header_base_c::get_expanded_ietf_type_offset(void)
	?get_data@eap_variable_data_c@@QBEPAEK@Z @ 298 NONAME ; unsigned char * eap_variable_data_c::get_data(unsigned long) const
	?dublicate_mutex@eap_am_mutex_symbian_c@@UAEPAVabs_eap_am_mutex_c@@XZ @ 299 NONAME ; class abs_eap_am_mutex_c * eap_am_mutex_symbian_c::dublicate_mutex(void)
	?update_non_aligned@crypto_cbc_c@@UAE?AW4eap_status_e@@PBXPAXK@Z @ 300 NONAME ; enum eap_status_e crypto_cbc_c::update_non_aligned(void const *, void *, unsigned long)
	?hmac_cleanup@crypto_hmac_c@@UAE?AW4eap_status_e@@XZ @ 301 NONAME ; enum eap_status_e crypto_hmac_c::hmac_cleanup(void)
	?get_payload_size@eap_process_tlv_message_data_c@@QBEKPBVeapol_session_key_c@@@Z @ 302 NONAME ; unsigned long eap_process_tlv_message_data_c::get_payload_size(class eapol_session_key_c const *) const
	?set_copy@eap_master_session_key_c@@QAE?AW4eap_status_e@@PBV1@@Z @ 303 NONAME ; enum eap_status_e eap_master_session_key_c::set_copy(class eap_master_session_key_c const *)
	?hash_init@eap_am_crypto_sha_256_c@@QAE?AW4eap_status_e@@XZ @ 304 NONAME ; enum eap_status_e eap_am_crypto_sha_256_c::hash_init(void)
	?get_send_network_id@eap_core_retransmission_c@@QAEPAVeap_am_network_id_c@@XZ @ 305 NONAME ; class eap_am_network_id_c * eap_core_retransmission_c::get_send_network_id(void)
	??0eap_session_core_c@@QAE@PAVabs_eap_am_tools_c@@PAVabs_eap_session_core_c@@_N@Z @ 306 NONAME ; eap_session_core_c::eap_session_core_c(class abs_eap_am_tools_c *, class abs_eap_session_core_c *, bool)
	?read_parameter_data@eap_process_tlv_message_data_c@@QAE?AW4eap_status_e@@PBV?$eap_array_c@Veap_tlv_header_c@@@@KPAW4simple_config_Authentication_Type_e@@@Z @ 307 NONAME ; enum eap_status_e eap_process_tlv_message_data_c::read_parameter_data(class eap_array_c<class eap_tlv_header_c> const *, unsigned long, enum simple_config_Authentication_Type_e *)
	?ConvertInternalTypeToCipherSuites@CEapConversion@@SAHPAVabs_eap_am_tools_c@@PBV?$eap_array_c@G@@PAV?$RArray@I@@@Z @ 308 NONAME ; int CEapConversion::ConvertInternalTypeToCipherSuites(class abs_eap_am_tools_c *, class eap_array_c<unsigned short> const *, class RArray<unsigned int> *)
	?get_is_valid@eapol_session_key_c@@QBE_NXZ @ 309 NONAME ; bool eapol_session_key_c::get_is_valid(void) const
	?get_ietf_type_field_length@eap_header_base_c@@SAKXZ @ 310 NONAME ; unsigned long eap_header_base_c::get_ietf_type_field_length(void)
	?rsa_encrypt_with_private_key@eap_am_crypto_symbian_c@@UAE?AW4eap_status_e@@PAVeap_variable_data_c@@PBV3@10@Z @ 311 NONAME ; enum eap_status_e eap_am_crypto_symbian_c::rsa_encrypt_with_private_key(class eap_variable_data_c *, class eap_variable_data_c const *, class eap_variable_data_c const *, class eap_variable_data_c *)
	?get_payload_size@eap_process_tlv_message_data_c@@QBEKPBV?$eap_array_c@Veap_expanded_type_c@@@@@Z @ 312 NONAME ; unsigned long eap_process_tlv_message_data_c::get_payload_size(class eap_array_c<class eap_expanded_type_c> const *) const
	??0crypto_sha_256_c@@QAE@PAVabs_eap_am_tools_c@@@Z @ 313 NONAME ; crypto_sha_256_c::crypto_sha_256_c(class abs_eap_am_tools_c *)
	??0eap_buf_chain_base_c@@QAE@W4eap_write_buffer_e@@PAVabs_eap_am_tools_c@@K@Z @ 314 NONAME ; eap_buf_chain_base_c::eap_buf_chain_base_c(enum eap_write_buffer_e, class abs_eap_am_tools_c *, unsigned long)
	?eap_read_u64_t_little_endian_order@@YA_KPBXK@Z @ 315 NONAME ; unsigned long long eap_read_u64_t_little_endian_order(void const *, unsigned long)
	?decrypt_data@crypto_cbc_c@@UAE?AW4eap_status_e@@PAXK@Z @ 316 NONAME ; enum eap_status_e crypto_cbc_c::decrypt_data(void *, unsigned long)
	?get_is_valid@crypto_wpa_psk_password_hash_c@@QAE_NXZ @ 317 NONAME ; bool crypto_wpa_psk_password_hash_c::get_is_valid(void)
	??1crypto_aes_wrap_c@@UAE@XZ @ 318 NONAME ; crypto_aes_wrap_c::~crypto_aes_wrap_c(void)
	?add_parameter_data@eap_process_tlv_message_data_c@@QAE?AW4eap_status_e@@D@Z @ 319 NONAME ; enum eap_status_e eap_process_tlv_message_data_c::add_parameter_data(char)
	?get_status_string@eap_status_string_c@@SAPBDW4eap_status_e@@@Z @ 320 NONAME ; char const * eap_status_string_c::get_status_string(enum eap_status_e)
	?get_is_valid@crypto_md5_c@@UAE_NXZ @ 321 NONAME ; bool crypto_md5_c::get_is_valid(void)
	?get_timer_queue_is_empty@eap_am_tools_symbian_c@@UAE_NXZ @ 322 NONAME ; bool eap_am_tools_symbian_c::get_timer_queue_is_empty(void)
	?compare_u64@eap_am_tools_c@@UAEJ_K0@Z @ 323 NONAME ; long eap_am_tools_c::compare_u64(unsigned long long, unsigned long long)
	?enter_crypto_cs@eap_am_tools_symbian_c@@QAEXXZ @ 324 NONAME ; void eap_am_tools_symbian_c::enter_crypto_cs(void)
	??0crypto_nt_hash_c@@QAE@PAVabs_eap_am_tools_c@@@Z @ 325 NONAME ; crypto_nt_hash_c::crypto_nt_hash_c(class abs_eap_am_tools_c *)
	?md5_final@eap_am_crypto_symbian_c@@UAE?AW4eap_status_e@@PAVeap_variable_data_c@@PAEPAK@Z @ 326 NONAME ; enum eap_status_e eap_am_crypto_symbian_c::md5_final(class eap_variable_data_c *, unsigned char *, unsigned long *)
	??0crypto_tls_md5_prf_c@@QAE@PAVabs_eap_am_tools_c@@@Z @ 327 NONAME ; crypto_tls_md5_prf_c::crypto_tls_md5_prf_c(class abs_eap_am_tools_c *)
	?object_increase_reference_count@eap_am_memory_store_tlv_data_c@@QAEXXZ @ 328 NONAME ; void eap_am_memory_store_tlv_data_c::object_increase_reference_count(void)
	?get_gmt_unix_time@eap_am_tools_symbian_c@@UAEKXZ @ 329 NONAME ; unsigned long eap_am_tools_symbian_c::get_gmt_unix_time(void)
	?cleanup@eap_am_crypto_rc4_c@@AAE?AW4eap_status_e@@XZ @ 330 NONAME ; enum eap_status_e eap_am_crypto_rc4_c::cleanup(void)
	?file_copy@eap_am_file_input_symbian_c@@UAE?AW4eap_status_e@@PBVeap_variable_data_c@@0@Z @ 331 NONAME ; enum eap_status_e eap_am_file_input_symbian_c::file_copy(class eap_variable_data_c const *, class eap_variable_data_c const *)
	??1eap_am_crypto_symbian_c@@UAE@XZ @ 332 NONAME ; eap_am_crypto_symbian_c::~eap_am_crypto_symbian_c(void)
	?get_use_seconds_timestamp_in_traces@eap_am_tools_c@@QAE_NXZ @ 333 NONAME ; bool eap_am_tools_c::get_use_seconds_timestamp_in_traces(void)
	?get_master_key@crypto_nt_hash_c@@QAE?AW4eap_status_e@@PBVeap_variable_data_c@@0PAV3@K@Z @ 334 NONAME ; enum eap_status_e crypto_nt_hash_c::get_master_key(class eap_variable_data_c const *, class eap_variable_data_c const *, class eap_variable_data_c *, unsigned long)
	?packet_data_crypto_keys@eap_core_c@@UAE?AW4eap_status_e@@PBVeap_am_network_id_c@@PBVeap_master_session_key_c@@@Z @ 335 NONAME ; enum eap_status_e eap_core_c::packet_data_crypto_keys(class eap_am_network_id_c const *, class eap_master_session_key_c const *)
	?get_protocol_layer_string@eap_state_notification_c@@SAPBDK@Z @ 336 NONAME ; char const * eap_state_notification_c::get_protocol_layer_string(unsigned long)
	?SetSecondaryName@EapCertificateEntry@@QAEHABV?$TBuf@$0EA@@@@Z @ 337 NONAME ; int EapCertificateEntry::SetSecondaryName(class TBuf<64> const &)
	?get_MAC_address@simple_config_credential_c@@QAEPAVeap_variable_data_c@@XZ @ 338 NONAME ; class eap_variable_data_c * simple_config_credential_c::get_MAC_address(void)
	?decrypt_data@crypto_rc4_c@@UAE?AW4eap_status_e@@PAXK@Z @ 339 NONAME ; enum eap_status_e crypto_rc4_c::decrypt_data(void *, unsigned long)
	?add_rand_seed_hw_ticks@crypto_random_c@@QAE?AW4eap_status_e@@XZ @ 340 NONAME ; enum eap_status_e crypto_random_c::add_rand_seed_hw_ticks(void)
	?get_is_valid@eap_config_value_c@@QBE_NXZ @ 341 NONAME ; bool eap_config_value_c::get_is_valid(void) const
	?set_is_valid@eap_am_crypto_symbian_c@@UAEXXZ @ 342 NONAME ; void eap_am_crypto_symbian_c::set_is_valid(void)
	?set_buffer_length@eap_buf_chain_base_c@@QAE?AW4eap_status_e@@K@Z @ 343 NONAME ; enum eap_status_e eap_buf_chain_base_c::set_buffer_length(unsigned long)
	?set_is_valid@crypto_hmac_c@@UAEXXZ @ 344 NONAME ; void crypto_hmac_c::set_is_valid(void)
	??4TEapExpandedType@@QAEAAV0@ABVTDesC8@@@Z @ 345 NONAME ; class TEapExpandedType & TEapExpandedType::operator=(class TDesC8 const &)
	?get_previous_state@eap_state_notification_c@@UBEKXZ @ 346 NONAME ; unsigned long eap_state_notification_c::get_previous_state(void) const
	?packet_send@eap_core_c@@UAE?AW4eap_status_e@@PBVeap_am_network_id_c@@PAVeap_buf_chain_wr_c@@KKK@Z @ 347 NONAME ; enum eap_status_e eap_core_c::packet_send(class eap_am_network_id_c const *, class eap_buf_chain_wr_c *, unsigned long, unsigned long, unsigned long)
	?get_md5_block_size@eap_am_crypto_symbian_c@@UAEKPAVeap_variable_data_c@@@Z @ 348 NONAME ; unsigned long eap_am_crypto_symbian_c::get_md5_block_size(class eap_variable_data_c *)
	??0eap_buf_chain_wr_c@@QAE@W4eap_write_buffer_e@@PAVabs_eap_am_tools_c@@PAEK_N3K@Z @ 349 NONAME ; eap_buf_chain_wr_c::eap_buf_chain_wr_c(enum eap_write_buffer_e, class abs_eap_am_tools_c *, unsigned char *, unsigned long, bool, bool, unsigned long)
	??1eap_core_retransmission_c@@UAE@XZ @ 350 NONAME ; eap_core_retransmission_c::~eap_core_retransmission_c(void)
	??1eap_tlv_message_data_c@@UAE@XZ @ 351 NONAME ; eap_tlv_message_data_c::~eap_tlv_message_data_c(void)
	?hash_init@crypto_md4_c@@UAE?AW4eap_status_e@@XZ @ 352 NONAME ; enum eap_status_e crypto_md4_c::hash_init(void)
	?encrypt_data@eap_am_crypto_rc4_c@@QAE?AW4eap_status_e@@PBXPAXK@Z @ 353 NONAME ; enum eap_status_e eap_am_crypto_rc4_c::encrypt_data(void const *, void *, unsigned long)
	?add_data@eap_variable_data_c@@QAE?AW4eap_status_e@@PBV1@@Z @ 354 NONAME ; enum eap_status_e eap_variable_data_c::add_data(class eap_variable_data_c const *)
	?configure@eap_session_core_c@@UAE?AW4eap_status_e@@XZ @ 355 NONAME ; enum eap_status_e eap_session_core_c::configure(void)
	?get_destination_length@eap_am_network_id_c@@QBEKXZ @ 356 NONAME ; unsigned long eap_am_network_id_c::get_destination_length(void) const
	?tls_prf_init@crypto_tls_md5_prf_c@@QAE?AW4eap_status_e@@PBVeap_variable_data_c@@00@Z @ 357 NONAME ; enum eap_status_e crypto_tls_md5_prf_c::tls_prf_init(class eap_variable_data_c const *, class eap_variable_data_c const *, class eap_variable_data_c const *)
	?get_timer_id@eap_am_memory_store_tlv_data_c@@QBEKXZ @ 358 NONAME ; unsigned long eap_am_memory_store_tlv_data_c::get_timer_id(void) const
	??9eap_expanded_type_c@@QBE_NABV0@@Z @ 359 NONAME ; bool eap_expanded_type_c::operator!=(class eap_expanded_type_c const &) const
	?eap_acknowledge@eap_core_c@@QAE?AW4eap_status_e@@PBVeap_am_network_id_c@@@Z @ 360 NONAME ; enum eap_status_e eap_core_c::eap_acknowledge(class eap_am_network_id_c const *)
	?md4_init@eap_am_crypto_symbian_c@@UAE?AW4eap_status_e@@PAVeap_variable_data_c@@@Z @ 361 NONAME ; enum eap_status_e eap_am_crypto_symbian_c::md4_init(class eap_variable_data_c *)
	?get_is_tunneled_eap@eap_core_c@@UBE_NXZ @ 362 NONAME ; bool eap_core_c::get_is_tunneled_eap(void) const
	??1crypto_tls_base_prf_c@@UAE@XZ @ 363 NONAME ; crypto_tls_base_prf_c::~crypto_tls_base_prf_c(void)
	?octet_to_ascii@eap_am_tools_c@@UAEEJ@Z @ 364 NONAME ; unsigned char eap_am_tools_c::octet_to_ascii(long)
	?get_is_valid_data@eap_buf_chain_base_c@@QBE_NXZ @ 365 NONAME ; bool eap_buf_chain_base_c::get_is_valid_data(void) const
	??0eap_buf_chain_rd_c@@QAE@W4eap_read_buffer_e@@PAVabs_eap_am_tools_c@@K@Z @ 366 NONAME ; eap_buf_chain_rd_c::eap_buf_chain_rd_c(enum eap_read_buffer_e, class abs_eap_am_tools_c *, unsigned long)
	?get_const_type@eap_config_value_c@@QBE?AW4eap_configure_type_e@@XZ @ 367 NONAME ; enum eap_configure_type_e eap_config_value_c::get_const_type(void) const
	?get_is_valid@eap_am_crypto_md4_c@@QAE_NXZ @ 368 NONAME ; bool eap_am_crypto_md4_c::get_is_valid(void)
	?get_next_retransmission_counter@eap_core_retransmission_c@@QAEKXZ @ 369 NONAME ; unsigned long eap_core_retransmission_c::get_next_retransmission_counter(void)
	?hash_final@crypto_md5_c@@UAE?AW4eap_status_e@@PAXPAK@Z @ 370 NONAME ; enum eap_status_e crypto_md5_c::hash_final(void *, unsigned long *)
	?dh_cleanup@crypto_ephemeral_diffie_hellman_c@@QAE?AW4eap_status_e@@PBVeap_variable_data_c@@@Z @ 371 NONAME ; enum eap_status_e crypto_ephemeral_diffie_hellman_c::dh_cleanup(class eap_variable_data_c const *)
	?send_eap_failure@eap_core_c@@QAE?AW4eap_status_e@@PBVeap_am_network_id_c@@E@Z @ 372 NONAME ; enum eap_status_e eap_core_c::send_eap_failure(class eap_am_network_id_c const *, unsigned char)
	?set_sequence_number@eapol_session_key_c@@QAE?AW4eap_status_e@@PAVeap_variable_data_c@@@Z @ 373 NONAME ; enum eap_status_e eapol_session_key_c::set_sequence_number(class eap_variable_data_c *)
	?get_is_valid@eap_expanded_type_c@@QBE_NXZ @ 374 NONAME ; bool eap_expanded_type_c::get_is_valid(void) const
	?get_send_packet_index@eap_buf_chain_base_c@@QAEKXZ @ 375 NONAME ; unsigned long eap_buf_chain_base_c::get_send_packet_index(void)
	?packet_send@eap_session_core_c@@UAE?AW4eap_status_e@@PBVeap_am_network_id_c@@PAVeap_buf_chain_wr_c@@KKK@Z @ 376 NONAME ; enum eap_status_e eap_session_core_c::packet_send(class eap_am_network_id_c const *, class eap_buf_chain_wr_c *, unsigned long, unsigned long, unsigned long)
	?get_state_string@eap_state_notification_c@@SAPBDKK@Z @ 377 NONAME ; char const * eap_state_notification_c::get_state_string(unsigned long, unsigned long)
	?copy_context@eap_am_crypto_md4_c@@AAE?AW4eap_status_e@@PBVeap_variable_data_c@@_KPBK2@Z @ 378 NONAME ; enum eap_status_e eap_am_crypto_md4_c::copy_context(class eap_variable_data_c const *, unsigned long long, unsigned long const *, unsigned long const *)
	?initialize_pad@crypto_hmac_c@@AAE?AW4eap_status_e@@PAVeap_variable_data_c@@E@Z @ 379 NONAME ; enum eap_status_e crypto_hmac_c::initialize_pad(class eap_variable_data_c *, unsigned char)
	?sha_256_cleanup@eap_am_crypto_symbian_c@@UAE?AW4eap_status_e@@PAVeap_variable_data_c@@@Z @ 380 NONAME ; enum eap_status_e eap_am_crypto_symbian_c::sha_256_cleanup(class eap_variable_data_c *)
	??1EapMessageQueue@@UAE@XZ @ 381 NONAME ; EapMessageQueue::~EapMessageQueue(void)
	?aligned_data_length@crypto_cbc_c@@UAEKK@Z @ 382 NONAME ; unsigned long crypto_cbc_c::aligned_data_length(unsigned long)
	?reset_start_offset_and_data_length@eap_variable_data_c@@QAE?AW4eap_status_e@@XZ @ 383 NONAME ; enum eap_status_e eap_variable_data_c::reset_start_offset_and_data_length(void)
	?begin_db_transaction@eap_am_tools_symbian_c@@QAE?AW4eap_status_e@@AAVRDbNamedDatabase@@@Z @ 384 NONAME ; enum eap_status_e eap_am_tools_symbian_c::begin_db_transaction(class RDbNamedDatabase &)
	?eap_shift_left_64_bit@@YA_K_KK@Z @ 385 NONAME ; unsigned long long eap_shift_left_64_bit(unsigned long long, unsigned long)
	?trace_configuration@eap_am_tools_c@@UAEXW4eap_status_e@@PBVeap_configuration_field_c@@PBVeap_variable_data_c@@@Z @ 386 NONAME ; void eap_am_tools_c::trace_configuration(enum eap_status_e, class eap_configuration_field_c const *, class eap_variable_data_c const *)
	?get_identifier@eap_header_base_c@@QBEEXZ @ 387 NONAME ; unsigned char eap_header_base_c::get_identifier(void) const
	?configure@eap_am_tools_symbian_c@@UAE?AW4eap_status_e@@XZ @ 388 NONAME ; enum eap_status_e eap_am_tools_symbian_c::configure(void)
	?ConvertEAPTypesToInternalTypes@CEapConversion@@SAHPAVabs_eap_am_tools_c@@PBV?$RArray@I@@PAV?$eap_array_c@Veap_expanded_type_c@@@@@Z @ 389 NONAME ; int CEapConversion::ConvertEAPTypesToInternalTypes(class abs_eap_am_tools_c *, class RArray<unsigned int> const *, class eap_array_c<class eap_expanded_type_c> *)
	?copy_message_digest@eap_am_crypto_sha_256_c@@AAE?AW4eap_status_e@@PAXPAK@Z @ 390 NONAME ; enum eap_status_e eap_am_crypto_sha_256_c::copy_message_digest(void *, unsigned long *)
	?get_data_length@eapol_header_base_c@@QBEGXZ @ 391 NONAME ; unsigned short eapol_header_base_c::get_data_length(void) const
	?get_block_size@eap_am_crypto_sha_256_c@@QAEKXZ @ 392 NONAME ; unsigned long eap_am_crypto_sha_256_c::get_block_size(void)
	?object_increase_reference_count@eap_base_type_c@@QAEXXZ @ 393 NONAME ; void eap_base_type_c::object_increase_reference_count(void)
	?file_exists@eap_am_file_input_symbian_c@@UAE?AW4eap_status_e@@PBVeap_variable_data_c@@@Z @ 394 NONAME ; enum eap_status_e eap_am_file_input_symbian_c::file_exists(class eap_variable_data_c const *)
	??0eap_buf_chain_base_c@@QAE@W4eap_read_buffer_e@@PAVabs_eap_am_tools_c@@PBEK_N@Z @ 395 NONAME ; eap_buf_chain_base_c::eap_buf_chain_base_c(enum eap_read_buffer_e, class abs_eap_am_tools_c *, unsigned char const *, unsigned long, bool)
	?get_do_length_checks@eap_buf_chain_base_c@@QBE_NXZ @ 396 NONAME ; bool eap_buf_chain_base_c::get_do_length_checks(void) const
	?get_key_type@eapol_session_key_c@@QBE?AW4eapol_key_type_e@@XZ @ 397 NONAME ; enum eapol_key_type_e eapol_session_key_c::get_key_type(void) const
	??1eap_file_config_c@@UAE@XZ @ 398 NONAME ; eap_file_config_c::~eap_file_config_c(void)
	?trace_data@eap_am_tools_c@@UAEXPBDPBXK@Z @ 399 NONAME ; void eap_am_tools_c::trace_data(char const *, void const *, unsigned long)
	?object_increase_reference_count@eap_tlv_message_data_c@@QAEXXZ @ 400 NONAME ; void eap_tlv_message_data_c::object_increase_reference_count(void)
	?hash_final@eap_am_crypto_sha_256_c@@QAE?AW4eap_status_e@@PAXPAK@Z @ 401 NONAME ; enum eap_status_e eap_am_crypto_sha_256_c::hash_final(void *, unsigned long *)
	?set_use_eap_milli_second_timer@eap_am_tools_symbian_c@@UAEX_N@Z @ 402 NONAME ; void eap_am_tools_symbian_c::set_use_eap_milli_second_timer(bool)
	?restart_authentication@eap_core_c@@UAE?AW4eap_status_e@@PBVeap_am_network_id_c@@_N@Z @ 403 NONAME ; enum eap_status_e eap_core_c::restart_authentication(class eap_am_network_id_c const *, bool)
	?get_is_valid_data@eap_am_network_id_c@@QBE_NXZ @ 404 NONAME ; bool eap_am_network_id_c::get_is_valid_data(void) const
	?set_is_manipulated@eap_buf_chain_base_c@@QAEXXZ @ 405 NONAME ; void eap_buf_chain_base_c::set_is_manipulated(void)
	?GetSerialNumberPresent@EapCertificateEntry@@QBEHXZ @ 406 NONAME ; int EapCertificateEntry::GetSerialNumberPresent(void) const
	?dh_cleanup@eap_am_crypto_symbian_c@@UAE?AW4eap_status_e@@PBVeap_variable_data_c@@@Z @ 407 NONAME ; enum eap_status_e eap_am_crypto_symbian_c::dh_cleanup(class eap_variable_data_c const *)
	?hash_cleanup@eap_am_crypto_sha_256_c@@AAE?AW4eap_status_e@@XZ @ 408 NONAME ; enum eap_status_e eap_am_crypto_sha_256_c::hash_cleanup(void)
	?get_data@eap_variable_data_c@@QBEPAEXZ @ 409 NONAME ; unsigned char * eap_variable_data_c::get_data(void) const
	?get_mac_address@eap_rogue_ap_entry_c@@QBEPAEPAE@Z @ 410 NONAME ; unsigned char * eap_rogue_ap_entry_c::get_mac_address(unsigned char *) const
	?set_is_valid@eap_core_c@@UAEXXZ @ 411 NONAME ; void eap_core_c::set_is_valid(void)
	?get_sha1_block_size@eap_am_crypto_symbian_c@@UAEKPAVeap_variable_data_c@@@Z @ 412 NONAME ; unsigned long eap_am_crypto_symbian_c::get_sha1_block_size(class eap_variable_data_c *)
	?get_parameter_data@eap_process_tlv_message_data_c@@QAE?AW4eap_status_e@@PBVeap_tlv_header_c@@PAD@Z @ 413 NONAME ; enum eap_status_e eap_process_tlv_message_data_c::get_parameter_data(class eap_tlv_header_c const *, char *)
	?get_eapol_header@eapol_ethernet_header_rd_c@@QBEPAEXZ @ 414 NONAME ; unsigned char * eapol_ethernet_header_rd_c::get_eapol_header(void) const
	?decrypt_data@eap_am_crypto_rc4_c@@QAE?AW4eap_status_e@@PBXPAXK@Z @ 415 NONAME ; enum eap_status_e eap_am_crypto_rc4_c::decrypt_data(void const *, void *, unsigned long)
	?eap_read_u16_t_network_order@@YAGPBXK@Z @ 416 NONAME ; unsigned short eap_read_u16_t_network_order(void const *, unsigned long)
	?rsa_sign@eap_am_crypto_symbian_c@@UAE?AW4eap_status_e@@PAVeap_variable_data_c@@PBV3@10@Z @ 417 NONAME ; enum eap_status_e eap_am_crypto_symbian_c::rsa_sign(class eap_variable_data_c *, class eap_variable_data_c const *, class eap_variable_data_c const *, class eap_variable_data_c *)
	?add_padding_bytes@crypto_aes_wrap_c@@QAE?AW4eap_status_e@@PAXK@Z @ 418 NONAME ; enum eap_status_e crypto_aes_wrap_c::add_padding_bytes(void *, unsigned long)
	?check_header@eapol_header_base_c@@UBE?AW4eap_status_e@@XZ @ 419 NONAME ; enum eap_status_e eapol_header_base_c::check_header(void) const
	?read_parameter_data@eap_process_tlv_message_data_c@@QAE?AW4eap_status_e@@PBV?$eap_array_c@Veap_tlv_header_c@@@@KPAW4eapol_key_802_11_authentication_mode_e@@@Z @ 420 NONAME ; enum eap_status_e eap_process_tlv_message_data_c::read_parameter_data(class eap_array_c<class eap_tlv_header_c> const *, unsigned long, enum eapol_key_802_11_authentication_mode_e *)
	?send_eap_identity_response@eap_core_c@@AAE?AW4eap_status_e@@PBVeap_am_network_id_c@@PBVeap_variable_data_c@@E@Z @ 421 NONAME ; enum eap_status_e eap_core_c::send_eap_identity_response(class eap_am_network_id_c const *, class eap_variable_data_c const *, unsigned char)
	?add_parameter_data@eap_process_tlv_message_data_c@@QAE?AW4eap_status_e@@_N@Z @ 422 NONAME ; enum eap_status_e eap_process_tlv_message_data_c::add_parameter_data(bool)
	?get_timer_resolution_ms@eap_am_tools_symbian_c@@UAEKXZ @ 423 NONAME ; unsigned long eap_am_tools_symbian_c::get_timer_resolution_ms(void)
	?set_is_invalid@crypto_tls_md5_prf_c@@AAEXXZ @ 424 NONAME ; void crypto_tls_md5_prf_c::set_is_invalid(void)
	?octet_to_ascii_armor@eap_am_tools_c@@AAEEE@Z @ 425 NONAME ; unsigned char eap_am_tools_c::octet_to_ascii_armor(unsigned char)
	?set_is_valid@crypto_tls_md5_prf_c@@AAEXXZ @ 426 NONAME ; void crypto_tls_md5_prf_c::set_is_valid(void)
	?get_parameter_data@eap_process_tlv_message_data_c@@QAE?AW4eap_status_e@@PBVeap_tlv_header_c@@PAV?$eap_array_c@Veap_expanded_type_c@@@@@Z @ 427 NONAME ; enum eap_status_e eap_process_tlv_message_data_c::get_parameter_data(class eap_tlv_header_c const *, class eap_array_c<class eap_expanded_type_c> *)
	?get_is_valid@eap_am_mutex_symbian_c@@UBE_NXZ @ 428 NONAME ; bool eap_am_mutex_symbian_c::get_is_valid(void) const
	??0crypto_ephemeral_diffie_hellman_c@@QAE@PAVabs_eap_am_tools_c@@@Z @ 429 NONAME ; crypto_ephemeral_diffie_hellman_c::crypto_ephemeral_diffie_hellman_c(class abs_eap_am_tools_c *)
	?get_source@eapol_ethernet_header_wr_c@@QAEPAEXZ @ 430 NONAME ; unsigned char * eapol_ethernet_header_wr_c::get_source(void)
	?set_key@eap_am_crypto_rc4_c@@QAE?AW4eap_status_e@@PBVeap_variable_data_c@@@Z @ 431 NONAME ; enum eap_status_e eap_am_crypto_rc4_c::set_key(class eap_variable_data_c const *)
	?set_timer@eap_session_core_c@@UAE?AW4eap_status_e@@PAVabs_eap_base_timer_c@@KPAXK@Z @ 432 NONAME ; enum eap_status_e eap_session_core_c::set_timer(class abs_eap_base_timer_c *, unsigned long, void *, unsigned long)
	??1crypto_random_c@@UAE@XZ @ 433 NONAME ; crypto_random_c::~crypto_random_c(void)
	??1eap_am_mutex_symbian_c@@UAE@XZ @ 434 NONAME ; eap_am_mutex_symbian_c::~eap_am_mutex_symbian_c(void)
	?read_configure@eap_file_config_c@@QAE?AW4eap_status_e@@PBVeap_configuration_field_c@@PAVeap_variable_data_c@@@Z @ 435 NONAME ; enum eap_status_e eap_file_config_c::read_configure(class eap_configuration_field_c const *, class eap_variable_data_c *)
	?delete_abs_eap_am_tools_c@abs_eap_am_tools_c@@SAXPAV1@@Z @ 436 NONAME ; void abs_eap_am_tools_c::delete_abs_eap_am_tools_c(class abs_eap_am_tools_c *)
	?get_clock_ticks_of_second@eap_am_tools_symbian_c@@UAE_KXZ @ 437 NONAME ; unsigned long long eap_am_tools_symbian_c::get_clock_ticks_of_second(void)
	??0crypto_md4_c@@QAE@PAVabs_eap_am_tools_c@@@Z @ 438 NONAME ; crypto_md4_c::crypto_md4_c(class abs_eap_am_tools_c *)
	?set_packet_type@eapol_header_base_c@@QAEXW4eapol_packet_type_e@@@Z @ 439 NONAME ; void eapol_header_base_c::set_packet_type(enum eapol_packet_type_e)
	?get_parameter_data@eap_process_tlv_message_data_c@@QAE?AW4eap_status_e@@PBVeap_tlv_header_c@@PAVeap_variable_data_c@@@Z @ 440 NONAME ; enum eap_status_e eap_process_tlv_message_data_c::get_parameter_data(class eap_tlv_header_c const *, class eap_variable_data_c *)
	?get_header_length@eap_header_base_c@@SAKXZ @ 441 NONAME ; unsigned long eap_header_base_c::get_header_length(void)
	?rc4_cleanup@eap_am_crypto_symbian_c@@UAE?AW4eap_status_e@@PAVeap_variable_data_c@@@Z @ 442 NONAME ; enum eap_status_e eap_am_crypto_symbian_c::rc4_cleanup(class eap_variable_data_c *)
	?AddMessage@EapMessageQueue@@QAEHW4TEapRequests@@PBXI@Z @ 443 NONAME ; int EapMessageQueue::AddMessage(enum TEapRequests, void const *, unsigned int)
	??0eap_am_mutex_reference_c@@QAE@XZ @ 444 NONAME ; eap_am_mutex_reference_c::eap_am_mutex_reference_c(void)
	?add_parameter_data@eap_process_tlv_message_data_c@@QAE?AW4eap_status_e@@F@Z @ 445 NONAME ; enum eap_status_e eap_process_tlv_message_data_c::add_parameter_data(short)
	??Ieap_expanded_type_c@@QBEPBV0@XZ @ 446 NONAME ; class eap_expanded_type_c const * eap_expanded_type_c::operator&(void) const
	?get_expanded_type_field_length@eap_header_base_c@@SAKXZ @ 447 NONAME ; unsigned long eap_header_base_c::get_expanded_type_field_length(void)
	?sha1_cleanup@eap_am_crypto_symbian_c@@UAE?AW4eap_status_e@@PAVeap_variable_data_c@@@Z @ 448 NONAME ; enum eap_status_e eap_am_crypto_symbian_c::sha1_cleanup(class eap_variable_data_c *)
	?dsa_sign@eap_am_crypto_symbian_c@@UAE?AW4eap_status_e@@PAVeap_variable_data_c@@PBV3@10@Z @ 449 NONAME ; enum eap_status_e eap_am_crypto_symbian_c::dsa_sign(class eap_variable_data_c *, class eap_variable_data_c const *, class eap_variable_data_c const *, class eap_variable_data_c *)
	?get_retransmission_counter@eap_core_retransmission_c@@QBEKXZ @ 450 NONAME ; unsigned long eap_core_retransmission_c::get_retransmission_counter(void) const
	?get_header_length@eapol_ethernet_header_base_c@@SAGXZ @ 451 NONAME ; unsigned short eapol_ethernet_header_base_c::get_header_length(void)
	?read_parameter_data@eap_process_tlv_message_data_c@@QAE?AW4eap_status_e@@PBV?$eap_array_c@Veap_tlv_header_c@@@@KPAVeap_am_network_id_c@@@Z @ 452 NONAME ; enum eap_status_e eap_process_tlv_message_data_c::read_parameter_data(class eap_array_c<class eap_tlv_header_c> const *, unsigned long, class eap_am_network_id_c *)
	?eap_write_u64_t_little_endian_order@@YA?AW4eap_status_e@@PAXK_K@Z @ 453 NONAME ; enum eap_status_e eap_write_u64_t_little_endian_order(void *, unsigned long, unsigned long long)
	?set_eap_type@eap_master_session_key_c@@QAEXVeap_expanded_type_c@@@Z @ 454 NONAME ; void eap_master_session_key_c::set_eap_type(class eap_expanded_type_c)
	?check_guards@eap_buf_chain_base_c@@QBE_NXZ @ 455 NONAME ; bool eap_buf_chain_base_c::check_guards(void) const
	?read_parameter_data@eap_process_tlv_message_data_c@@QAE?AW4eap_status_e@@PBV?$eap_array_c@Veap_tlv_header_c@@@@KPAVeap_method_settings_c@@@Z @ 456 NONAME ; enum eap_status_e eap_process_tlv_message_data_c::read_parameter_data(class eap_array_c<class eap_tlv_header_c> const *, unsigned long, class eap_method_settings_c *)
	??1eap_am_tools_symbian_c@@UAE@XZ @ 457 NONAME ; eap_am_tools_symbian_c::~eap_am_tools_symbian_c(void)
	?set_type@eap_tlv_header_c@@QAE?AW4eap_status_e@@K@Z @ 458 NONAME ; enum eap_status_e eap_tlv_header_c::set_type(unsigned long)
	?set_Authentication_Type@simple_config_credential_c@@QAEXW4simple_config_Authentication_Type_e@@@Z @ 459 NONAME ; void simple_config_credential_c::set_Authentication_Type(enum simple_config_Authentication_Type_e)
	?get_is_valid@crypto_tls_prf_c@@QAE_NXZ @ 460 NONAME ; bool crypto_tls_prf_c::get_is_valid(void)
	??0eap_rogue_ap_entry_c@@QAE@PAVabs_eap_am_tools_c@@@Z @ 461 NONAME ; eap_rogue_ap_entry_c::eap_rogue_ap_entry_c(class abs_eap_am_tools_c *)
	?get_const_data@eap_config_value_c@@QBEPBVeap_variable_data_c@@XZ @ 462 NONAME ; class eap_variable_data_c const * eap_config_value_c::get_const_data(void) const
	??0eap_tlv_message_data_c@@QAE@PAVabs_eap_am_tools_c@@@Z @ 463 NONAME ; eap_tlv_message_data_c::eap_tlv_message_data_c(class abs_eap_am_tools_c *)
	?force_inheritance@eap_buf_chain_rd_c@@EAEXXZ @ 464 NONAME ; void eap_buf_chain_rd_c::force_inheritance(void)
	?ConvertFromInternalToBuf16@CEapConversion@@SAHPAVabs_eap_am_tools_c@@PBVeap_variable_data_c@@PAVTDes16@@@Z @ 465 NONAME ; int CEapConversion::ConvertFromInternalToBuf16(class abs_eap_am_tools_c *, class eap_variable_data_c const *, class TDes16 *)
	?get_ethernet_header@eap_buf_chain_rd_c@@QBEPBEXZ @ 466 NONAME ; unsigned char const * eap_buf_chain_rd_c::get_ethernet_header(void) const
	?get_destination_id@eap_am_network_id_c@@QBEPBVeap_variable_data_c@@XZ @ 467 NONAME ; class eap_variable_data_c const * eap_am_network_id_c::get_destination_id(void) const
	??1eap_config_value_c@@UAE@XZ @ 468 NONAME ; eap_config_value_c::~eap_config_value_c(void)
	??0eap_am_network_id_c@@QAE@PAVabs_eap_am_tools_c@@PBV0@@Z @ 469 NONAME ; eap_am_network_id_c::eap_am_network_id_c(class abs_eap_am_tools_c *, class eap_am_network_id_c const *)
	?mutex_leave@eap_am_mutex_symbian_c@@UAE?AW4eap_status_e@@PAVabs_eap_am_tools_c@@@Z @ 470 NONAME ; enum eap_status_e eap_am_mutex_symbian_c::mutex_leave(class abs_eap_am_tools_c *)
	??0crypto_cbc_c@@QAE@PAVabs_eap_am_tools_c@@PAVabs_crypto_block_algorithm_c@@_N@Z @ 471 NONAME ; crypto_cbc_c::crypto_cbc_c(class abs_eap_am_tools_c *, class abs_crypto_block_algorithm_c *, bool)
	?number_string_to_u32@eap_am_tools_c@@UAE?AW4eap_status_e@@PBEKPAK@Z @ 472 NONAME ; enum eap_status_e eap_am_tools_c::number_string_to_u32(unsigned char const *, unsigned long, unsigned long *)
	?DeleteFirstMessage@EapMessageQueue@@QAEHXZ @ 473 NONAME ; int EapMessageQueue::DeleteFirstMessage(void)
	?get_type_string@eapol_header_base_c@@QBEPBDXZ @ 474 NONAME ; char const * eapol_header_base_c::get_type_string(void) const
	?get_sha1_digest_length@eap_am_crypto_symbian_c@@UAEKPAVeap_variable_data_c@@@Z @ 475 NONAME ; unsigned long eap_am_crypto_symbian_c::get_sha1_digest_length(class eap_variable_data_c *)
	??1eap_buf_chain_base_c@@UAE@XZ @ 476 NONAME ; eap_buf_chain_base_c::~eap_buf_chain_base_c(void)
	??1eap_am_tools_c@@UAE@XZ @ 477 NONAME ; eap_am_tools_c::~eap_am_tools_c(void)
	?resend_packet@eap_core_c@@AAE?AW4eap_status_e@@PBVeap_am_network_id_c@@PAVeap_buf_chain_wr_c@@KKKK@Z @ 478 NONAME ; enum eap_status_e eap_core_c::resend_packet(class eap_am_network_id_c const *, class eap_buf_chain_wr_c *, unsigned long, unsigned long, unsigned long, unsigned long)
	?get_digest_length@crypto_hmac_c@@UAEKXZ @ 479 NONAME ; unsigned long crypto_hmac_c::get_digest_length(void)
	??0eap_buf_chain_rd_c@@QAE@W4eap_read_buffer_e@@PAVabs_eap_am_tools_c@@PBEK_N@Z @ 480 NONAME ; eap_buf_chain_rd_c::eap_buf_chain_rd_c(enum eap_read_buffer_e, class abs_eap_am_tools_c *, unsigned char const *, unsigned long, bool)
	?eap_sha1_dss_G_function@eap_am_crypto_sha1_c@@QAE?AW4eap_status_e@@PBXKPAXPAK@Z @ 481 NONAME ; enum eap_status_e eap_am_crypto_sha1_c::eap_sha1_dss_G_function(void const *, unsigned long, void *, unsigned long *)
	?send_eap_nak_response@eap_core_c@@QAE?AW4eap_status_e@@PBVeap_am_network_id_c@@EPBV?$eap_array_c@Veap_expanded_type_c@@@@@Z @ 482 NONAME ; enum eap_status_e eap_core_c::send_eap_nak_response(class eap_am_network_id_c const *, unsigned char, class eap_array_c<class eap_expanded_type_c> const *)
	?read_parameter_data@eap_process_tlv_message_data_c@@QAE?AW4eap_status_e@@PBV?$eap_array_c@Veap_tlv_header_c@@@@KPAVeap_expanded_type_c@@@Z @ 483 NONAME ; enum eap_status_e eap_process_tlv_message_data_c::read_parameter_data(class eap_array_c<class eap_tlv_header_c> const *, unsigned long, class eap_expanded_type_c *)
	?get_reference_count@eap_am_mutex_reference_c@@QAEKXZ @ 484 NONAME ; unsigned long eap_am_mutex_reference_c::get_reference_count(void)
	?SetSubjectNamePresent@EapCertificateEntry@@QAEXXZ @ 485 NONAME ; void EapCertificateEntry::SetSubjectNamePresent(void)
	??0eap_session_core_base_c@@QAE@XZ @ 486 NONAME ; eap_session_core_base_c::eap_session_core_base_c(void)
	?rsa_init@eap_am_crypto_symbian_c@@UAE?AW4eap_status_e@@PAVeap_variable_data_c@@@Z @ 487 NONAME ; enum eap_status_e eap_am_crypto_symbian_c::rsa_init(class eap_variable_data_c *)
	?convert_eap_type_to_u32_t@@YAKVeap_expanded_type_c@@@Z @ 488 NONAME ; unsigned long convert_eap_type_to_u32_t(class eap_expanded_type_c)
	?set_buffer@eap_variable_data_c@@QAE?AW4eap_status_e@@PAXK_N1@Z @ 489 NONAME ; enum eap_status_e eap_variable_data_c::set_buffer(void *, unsigned long, bool, bool)
	?update_non_aligned@crypto_cbc_c@@UAE?AW4eap_status_e@@PAXK@Z @ 490 NONAME ; enum eap_status_e crypto_cbc_c::update_non_aligned(void *, unsigned long)
	??1eapol_session_key_c@@UAE@XZ @ 491 NONAME ; eapol_session_key_c::~eapol_session_key_c(void)
	?file_close@eap_am_file_input_symbian_c@@UAE?AW4eap_status_e@@XZ @ 492 NONAME ; enum eap_status_e eap_am_file_input_symbian_c::file_close(void)
	?tls_prf_init@crypto_tls_prf_c@@QAE?AW4eap_status_e@@PBVeap_variable_data_c@@00@Z @ 493 NONAME ; enum eap_status_e crypto_tls_prf_c::tls_prf_init(class eap_variable_data_c const *, class eap_variable_data_c const *, class eap_variable_data_c const *)
	?t_prf_output@crypto_eap_fast_hmac_sha1_prf_c@@QAE?AW4eap_status_e@@PAXG@Z @ 494 NONAME ; enum eap_status_e crypto_eap_fast_hmac_sha1_prf_c::t_prf_output(void *, unsigned short)
	?hash_nt_password_hash@crypto_nt_hash_c@@QAE?AW4eap_status_e@@PBVeap_variable_data_c@@PAV3@K@Z @ 495 NONAME ; enum eap_status_e crypto_nt_hash_c::hash_nt_password_hash(class eap_variable_data_c const *, class eap_variable_data_c *, unsigned long)
	?get_encrypts@crypto_cbc_c@@UAE_NXZ @ 496 NONAME ; bool crypto_cbc_c::get_encrypts(void)
	?get_is_valid_data@network_key_and_index_c@@QAE_NXZ @ 497 NONAME ; bool network_key_and_index_c::get_is_valid_data(void)
	??1eap_type_selection_c@@UAE@XZ @ 498 NONAME ; eap_type_selection_c::~eap_type_selection_c(void)
	??0eap_am_mutex_base_c@@QAE@PBV0@@Z @ 499 NONAME ; eap_am_mutex_base_c::eap_am_mutex_base_c(class eap_am_mutex_base_c const *)
	??1eap_rogue_ap_entry_c@@UAE@XZ @ 500 NONAME ; eap_rogue_ap_entry_c::~eap_rogue_ap_entry_c(void)
	?get_is_valid_data@eap_variable_data_c@@QBE_NXZ @ 501 NONAME ; bool eap_variable_data_c::get_is_valid_data(void) const
	?reset_header@eapol_ethernet_header_wr_c@@QAEXW4eapol_ethernet_type_e@@G@Z @ 502 NONAME ; void eapol_ethernet_header_wr_c::reset_header(enum eapol_ethernet_type_e, unsigned short)
	??1crypto_sha1_c@@UAE@XZ @ 503 NONAME ; crypto_sha1_c::~crypto_sha1_c(void)
	?check_header@eap_header_base_c@@UBE?AW4eap_status_e@@XZ @ 504 NONAME ; enum eap_status_e eap_header_base_c::check_header(void) const
	?set_type@eap_header_base_c@@QAE?AW4eap_status_e@@Veap_expanded_type_c@@_N@Z @ 505 NONAME ; enum eap_status_e eap_header_base_c::set_type(class eap_expanded_type_c, bool)
	?get_is_valid@eap_buf_chain_base_c@@QBE_NXZ @ 506 NONAME ; bool eap_buf_chain_base_c::get_is_valid(void) const
	?copy@eap_variable_data_c@@QBEPAV1@XZ @ 507 NONAME ; class eap_variable_data_c * eap_variable_data_c::copy(void) const
	?convert_bytes_to_hex_ascii@eap_am_tools_c@@UAE?AW4eap_status_e@@PBXKPAVeap_variable_data_c@@@Z @ 508 NONAME ; enum eap_status_e eap_am_tools_c::convert_bytes_to_hex_ascii(void const *, unsigned long, class eap_variable_data_c *)
	?set_is_invalid@crypto_sha_256_c@@AAEXXZ @ 509 NONAME ; void crypto_sha_256_c::set_is_invalid(void)
	?sprint@eap_am_tools_symbian_c@@AAAXAAVTDes16@@PBDZZ @ 510 NONAME ; void eap_am_tools_symbian_c::sprint(class TDes16 &, char const *, ...)
	??0eap_am_network_id_c@@QAE@PAVabs_eap_am_tools_c@@PBXK1KG_N2@Z @ 511 NONAME ; eap_am_network_id_c::eap_am_network_id_c(class abs_eap_am_tools_c *, void const *, unsigned long, void const *, unsigned long, unsigned short, bool, bool)
	??0eap_header_base_c@@QAE@PAVabs_eap_am_tools_c@@PAXK@Z @ 512 NONAME ; eap_header_base_c::eap_header_base_c(class abs_eap_am_tools_c *, void *, unsigned long)
	?config_strlen@eap_am_tools_symbian_c@@UAEKPBD@Z @ 513 NONAME ; unsigned long eap_am_tools_symbian_c::config_strlen(char const *)
	?GetIsEnabledPresent@EapCertificateEntry@@QBEHXZ @ 514 NONAME ; int EapCertificateEntry::GetIsEnabledPresent(void) const
	?encrypt_block@crypto_aes_c@@UAE?AW4eap_status_e@@PBXPAXK@Z @ 515 NONAME ; enum eap_status_e crypto_aes_c::encrypt_block(void const *, void *, unsigned long)
	?get_rand_bytes@crypto_random_c@@QAE?AW4eap_status_e@@PAXK@Z @ 516 NONAME ; enum eap_status_e crypto_random_c::get_rand_bytes(void *, unsigned long)
	?add_data@eap_variable_data_c@@QAE?AW4eap_status_e@@PBXK@Z @ 517 NONAME ; enum eap_status_e eap_variable_data_c::add_data(void const *, unsigned long)
	?get_destination@eap_am_network_id_c@@QBEPBEXZ @ 518 NONAME ; unsigned char const * eap_am_network_id_c::get_destination(void) const
	?get_data_offset@eap_header_base_c@@QBEPAEKK@Z @ 519 NONAME ; unsigned char * eap_header_base_c::get_data_offset(unsigned long, unsigned long) const
	??0eap_state_notification_c@@QAE@PAVabs_eap_am_tools_c@@PBVeap_am_network_id_c@@_NW4eap_state_notification_generic_e@@W4eap_protocol_layer_e@@KKKE2@Z @ 520 NONAME ; eap_state_notification_c::eap_state_notification_c(class abs_eap_am_tools_c *, class eap_am_network_id_c const *, bool, enum eap_state_notification_generic_e, enum eap_protocol_layer_e, unsigned long, unsigned long, unsigned long, unsigned char, bool)
	?add_parameter_data@eap_process_tlv_message_data_c@@QAE?AW4eap_status_e@@PBVeap_general_header_base_c@@K@Z @ 521 NONAME ; enum eap_status_e eap_process_tlv_message_data_c::add_parameter_data(class eap_general_header_base_c const *, unsigned long)
	?get_thread_stopped@eap_am_tools_c@@UAE_NXZ @ 522 NONAME ; bool eap_am_tools_c::get_thread_stopped(void)
	??1eap_tlv_header_c@@UAE@XZ @ 523 NONAME ; eap_tlv_header_c::~eap_tlv_header_c(void)
	?getenv@eap_am_tools_symbian_c@@UAE?AW4eap_status_e@@PBVeap_variable_data_c@@PAV3@@Z @ 524 NONAME ; enum eap_status_e eap_am_tools_symbian_c::getenv(class eap_variable_data_c const *, class eap_variable_data_c *)
	?eap_read_u64_t_network_order@@YA_KPBXK@Z @ 525 NONAME ; unsigned long long eap_read_u64_t_network_order(void const *, unsigned long)
	?add_parameter_data@eap_process_tlv_message_data_c@@QAE?AW4eap_status_e@@PBVeap_variable_data_c@@@Z @ 526 NONAME ; enum eap_status_e eap_process_tlv_message_data_c::add_parameter_data(class eap_variable_data_c const *)
	?rc4_encrypt@eap_am_crypto_symbian_c@@UAE?AW4eap_status_e@@PBVeap_variable_data_c@@PBXPAXK@Z @ 527 NONAME ; enum eap_status_e eap_am_crypto_symbian_c::rc4_encrypt(class eap_variable_data_c const *, void const *, void *, unsigned long)
	?aes_set_decryption_key@eap_am_crypto_symbian_c@@UAE?AW4eap_status_e@@PAVeap_variable_data_c@@PBEK@Z @ 528 NONAME ; enum eap_status_e eap_am_crypto_symbian_c::aes_set_decryption_key(class eap_variable_data_c *, unsigned char const *, unsigned long)
	?timer_expired@eap_session_core_c@@UAE?AW4eap_status_e@@KPAX@Z @ 529 NONAME ; enum eap_status_e eap_session_core_c::timer_expired(unsigned long, void *)
	??0eap_buf_chain_wr_c@@QAE@W4eap_write_buffer_e@@PAVabs_eap_am_tools_c@@@Z @ 530 NONAME ; eap_buf_chain_wr_c::eap_buf_chain_wr_c(enum eap_write_buffer_e, class abs_eap_am_tools_c *)
	?get_rand_bytes@crypto_random_c@@QAE?AW4eap_status_e@@PAVeap_variable_data_c@@K@Z @ 531 NONAME ; enum eap_status_e crypto_random_c::get_rand_bytes(class eap_variable_data_c *, unsigned long)
	?get_is_valid@crypto_tls_base_prf_c@@QAE_NXZ @ 532 NONAME ; bool crypto_tls_base_prf_c::get_is_valid(void)
	?set_activate_trace_on_error@eap_am_tools_c@@UAEXXZ @ 533 NONAME ; void eap_am_tools_c::set_activate_trace_on_error(void)
	?get_eap_identifier@eap_state_notification_c@@UBEEXZ @ 534 NONAME ; unsigned char eap_state_notification_c::get_eap_identifier(void) const
	?set_decryption_key@crypto_aes_wrap_c@@QAE?AW4eap_status_e@@PBXK@Z @ 535 NONAME ; enum eap_status_e crypto_aes_wrap_c::set_decryption_key(void const *, unsigned long)
	?copy@eap_type_selection_c@@QBEPAV1@XZ @ 536 NONAME ; class eap_type_selection_c * eap_type_selection_c::copy(void) const
	??0crypto_kd_hmac_sha256_c@@QAE@PAVabs_eap_am_tools_c@@@Z @ 537 NONAME ; crypto_kd_hmac_sha256_c::crypto_kd_hmac_sha256_c(class abs_eap_am_tools_c *)
	?sign@crypto_rsa_c@@QAE?AW4eap_status_e@@PBVeap_variable_data_c@@0PAV3@@Z @ 538 NONAME ; enum eap_status_e crypto_rsa_c::sign(class eap_variable_data_c const *, class eap_variable_data_c const *, class eap_variable_data_c *)
	?read_parameter_data@eap_process_tlv_message_data_c@@QAE?AW4eap_status_e@@PBV?$eap_array_c@Veap_tlv_header_c@@@@KPAK@Z @ 539 NONAME ; enum eap_status_e eap_process_tlv_message_data_c::read_parameter_data(class eap_array_c<class eap_tlv_header_c> const *, unsigned long, unsigned long *)
	?get_key@eapol_session_key_c@@QBEPBVeap_variable_data_c@@XZ @ 540 NONAME ; class eap_variable_data_c const * eapol_session_key_c::get_key(void) const
	?get_parameter_data@eap_process_tlv_message_data_c@@QAE?AW4eap_status_e@@PBVeap_tlv_header_c@@PAF@Z @ 541 NONAME ; enum eap_status_e eap_process_tlv_message_data_c::get_parameter_data(class eap_tlv_header_c const *, short *)
	?get_header_buffer@eap_general_header_base_c@@QBEPAEK@Z @ 542 NONAME ; unsigned char * eap_general_header_base_c::get_header_buffer(unsigned long) const
	??0abs_eap_am_memory_store_data_c@@QAE@XZ @ 543 NONAME ; abs_eap_am_memory_store_data_c::abs_eap_am_memory_store_data_c(void)
	??1abs_crypto_hmac_algorithm_c@@UAE@XZ @ 544 NONAME ; abs_crypto_hmac_algorithm_c::~abs_crypto_hmac_algorithm_c(void)
	??1crypto_tls_sha1_prf_c@@UAE@XZ @ 545 NONAME ; crypto_tls_sha1_prf_c::~crypto_tls_sha1_prf_c(void)
	?get_type_string@eap_header_base_c@@QBEPBDXZ @ 546 NONAME ; char const * eap_header_base_c::get_type_string(void) const
	?get_proposed_eap_type@eap_core_nak_info_c@@QBE?AVeap_expanded_type_c@@XZ @ 547 NONAME ; class eap_expanded_type_c eap_core_nak_info_c::get_proposed_eap_type(void) const
	?GetPrimaryNameWritable@EapCertificateEntry@@QAEPAVTDes16@@XZ @ 548 NONAME ; class TDes16 * EapCertificateEntry::GetPrimaryNameWritable(void)
	?get_is_valid@crypto_hmac_c@@UAE_NXZ @ 549 NONAME ; bool crypto_hmac_c::get_is_valid(void)
	?get_encrypt@eap_buf_chain_base_c@@QBE_NXZ @ 550 NONAME ; bool eap_buf_chain_base_c::get_encrypt(void) const
	?is_ietf_type@eap_expanded_type_c@@SA_NV1@@Z @ 551 NONAME ; bool eap_expanded_type_c::is_ietf_type(class eap_expanded_type_c)
	?add_data_to_offset@eap_buf_chain_base_c@@QAE?AW4eap_status_e@@KPBXK@Z @ 552 NONAME ; enum eap_status_e eap_buf_chain_base_c::add_data_to_offset(unsigned long, void const *, unsigned long)
	?init@crypto_rsa_c@@QAE?AW4eap_status_e@@XZ @ 553 NONAME ; enum eap_status_e crypto_rsa_c::init(void)
	?get_payload_size@eap_process_tlv_message_data_c@@QBEKPBVeap_am_network_id_c@@@Z @ 554 NONAME ; unsigned long eap_process_tlv_message_data_c::get_payload_size(class eap_am_network_id_c const *) const
	?GetLabelPresent@EapCertificateEntry@@QBEHXZ @ 555 NONAME ; int EapCertificateEntry::GetLabelPresent(void) const
	?set_session_timeout@eap_core_c@@UAE?AW4eap_status_e@@K@Z @ 556 NONAME ; enum eap_status_e eap_core_c::set_session_timeout(unsigned long)
	?compare@eap_variable_data_c@@QBEJPBV1@@Z @ 557 NONAME ; long eap_variable_data_c::compare(class eap_variable_data_c const *) const
	?set_encryption_key@crypto_cbc_c@@UAE?AW4eap_status_e@@PBXK0K@Z @ 558 NONAME ; enum eap_status_e crypto_cbc_c::set_encryption_key(void const *, unsigned long, void const *, unsigned long)
	?get_payload_size@eap_process_tlv_message_data_c@@QBEKPBVeap_certificate_entry_c@@@Z @ 559 NONAME ; unsigned long eap_process_tlv_message_data_c::get_payload_size(class eap_certificate_entry_c const *) const
	?copy_leap_password@eap_master_session_key_c@@QAE?AW4eap_status_e@@PBVeap_variable_data_c@@@Z @ 560 NONAME ; enum eap_status_e eap_master_session_key_c::copy_leap_password(class eap_variable_data_c const *)
	?verify@crypto_dsa_c@@QAE?AW4eap_status_e@@PBVeap_variable_data_c@@00000@Z @ 561 NONAME ; enum eap_status_e crypto_dsa_c::verify(class eap_variable_data_c const *, class eap_variable_data_c const *, class eap_variable_data_c const *, class eap_variable_data_c const *, class eap_variable_data_c const *, class eap_variable_data_c const *)
	?timer_sleep@eap_am_tools_symbian_c@@UAEXK@Z @ 562 NONAME ; void eap_am_tools_symbian_c::timer_sleep(unsigned long)
	??0crypto_aes_wrap_c@@QAE@PAVabs_eap_am_tools_c@@@Z @ 563 NONAME ; crypto_aes_wrap_c::crypto_aes_wrap_c(class abs_eap_am_tools_c *)
	?get_reference@eap_am_mutex_base_c@@QBEPAVeap_am_mutex_reference_c@@XZ @ 564 NONAME ; class eap_am_mutex_reference_c * eap_am_mutex_base_c::get_reference(void) const
	??1eap_buf_chain_wr_c@@UAE@XZ @ 565 NONAME ; eap_buf_chain_wr_c::~eap_buf_chain_wr_c(void)
	?get_expanded_vendor_type_offset@eap_header_base_c@@SAKXZ @ 566 NONAME ; unsigned long eap_header_base_c::get_expanded_vendor_type_offset(void)
	?md5_cleanup@eap_am_crypto_symbian_c@@UAE?AW4eap_status_e@@PAVeap_variable_data_c@@@Z @ 567 NONAME ; enum eap_status_e eap_am_crypto_symbian_c::md5_cleanup(class eap_variable_data_c *)
	?copy@eap_expanded_type_c@@QBEPAV1@XZ @ 568 NONAME ; class eap_expanded_type_c * eap_expanded_type_c::copy(void) const
	?encrypt_with_private_key@crypto_rsa_c@@QAE?AW4eap_status_e@@PBVeap_variable_data_c@@0PAV3@@Z @ 569 NONAME ; enum eap_status_e crypto_rsa_c::encrypt_with_private_key(class eap_variable_data_c const *, class eap_variable_data_c const *, class eap_variable_data_c *)
	?set_is_invalid@eap_am_crypto_md4_c@@AAEXXZ @ 570 NONAME ; void eap_am_crypto_md4_c::set_is_invalid(void)
	?get_data@eap_buf_chain_rd_c@@QBEPBEK@Z @ 571 NONAME ; unsigned char const * eap_buf_chain_rd_c::get_data(unsigned long) const
	?get_type@eap_static_expanded_type_c@@QBEABVeap_expanded_type_c@@XZ @ 572 NONAME ; class eap_expanded_type_c const & eap_static_expanded_type_c::get_type(void) const
	?configure@eap_file_config_c@@QAE?AW4eap_status_e@@PAVabs_eap_am_file_input_c@@@Z @ 573 NONAME ; enum eap_status_e eap_file_config_c::configure(class abs_eap_am_file_input_c *)
	?copy@eap_am_crypto_md4_c@@QAEPAV1@XZ @ 574 NONAME ; class eap_am_crypto_md4_c * eap_am_crypto_md4_c::copy(void)
	?set_rogue_reason@eap_rogue_ap_entry_c@@QAEXW4eap_rogue_ap_reason_e@@@Z @ 575 NONAME ; void eap_rogue_ap_entry_c::set_rogue_reason(enum eap_rogue_ap_reason_e)
	?get_data_length@eap_buf_chain_base_c@@QBEKXZ @ 576 NONAME ; unsigned long eap_buf_chain_base_c::get_data_length(void) const
	??1eap_header_string_c@@UAE@XZ @ 577 NONAME ; eap_header_string_c::~eap_header_string_c(void)
	?decrypt_block_3des_ede@eap_am_crypto_symbian_c@@UAE?AW4eap_status_e@@PAVeap_variable_data_c@@PBEPAEK@Z @ 578 NONAME ; enum eap_status_e eap_am_crypto_symbian_c::decrypt_block_3des_ede(class eap_variable_data_c *, unsigned char const *, unsigned char *, unsigned long)
	??1crypto_nt_hash_c@@UAE@XZ @ 579 NONAME ; crypto_nt_hash_c::~crypto_nt_hash_c(void)
	?GetIsValid@EapCertificateEntry@@QBEHXZ @ 580 NONAME ; int EapCertificateEntry::GetIsValid(void) const
	?SetValue@TEapExpandedType@@QAEHPBXI@Z @ 581 NONAME ; int TEapExpandedType::SetValue(void const *, unsigned int)
	?tls_prf_cleanup@crypto_tls_sha1_prf_c@@QAE?AW4eap_status_e@@XZ @ 582 NONAME ; enum eap_status_e crypto_tls_sha1_prf_c::tls_prf_cleanup(void)
	?get_data_offset@eap_buf_chain_base_c@@QBEPAEKK@Z @ 583 NONAME ; unsigned char * eap_buf_chain_base_c::get_data_offset(unsigned long, unsigned long) const
	?set_copy_of_buffer@eap_variable_data_c@@QAE?AW4eap_status_e@@PBXK@Z @ 584 NONAME ; enum eap_status_e eap_variable_data_c::set_copy_of_buffer(void const *, unsigned long)
	?set_is_invalid@crypto_tls_prf_c@@AAEXXZ @ 585 NONAME ; void crypto_tls_prf_c::set_is_invalid(void)
	?check_header@eapol_ethernet_header_base_c@@UBE?AW4eap_status_e@@XZ @ 586 NONAME ; enum eap_status_e eapol_ethernet_header_base_c::check_header(void) const
	?restore_bytes_from_ascii_armor@eap_am_tools_c@@UAE?AW4eap_status_e@@PBEKPAEPAK@Z @ 587 NONAME ; enum eap_status_e eap_am_tools_c::restore_bytes_from_ascii_armor(unsigned char const *, unsigned long, unsigned char *, unsigned long *)
	?get_network_index@simple_config_credential_c@@QBEEXZ @ 588 NONAME ; unsigned char simple_config_credential_c::get_network_index(void) const
	??1eap_master_session_key_c@@UAE@XZ @ 589 NONAME ; eap_master_session_key_c::~eap_master_session_key_c(void)
	??0eapol_ethernet_header_rd_c@@QAE@PAVabs_eap_am_tools_c@@PBEK@Z @ 590 NONAME ; eapol_ethernet_header_rd_c::eapol_ethernet_header_rd_c(class abs_eap_am_tools_c *, unsigned char const *, unsigned long)
	?allocate_message_data_buffer@eap_tlv_message_data_c@@QAE?AW4eap_status_e@@K@Z @ 591 NONAME ; enum eap_status_e eap_tlv_message_data_c::allocate_message_data_buffer(unsigned long)
	??0eap_network_id_selector_c@@QAE@PAVabs_eap_am_tools_c@@PBVeap_am_network_id_c@@@Z @ 592 NONAME ; eap_network_id_selector_c::eap_network_id_selector_c(class abs_eap_am_tools_c *, class eap_am_network_id_c const *)
	?get_block_size@eap_am_crypto_md4_c@@QAEKXZ @ 593 NONAME ; unsigned long eap_am_crypto_md4_c::get_block_size(void)
	??0eap_am_crypto_rc4_c@@QAE@PAVabs_eap_am_tools_c@@@Z @ 594 NONAME ; eap_am_crypto_rc4_c::eap_am_crypto_rc4_c(class abs_eap_am_tools_c *)
	??0eap_buf_chain_wr_c@@QAE@W4eap_write_buffer_e@@PAVabs_eap_am_tools_c@@K@Z @ 595 NONAME ; eap_buf_chain_wr_c::eap_buf_chain_wr_c(enum eap_write_buffer_e, class abs_eap_am_tools_c *, unsigned long)
	?SetPrimaryNamePresent@EapCertificateEntry@@QAEXXZ @ 596 NONAME ; void EapCertificateEntry::SetPrimaryNamePresent(void)
	?get_is_valid@eap_am_crypto_symbian_c@@UBE_NXZ @ 597 NONAME ; bool eap_am_crypto_symbian_c::get_is_valid(void) const
	?formatted_print@eap_am_tools_symbian_c@@UAAXPBDZZ @ 598 NONAME ; void eap_am_tools_symbian_c::formatted_print(char const *, ...)
	?get_is_valid@eap_am_file_input_symbian_c@@UAE_NXZ @ 599 NONAME ; bool eap_am_file_input_symbian_c::get_is_valid(void)
	?get_digest_length@crypto_md5_c@@UAEKXZ @ 600 NONAME ; unsigned long crypto_md5_c::get_digest_length(void)
	?compare_network_id@eap_am_network_id_c@@QBE_NPBV1@@Z @ 601 NONAME ; bool eap_am_network_id_c::compare_network_id(class eap_am_network_id_c const *) const
	?read_parameter_data@eap_process_tlv_message_data_c@@QAE?AW4eap_status_e@@PBV?$eap_array_c@Veap_tlv_header_c@@@@KPAW4eapol_wlan_authentication_state_e@@@Z @ 602 NONAME ; enum eap_status_e eap_process_tlv_message_data_c::read_parameter_data(class eap_array_c<class eap_tlv_header_c> const *, unsigned long, enum eapol_wlan_authentication_state_e *)
	?get_mutex@eap_am_mutex_symbian_c@@QBEPBVRMutex@@XZ @ 603 NONAME ; class RMutex const * eap_am_mutex_symbian_c::get_mutex(void) const
	?get_eapol_key_type_string@eapol_session_key_c@@SAPBDW4eapol_key_type_e@@@Z @ 604 NONAME ; char const * eapol_session_key_c::get_eapol_key_type_string(enum eapol_key_type_e)
	?get_network_keys_const@simple_config_credential_c@@QBEPBV?$eap_array_c@Vnetwork_key_and_index_c@@@@XZ @ 605 NONAME ; class eap_array_c<class network_key_and_index_c> const * simple_config_credential_c::get_network_keys_const(void) const
	?trace_eap_packet@eap_core_c@@QAEXPBDPBVeap_header_wr_c@@@Z @ 606 NONAME ; void eap_core_c::trace_eap_packet(char const *, class eap_header_wr_c const *)
	?CopyData@EapMessageBuffer@@QAEHW4TEapRequests@@PBXI@Z @ 607 NONAME ; int EapMessageBuffer::CopyData(enum TEapRequests, void const *, unsigned int)
	?hash_init@crypto_sha_256_c@@UAE?AW4eap_status_e@@XZ @ 608 NONAME ; enum eap_status_e crypto_sha_256_c::hash_init(void)
	??1abs_eap_am_memory_store_data_c@@UAE@XZ @ 609 NONAME ; abs_eap_am_memory_store_data_c::~abs_eap_am_memory_store_data_c(void)
	?get_protocol@eap_state_notification_c@@UBEKXZ @ 610 NONAME ; unsigned long eap_state_notification_c::get_protocol(void) const
	??0eap_am_tools_symbian_c@@QAE@PBD@Z @ 611 NONAME ; eap_am_tools_symbian_c::eap_am_tools_symbian_c(char const *)
	??1abs_crypto_hash_algorithm_c@@UAE@XZ @ 612 NONAME ; abs_crypto_hash_algorithm_c::~abs_crypto_hash_algorithm_c(void)
	??0eap_config_value_c@@QAE@PAVabs_eap_am_tools_c@@@Z @ 613 NONAME ; eap_config_value_c::eap_config_value_c(class abs_eap_am_tools_c *)
	?restart_authentication@eap_session_core_c@@QAE?AW4eap_status_e@@PBVeap_am_network_id_c@@_N@Z @ 614 NONAME ; enum eap_status_e eap_session_core_c::restart_authentication(class eap_am_network_id_c const *, bool)
	?get_SSID_const@simple_config_credential_c@@QBEPBVeap_variable_data_c@@XZ @ 615 NONAME ; class eap_variable_data_c const * simple_config_credential_c::get_SSID_const(void) const
	?get_sha_256_block_size@eap_am_crypto_symbian_c@@UAEKPAVeap_variable_data_c@@@Z @ 616 NONAME ; unsigned long eap_am_crypto_symbian_c::get_sha_256_block_size(class eap_variable_data_c *)
	?get_block_size@crypto_cbc_c@@UAEKXZ @ 617 NONAME ; unsigned long crypto_cbc_c::get_block_size(void)
	?packet_process_type@eap_core_c@@AAE?AW4eap_status_e@@Veap_expanded_type_c@@PBVeap_am_network_id_c@@PAVeap_general_header_base_c@@K@Z @ 618 NONAME ; enum eap_status_e eap_core_c::packet_process_type(class eap_expanded_type_c, class eap_am_network_id_c const *, class eap_general_header_base_c *, unsigned long)
	??0eap_master_session_key_c@@QAE@PAVabs_eap_am_tools_c@@Veap_expanded_type_c@@@Z @ 619 NONAME ; eap_master_session_key_c::eap_master_session_key_c(class abs_eap_am_tools_c *, class eap_expanded_type_c)
	?get_value_offset@eap_tlv_header_c@@QBEPAEKK@Z @ 620 NONAME ; unsigned char * eap_tlv_header_c::get_value_offset(unsigned long, unsigned long) const
	?get_source_length@eap_am_network_id_c@@QBEKXZ @ 621 NONAME ; unsigned long eap_am_network_id_c::get_source_length(void) const
	?get_source@eapol_ethernet_header_base_c@@QBEPAEXZ @ 622 NONAME ; unsigned char * eapol_ethernet_header_base_c::get_source(void) const
	??1eap_am_crypto_sha1_c@@UAE@XZ @ 623 NONAME ; eap_am_crypto_sha1_c::~eap_am_crypto_sha1_c(void)
	??0eap_type_selection_c@@QAE@PAVabs_eap_am_tools_c@@Veap_expanded_type_c@@_N@Z @ 624 NONAME ; eap_type_selection_c::eap_type_selection_c(class abs_eap_am_tools_c *, class eap_expanded_type_c, bool)
	?get_is_valid@crypto_aes_wrap_c@@QAE_NXZ @ 625 NONAME ; bool crypto_aes_wrap_c::get_is_valid(void)
	?get_eap_header@eapol_header_wr_c@@QAEPAEXZ @ 626 NONAME ; unsigned char * eapol_header_wr_c::get_eap_header(void)
	?dsa_cleanup@eap_am_crypto_symbian_c@@UAE?AW4eap_status_e@@PAVeap_variable_data_c@@@Z @ 627 NONAME ; enum eap_status_e eap_am_crypto_symbian_c::dsa_cleanup(class eap_variable_data_c *)
	?get_key_tx_bit@eapol_session_key_c@@QBE_NXZ @ 628 NONAME ; bool eapol_session_key_c::get_key_tx_bit(void) const
	?get_current_state@eap_state_notification_c@@UBEKXZ @ 629 NONAME ; unsigned long eap_state_notification_c::get_current_state(void) const
	?read_parameter_data@eap_process_tlv_message_data_c@@QAE?AW4eap_status_e@@PBV?$eap_array_c@Veap_tlv_header_c@@@@KPAV?$eap_array_c@Veap_am_network_id_c@@@@@Z @ 630 NONAME ; enum eap_status_e eap_process_tlv_message_data_c::read_parameter_data(class eap_array_c<class eap_tlv_header_c> const *, unsigned long, class eap_array_c<class eap_am_network_id_c> *)
	?get_function_string@eap_process_tlv_message_data_c@@SAPBDW4eap_tlv_message_type_function_e@@@Z @ 631 NONAME ; char const * eap_process_tlv_message_data_c::get_function_string(enum eap_tlv_message_type_function_e)
	?block_size_3des_ede@eap_am_crypto_symbian_c@@UAEKXZ @ 632 NONAME ; unsigned long eap_am_crypto_symbian_c::block_size_3des_ede(void)
	?get_is_valid@eap_general_header_base_c@@QBE_NXZ @ 633 NONAME ; bool eap_general_header_base_c::get_is_valid(void) const
	??8eap_expanded_type_c@@QBE_NABV0@@Z @ 634 NONAME ; bool eap_expanded_type_c::operator==(class eap_expanded_type_c const &) const
	?set_expanded_type_data@eap_expanded_type_c@@QAE?AW4eap_status_e@@PAVabs_eap_am_tools_c@@PBVeap_variable_data_c@@@Z @ 635 NONAME ; enum eap_status_e eap_expanded_type_c::set_expanded_type_data(class abs_eap_am_tools_c *, class eap_variable_data_c const *)
	?get_parameter_data@eap_process_tlv_message_data_c@@QAE?AW4eap_status_e@@PBVeap_tlv_header_c@@PAPAVeap_state_notification_c@@@Z @ 636 NONAME ; enum eap_status_e eap_process_tlv_message_data_c::get_parameter_data(class eap_tlv_header_c const *, class eap_state_notification_c * *)
	??0crypto_tls_prf_c@@QAE@PAVabs_eap_am_tools_c@@@Z @ 637 NONAME ; crypto_tls_prf_c::crypto_tls_prf_c(class abs_eap_am_tools_c *)
	?start_timer_thread@eap_am_tools_symbian_c@@UAE?AW4eap_status_e@@XZ @ 638 NONAME ; enum eap_status_e eap_am_tools_symbian_c::start_timer_thread(void)
	?is_expanded_type@eap_expanded_type_c@@SA_NW4eap_type_ietf_values_e@@@Z @ 639 NONAME ; bool eap_expanded_type_c::is_expanded_type(enum eap_type_ietf_values_e)
	?leave_crypto_cs@eap_am_tools_symbian_c@@QAEXXZ @ 640 NONAME ; void eap_am_tools_symbian_c::leave_crypto_cs(void)
	??1abs_eap_am_mutex_c@@UAE@XZ @ 641 NONAME ; abs_eap_am_mutex_c::~abs_eap_am_mutex_c(void)
	?hash_final@crypto_md4_c@@UAE?AW4eap_status_e@@PAXPAK@Z @ 642 NONAME ; enum eap_status_e crypto_md4_c::hash_final(void *, unsigned long *)
	??1EapMessageBuffer@@UAE@XZ @ 643 NONAME ; EapMessageBuffer::~EapMessageBuffer(void)
	?get_am_tools@eap_general_header_base_c@@QBEPAVabs_eap_am_tools_c@@XZ @ 644 NONAME ; class abs_eap_am_tools_c * eap_general_header_base_c::get_am_tools(void) const
	??1eap_header_wr_c@@UAE@XZ @ 645 NONAME ; eap_header_wr_c::~eap_header_wr_c(void)
	?handle_eap_identity_request@eap_core_c@@AAE?AW4eap_status_e@@Veap_expanded_type_c@@EPBVeap_am_network_id_c@@@Z @ 646 NONAME ; enum eap_status_e eap_core_c::handle_eap_identity_request(class eap_expanded_type_c, unsigned char, class eap_am_network_id_c const *)
	?md4_cleanup@eap_am_crypto_symbian_c@@UAE?AW4eap_status_e@@PAVeap_variable_data_c@@@Z @ 647 NONAME ; enum eap_status_e eap_am_crypto_symbian_c::md4_cleanup(class eap_variable_data_c *)
	?SetIsEnabled@EapCertificateEntry@@QAEHH@Z @ 648 NONAME ; int EapCertificateEntry::SetIsEnabled(int)
	?read_parameter_data@eap_process_tlv_message_data_c@@QAE?AW4eap_status_e@@PBV?$eap_array_c@Veap_tlv_header_c@@@@KPAW4eap_certificate_type_e@eap_certificate_entry_c@@@Z @ 649 NONAME ; enum eap_status_e eap_process_tlv_message_data_c::read_parameter_data(class eap_array_c<class eap_tlv_header_c> const *, unsigned long, enum eap_certificate_entry_c::eap_certificate_type_e *)
	?read_configuration_message@eap_file_config_c@@QAE?AW4eap_status_e@@PBVeap_variable_data_c@@@Z @ 650 NONAME ; enum eap_status_e eap_file_config_c::read_configuration_message(class eap_variable_data_c const *)
	?get_network_key_const@network_key_and_index_c@@QBEPBVeap_variable_data_c@@XZ @ 651 NONAME ; class eap_variable_data_c const * network_key_and_index_c::get_network_key_const(void) const
	?load_module@eap_session_core_c@@UAE?AW4eap_status_e@@Veap_expanded_type_c@@0PAVabs_eap_base_type_c@@PAPAVeap_base_type_c@@_NPBVeap_am_network_id_c@@@Z @ 652 NONAME ; enum eap_status_e eap_session_core_c::load_module(class eap_expanded_type_c, class eap_expanded_type_c, class abs_eap_base_type_c *, class eap_base_type_c * *, bool, class eap_am_network_id_c const *)
	?add_padding_bytes@crypto_cbc_c@@UAE?AW4eap_status_e@@PAXKE@Z @ 653 NONAME ; enum eap_status_e crypto_cbc_c::add_padding_bytes(void *, unsigned long, unsigned char)
	?get_key_length@crypto_3des_ede_c@@UAEKXZ @ 654 NONAME ; unsigned long crypto_3des_ede_c::get_key_length(void)
	?initialize_members@eap_variable_data_c@@AAE?AW4eap_status_e@@XZ @ 655 NONAME ; enum eap_status_e eap_variable_data_c::initialize_members(void)
	?md5_update@eap_am_crypto_symbian_c@@UAE?AW4eap_status_e@@PAVeap_variable_data_c@@PBEK@Z @ 656 NONAME ; enum eap_status_e eap_am_crypto_symbian_c::md5_update(class eap_variable_data_c *, unsigned char const *, unsigned long)
	?copy_message_data@eap_am_memory_store_tlv_data_c@@QAE?AW4eap_status_e@@PBVeap_tlv_message_data_c@@K@Z @ 657 NONAME ; enum eap_status_e eap_am_memory_store_tlv_data_c::copy_message_data(class eap_tlv_message_data_c const *, unsigned long)
	?hash_update@crypto_sha_256_c@@UAE?AW4eap_status_e@@PBXK@Z @ 658 NONAME ; enum eap_status_e crypto_sha_256_c::hash_update(void const *, unsigned long)
	?get_do_packet_retransmission@eap_buf_chain_base_c@@QAE_NXZ @ 659 NONAME ; bool eap_buf_chain_base_c::get_do_packet_retransmission(void)
	?enter_global_mutex@eap_am_tools_symbian_c@@UAEXXZ @ 660 NONAME ; void eap_am_tools_symbian_c::enter_global_mutex(void)
	?add_data_to_offset@eap_variable_data_c@@QAE?AW4eap_status_e@@KPBV1@@Z @ 661 NONAME ; enum eap_status_e eap_variable_data_c::add_data_to_offset(unsigned long, class eap_variable_data_c const *)
	?hash_cleanup@eap_am_crypto_md4_c@@AAE?AW4eap_status_e@@XZ @ 662 NONAME ; enum eap_status_e eap_am_crypto_md4_c::hash_cleanup(void)
	?hash_update@crypto_md5_c@@UAE?AW4eap_status_e@@PBXK@Z @ 663 NONAME ; enum eap_status_e crypto_md5_c::hash_update(void const *, unsigned long)
	?set_start_offset@eap_variable_data_c@@QAE?AW4eap_status_e@@K@Z @ 664 NONAME ; enum eap_status_e eap_variable_data_c::set_start_offset(unsigned long)
	?get_parameter_data@eap_process_tlv_message_data_c@@QAE?AW4eap_status_e@@PBVeap_tlv_header_c@@PAV?$eap_array_c@G@@@Z @ 665 NONAME ; enum eap_status_e eap_process_tlv_message_data_c::get_parameter_data(class eap_tlv_header_c const *, class eap_array_c<unsigned short> *)
	??1eap_simple_config_trace_string_c@@UAE@XZ @ 666 NONAME ; eap_simple_config_trace_string_c::~eap_simple_config_trace_string_c(void)
	??1eapol_header_rd_c@@UAE@XZ @ 667 NONAME ; eapol_header_rd_c::~eapol_header_rd_c(void)
	?SetSubjectKeyIdPresent@EapCertificateEntry@@QAEXXZ @ 668 NONAME ; void EapCertificateEntry::SetSubjectKeyIdPresent(void)
	?set_is_invalid@eap_am_crypto_sha_256_c@@AAEXXZ @ 669 NONAME ; void eap_am_crypto_sha_256_c::set_is_invalid(void)
	?u64_t_to_u64_struct@eap_am_tools_symbian_c@@UAE?AUu64_struct@@_K@Z @ 670 NONAME ; struct u64_struct eap_am_tools_symbian_c::u64_t_to_u64_struct(unsigned long long)
	?copy@crypto_sha_256_c@@UAEPAVabs_crypto_hash_algorithm_c@@XZ @ 671 NONAME ; class abs_crypto_hash_algorithm_c * crypto_sha_256_c::copy(void)
	?hash_update@eap_am_crypto_sha1_c@@QAE?AW4eap_status_e@@PBXK@Z @ 672 NONAME ; enum eap_status_e eap_am_crypto_sha1_c::hash_update(void const *, unsigned long)
	?object_increase_reference_count@eap_process_tlv_message_data_c@@QAEXXZ @ 673 NONAME ; void eap_process_tlv_message_data_c::object_increase_reference_count(void)
	?get_type_string@eap_process_tlv_message_data_c@@SAPBDW4eap_tlv_message_type_e@@@Z @ 674 NONAME ; char const * eap_process_tlv_message_data_c::get_type_string(enum eap_tlv_message_type_e)
	?shutdown_am_tools@eap_am_tools_c@@QAE?AW4eap_status_e@@XZ @ 675 NONAME ; enum eap_status_e eap_am_tools_c::shutdown_am_tools(void)
	?set_message_data@eap_tlv_message_data_c@@QAE?AW4eap_status_e@@KPBX@Z @ 676 NONAME ; enum eap_status_e eap_tlv_message_data_c::set_message_data(unsigned long, void const *)
	?set_is_invalid@eap_am_crypto_rc4_c@@AAEXXZ @ 677 NONAME ; void eap_am_crypto_rc4_c::set_is_invalid(void)
	?password_hash@crypto_wpa_psk_password_hash_c@@QAE?AW4eap_status_e@@PBVeap_variable_data_c@@0PAV3@PAXP6A?AW42@2K@Z@Z @ 678 NONAME ; enum eap_status_e crypto_wpa_psk_password_hash_c::password_hash(class eap_variable_data_c const *, class eap_variable_data_c const *, class eap_variable_data_c *, void *, enum eap_status_e (*)(void *, unsigned long))
	?get_eap_type_list@eap_session_core_c@@UAE?AW4eap_status_e@@PAV?$eap_array_c@Veap_expanded_type_c@@@@@Z @ 679 NONAME ; enum eap_status_e eap_session_core_c::get_eap_type_list(class eap_array_c<class eap_expanded_type_c> *)
	?hash_cleanup@eap_am_crypto_sha1_c@@AAE?AW4eap_status_e@@XZ @ 680 NONAME ; enum eap_status_e eap_am_crypto_sha1_c::hash_cleanup(void)
	?state_notification@eap_session_core_c@@UAEXPBVabs_eap_state_notification_c@@@Z @ 681 NONAME ; void eap_session_core_c::state_notification(class abs_eap_state_notification_c const *)
	??0eapol_header_rd_c@@QAE@PAVabs_eap_am_tools_c@@PAEK@Z @ 682 NONAME ; eapol_header_rd_c::eapol_header_rd_c(class abs_eap_am_tools_c *, unsigned char *, unsigned long)
	?get_type@eap_header_base_c@@QBE?AVeap_expanded_type_c@@XZ @ 683 NONAME ; class eap_expanded_type_c eap_header_base_c::get_type(void) const
	?GetSecondaryNameWritable@EapCertificateEntry@@QAEPAVTDes16@@XZ @ 684 NONAME ; class TDes16 * EapCertificateEntry::GetSecondaryNameWritable(void)
	?set_is_valid@crypto_dsa_c@@AAEXXZ @ 685 NONAME ; void crypto_dsa_c::set_is_valid(void)
	?aes_set_encryption_key@eap_am_crypto_symbian_c@@UAE?AW4eap_status_e@@PAVeap_variable_data_c@@PBEK@Z @ 686 NONAME ; enum eap_status_e eap_am_crypto_symbian_c::aes_set_encryption_key(class eap_variable_data_c *, unsigned char const *, unsigned long)
	?add_parameter_data@eap_process_tlv_message_data_c@@QAE?AW4eap_status_e@@J@Z @ 687 NONAME ; enum eap_status_e eap_process_tlv_message_data_c::add_parameter_data(long)
	??1crypto_cbc_c@@UAE@XZ @ 688 NONAME ; crypto_cbc_c::~crypto_cbc_c(void)
	?leave_global_mutex@eap_am_tools_symbian_c@@UAEXXZ @ 689 NONAME ; void eap_am_tools_symbian_c::leave_global_mutex(void)
	??4TEapExpandedType@@QAEAAV0@ABV0@@Z @ 690 NONAME ; class TEapExpandedType & TEapExpandedType::operator=(class TEapExpandedType const &)
	?set_is_valid@crypto_md4_c@@EAEXXZ @ 691 NONAME ; void crypto_md4_c::set_is_valid(void)
	?get_code@eap_header_base_c@@QBE?AW4eap_code_value_e@@XZ @ 692 NONAME ; enum eap_code_value_e eap_header_base_c::get_code(void) const
	??Ieap_expanded_type_c@@QAEPAV0@XZ @ 693 NONAME ; class eap_expanded_type_c * eap_expanded_type_c::operator&(void)
	?md4_copy_context@eap_am_crypto_symbian_c@@UAE?AW4eap_status_e@@PAVeap_variable_data_c@@PBV3@@Z @ 694 NONAME ; enum eap_status_e eap_am_crypto_symbian_c::md4_copy_context(class eap_variable_data_c *, class eap_variable_data_c const *)
	??4eap_expanded_type_c@@QAEAAV0@W4eap_type_ietf_values_e@@@Z @ 695 NONAME ; class eap_expanded_type_c & eap_expanded_type_c::operator=(enum eap_type_ietf_values_e)
	?eap_write_u16_t_network_order@@YA?AW4eap_status_e@@PAXKG@Z @ 696 NONAME ; enum eap_status_e eap_write_u16_t_network_order(void *, unsigned long, unsigned short)
	?get_type_data@eap_expanded_type_c@@QBE?AW4eap_status_e@@PAVabs_eap_am_tools_c@@PAW4eap_type_ietf_values_e@@@Z @ 697 NONAME ; enum eap_status_e eap_expanded_type_c::get_type_data(class abs_eap_am_tools_c *, enum eap_type_ietf_values_e *) const
	?strlen@eap_am_tools_symbian_c@@UAEKPBD@Z @ 698 NONAME ; unsigned long eap_am_tools_symbian_c::strlen(char const *)
	?get_previous_state_string@eap_state_notification_c@@UBEPBDXZ @ 699 NONAME ; char const * eap_state_notification_c::get_previous_state_string(void) const
	?SetSecondaryNamePresent@EapCertificateEntry@@QAEXXZ @ 700 NONAME ; void EapCertificateEntry::SetSecondaryNamePresent(void)
	?Compare@TEapExpandedType@@QBEHABV1@@Z @ 701 NONAME ; int TEapExpandedType::Compare(class TEapExpandedType const &) const
	?GetSubjectKeyIdWritable@EapCertificateEntry@@QAEPAV?$TBuf8@$0BE@@@XZ @ 702 NONAME ; class TBuf8<20> * EapCertificateEntry::GetSubjectKeyIdWritable(void)
	?get_block_size@crypto_3des_ede_c@@UAEKXZ @ 703 NONAME ; unsigned long crypto_3des_ede_c::get_block_size(void)
	?get_type_data_start_offset@eap_header_base_c@@SAK_N@Z @ 704 NONAME ; unsigned long eap_header_base_c::get_type_data_start_offset(bool)
	??0eap_am_crypto_sha1_c@@QAE@PAVabs_eap_am_tools_c@@@Z @ 705 NONAME ; eap_am_crypto_sha1_c::eap_am_crypto_sha1_c(class abs_eap_am_tools_c *)
	?convert_hex_ascii_to_bytes@eap_am_tools_c@@UAE?AW4eap_status_e@@PBEKPAEPAK@Z @ 706 NONAME ; enum eap_status_e eap_am_tools_c::convert_hex_ascii_to_bytes(unsigned char const *, unsigned long, unsigned char *, unsigned long *)
	?set_authentication_role@eap_core_c@@UAE?AW4eap_status_e@@_N@Z @ 707 NONAME ; enum eap_status_e eap_core_c::set_authentication_role(bool)
	??1TEapExpandedType@@UAE@XZ @ 708 NONAME ; TEapExpandedType::~TEapExpandedType(void)
	?eap_write_u32_t_little_endian_order@@YA?AW4eap_status_e@@PAXKK@Z @ 709 NONAME ; enum eap_status_e eap_write_u32_t_little_endian_order(void *, unsigned long, unsigned long)
	?set_data_length@eapol_header_base_c@@QAEXG@Z @ 710 NONAME ; void eapol_header_base_c::set_data_length(unsigned short)
	?get_digest_length@crypto_sha_256_c@@UAEKXZ @ 711 NONAME ; unsigned long crypto_sha_256_c::get_digest_length(void)
	?read_parameter_data@eap_process_tlv_message_data_c@@QAE?AW4eap_status_e@@PBV?$eap_array_c@Veap_tlv_header_c@@@@KPAPAVeap_state_notification_c@@@Z @ 712 NONAME ; enum eap_status_e eap_process_tlv_message_data_c::read_parameter_data(class eap_array_c<class eap_tlv_header_c> const *, unsigned long, class eap_state_notification_c * *)
	?reset@eap_am_network_id_c@@QAEXXZ @ 713 NONAME ; void eap_am_network_id_c::reset(void)
	??0abs_eap_am_mutex_c@@QAE@XZ @ 714 NONAME ; abs_eap_am_mutex_c::abs_eap_am_mutex_c(void)
	?configure@eap_core_c@@UAE?AW4eap_status_e@@XZ @ 715 NONAME ; enum eap_status_e eap_core_c::configure(void)
	?get_is_valid@eap_session_core_c@@UAE_NXZ @ 716 NONAME ; bool eap_session_core_c::get_is_valid(void)
	?get_rand_integer@crypto_random_c@@QAEKKK@Z @ 717 NONAME ; unsigned long crypto_random_c::get_rand_integer(unsigned long, unsigned long)
	?check_activate_trace_on_error@eap_am_tools_c@@UAEXXZ @ 718 NONAME ; void eap_am_tools_c::check_activate_trace_on_error(void)
	?get_sent_packet@eap_core_retransmission_c@@QBEPAVeap_buf_chain_wr_c@@XZ @ 719 NONAME ; class eap_buf_chain_wr_c * eap_core_retransmission_c::get_sent_packet(void) const
	?asynchronous_init_remove_eap_session@eap_core_c@@AAE?AW4eap_status_e@@XZ @ 720 NONAME ; enum eap_status_e eap_core_c::asynchronous_init_remove_eap_session(void)
	?read_parameter_data@eap_process_tlv_message_data_c@@QAE?AW4eap_status_e@@PBV?$eap_array_c@Veap_tlv_header_c@@@@KPA_K@Z @ 721 NONAME ; enum eap_status_e eap_process_tlv_message_data_c::read_parameter_data(class eap_array_c<class eap_tlv_header_c> const *, unsigned long, unsigned long long *)
	?get_type_data_length@eap_header_base_c@@QBEGXZ @ 722 NONAME ; unsigned short eap_header_base_c::get_type_data_length(void) const
	??1eap_core_nak_info_c@@UAE@XZ @ 723 NONAME ; eap_core_nak_info_c::~eap_core_nak_info_c(void)
	?get_asymmetric_start_key@crypto_nt_hash_c@@QAE?AW4eap_status_e@@PBVeap_variable_data_c@@PAV3@K_N2@Z @ 724 NONAME ; enum eap_status_e crypto_nt_hash_c::get_asymmetric_start_key(class eap_variable_data_c const *, class eap_variable_data_c *, unsigned long, bool, bool)
	?get_is_valid@eap_am_network_id_c@@QBE_NXZ @ 725 NONAME ; bool eap_am_network_id_c::get_is_valid(void) const
	?set_is_valid@eap_am_crypto_md4_c@@AAEXXZ @ 726 NONAME ; void eap_am_crypto_md4_c::set_is_valid(void)
	??1eap_am_mutex_reference_c@@UAE@XZ @ 727 NONAME ; eap_am_mutex_reference_c::~eap_am_mutex_reference_c(void)
	?ConvertInternalTypesToEAPTypes@CEapConversion@@SAHPAVabs_eap_am_tools_c@@PBV?$eap_array_c@Veap_expanded_type_c@@@@PAV?$RArray@I@@@Z @ 728 NONAME ; int CEapConversion::ConvertInternalTypesToEAPTypes(class abs_eap_am_tools_c *, class eap_array_c<class eap_expanded_type_c> const *, class RArray<unsigned int> *)
	?DeleteFirstMessage@EapMessageQueue@@QAEHPBVEapMessageBuffer@@@Z @ 729 NONAME ; int EapMessageQueue::DeleteFirstMessage(class EapMessageBuffer const *)
	?check_is_valid_eap_type@eap_core_c@@UAE?AW4eap_status_e@@Veap_expanded_type_c@@@Z @ 730 NONAME ; enum eap_status_e eap_core_c::check_is_valid_eap_type(class eap_expanded_type_c)
	?get_is_valid@eap_tlv_message_data_c@@QAE_NXZ @ 731 NONAME ; bool eap_tlv_message_data_c::get_is_valid(void)
	?get_buffer_offset@eap_variable_data_c@@QBEPAEKK@Z @ 732 NONAME ; unsigned char * eap_variable_data_c::get_buffer_offset(unsigned long, unsigned long) const
	?get_encrypts@crypto_3des_ede_c@@UAE_NXZ @ 733 NONAME ; bool crypto_3des_ede_c::get_encrypts(void)
	?GetFirstMessage@EapMessageQueue@@QAEPAVEapMessageBuffer@@XZ @ 734 NONAME ; class EapMessageBuffer * EapMessageQueue::GetFirstMessage(void)
	?add_end_null@eap_variable_data_c@@QAE?AW4eap_status_e@@XZ @ 735 NONAME ; enum eap_status_e eap_variable_data_c::add_end_null(void)
	?get_802_11_authentication_mode@eap_session_core_c@@UAE?AW4eap_status_e@@PBVeap_am_network_id_c@@W4eapol_key_authentication_type_e@@PBVeap_variable_data_c@@2@Z @ 736 NONAME ; enum eap_status_e eap_session_core_c::get_802_11_authentication_mode(class eap_am_network_id_c const *, enum eapol_key_authentication_type_e, class eap_variable_data_c const *, class eap_variable_data_c const *)
	?initialize_session_timeout@eap_core_c@@AAE?AW4eap_status_e@@K@Z @ 737 NONAME ; enum eap_status_e eap_core_c::initialize_session_timeout(unsigned long)
	?GetSecondaryNamePresent@EapCertificateEntry@@QBEHXZ @ 738 NONAME ; int EapCertificateEntry::GetSecondaryNamePresent(void) const
	?get_is_valid@crypto_nt_hash_c@@QAE_NXZ @ 739 NONAME ; bool crypto_nt_hash_c::get_is_valid(void)
	?get_use_eap_milli_second_timer@eap_am_tools_symbian_c@@UAE_NXZ @ 740 NONAME ; bool eap_am_tools_symbian_c::get_use_eap_milli_second_timer(void)
	??1crypto_eap_fast_hmac_sha1_prf_c@@UAE@XZ @ 741 NONAME ; crypto_eap_fast_hmac_sha1_prf_c::~crypto_eap_fast_hmac_sha1_prf_c(void)
	?get_parameter_data@eap_process_tlv_message_data_c@@QAE?AW4eap_status_e@@PBVeap_tlv_header_c@@PAVeapol_session_key_c@@@Z @ 742 NONAME ; enum eap_status_e eap_process_tlv_message_data_c::get_parameter_data(class eap_tlv_header_c const *, class eapol_session_key_c *)
	?set_mac_address@eap_rogue_ap_entry_c@@QAEXPBE@Z @ 743 NONAME ; void eap_rogue_ap_entry_c::set_mac_address(unsigned char const *)
	?copy@eap_am_network_id_c@@QBEPAV1@XZ @ 744 NONAME ; class eap_am_network_id_c * eap_am_network_id_c::copy(void) const
	??0eap_header_string_c@@QAE@XZ @ 745 NONAME ; eap_header_string_c::eap_header_string_c(void)
	?get_type_data@eap_header_base_c@@QBEPAEK@Z @ 746 NONAME ; unsigned char * eap_header_base_c::get_type_data(unsigned long) const
	?eap_write_u64_t_network_order@@YA?AW4eap_status_e@@PAXK_K@Z @ 747 NONAME ; enum eap_status_e eap_write_u64_t_network_order(void *, unsigned long, unsigned long long)
	?get_tmp_IV@crypto_cbc_c@@UAEPBVeap_variable_data_c@@XZ @ 748 NONAME ; class eap_variable_data_c const * crypto_cbc_c::get_tmp_IV(void)
	?read_parameter_data@eap_process_tlv_message_data_c@@QAE?AW4eap_status_e@@PBV?$eap_array_c@Veap_tlv_header_c@@@@KPAD@Z @ 749 NONAME ; enum eap_status_e eap_process_tlv_message_data_c::read_parameter_data(class eap_array_c<class eap_tlv_header_c> const *, unsigned long, char *)
	?eap_sha1_process_data_network_order@eap_am_crypto_sha1_c@@AAE?AW4eap_status_e@@PBKK@Z @ 750 NONAME ; enum eap_status_e eap_am_crypto_sha1_c::eap_sha1_process_data_network_order(unsigned long const *, unsigned long)
	?load_type@eap_core_c@@QAEPAVeap_base_type_c@@Veap_expanded_type_c@@0PBVeap_am_network_id_c@@@Z @ 751 NONAME ; class eap_base_type_c * eap_core_c::load_type(class eap_expanded_type_c, class eap_expanded_type_c, class eap_am_network_id_c const *)
	?convert_unicode_to_utf8@eap_am_tools_symbian_c@@UAE?AW4eap_status_e@@AAVeap_variable_data_c@@ABV3@@Z @ 752 NONAME ; enum eap_status_e eap_am_tools_symbian_c::convert_unicode_to_utf8(class eap_variable_data_c &, class eap_variable_data_c const &)
	?encrypt_block_3des_ede@eap_am_crypto_symbian_c@@UAE?AW4eap_status_e@@PAVeap_variable_data_c@@PBEPAEK@Z @ 753 NONAME ; enum eap_status_e eap_am_crypto_symbian_c::encrypt_block_3des_ede(class eap_variable_data_c *, unsigned char const *, unsigned char *, unsigned long)
	?send_eap_success@eap_core_c@@QAE?AW4eap_status_e@@PBVeap_am_network_id_c@@E@Z @ 754 NONAME ; enum eap_status_e eap_core_c::send_eap_success(class eap_am_network_id_c const *, unsigned char)
	?sha1_final@eap_am_crypto_symbian_c@@UAE?AW4eap_status_e@@PAVeap_variable_data_c@@PAEPAK@Z @ 755 NONAME ; enum eap_status_e eap_am_crypto_symbian_c::sha1_final(class eap_variable_data_c *, unsigned char *, unsigned long *)
	?add_parameter_data@eap_process_tlv_message_data_c@@QAE?AW4eap_status_e@@PBVeap_method_settings_c@@@Z @ 756 NONAME ; enum eap_status_e eap_process_tlv_message_data_c::add_parameter_data(class eap_method_settings_c const *)
	?read_parameter_data@eap_process_tlv_message_data_c@@QAE?AW4eap_status_e@@PBV?$eap_array_c@Veap_tlv_header_c@@@@KPAW4eap_tlv_message_type_function_e@@@Z @ 757 NONAME ; enum eap_status_e eap_process_tlv_message_data_c::read_parameter_data(class eap_array_c<class eap_tlv_header_c> const *, unsigned long, enum eap_tlv_message_type_function_e *)
	?eap_htons@@YAGG@Z @ 758 NONAME ; unsigned short eap_htons(unsigned short)
	?reset@eap_variable_data_c@@QAE?AW4eap_status_e@@XZ @ 759 NONAME ; enum eap_status_e eap_variable_data_c::reset(void)
	?get_key_length@crypto_aes_wrap_c@@QAEKXZ @ 760 NONAME ; unsigned long crypto_aes_wrap_c::get_key_length(void)
	?get_crypto@eap_am_tools_symbian_c@@UAEPAVabs_eap_am_crypto_c@@XZ @ 761 NONAME ; class abs_eap_am_crypto_c * eap_am_tools_symbian_c::get_crypto(void)
	?eap_sha_256_process_data_network_order@eap_am_crypto_sha_256_c@@AAE?AW4eap_status_e@@PBKK@Z @ 762 NONAME ; enum eap_status_e eap_am_crypto_sha_256_c::eap_sha_256_process_data_network_order(unsigned long const *, unsigned long)
	?set_network_index@simple_config_credential_c@@QAEXE@Z @ 763 NONAME ; void simple_config_credential_c::set_network_index(unsigned char)
	?get_needs_confirmation_from_user@eap_state_notification_c@@UBE_NXZ @ 764 NONAME ; bool eap_state_notification_c::get_needs_confirmation_from_user(void) const
	?get_payload_size@eap_process_tlv_message_data_c@@QBEKPBV?$eap_array_c@G@@@Z @ 765 NONAME ; unsigned long eap_process_tlv_message_data_c::get_payload_size(class eap_array_c<unsigned short> const *) const
	?set_value_length@eap_tlv_header_c@@QAE?AW4eap_status_e@@K@Z @ 766 NONAME ; enum eap_status_e eap_tlv_header_c::set_value_length(unsigned long)
	?get_digest_length@eap_am_crypto_sha1_c@@QAEKXZ @ 767 NONAME ; unsigned long eap_am_crypto_sha1_c::get_digest_length(void)
	?generate_diffie_hellman_keys@eap_am_crypto_symbian_c@@UAE?AW4eap_status_e@@PAVeap_variable_data_c@@0PBEK1K@Z @ 768 NONAME ; enum eap_status_e eap_am_crypto_symbian_c::generate_diffie_hellman_keys(class eap_variable_data_c *, class eap_variable_data_c *, unsigned char const *, unsigned long, unsigned char const *, unsigned long)
	?get_is_valid@crypto_kd_hmac_sha256_c@@QAE_NXZ @ 769 NONAME ; bool crypto_kd_hmac_sha256_c::get_is_valid(void)
	?GetLabelWritable@EapCertificateEntry@@QAEPAVTDes16@@XZ @ 770 NONAME ; class TDes16 * EapCertificateEntry::GetLabelWritable(void)
	?hash_final@eap_am_crypto_md4_c@@QAE?AW4eap_status_e@@PAXPAK@Z @ 771 NONAME ; enum eap_status_e eap_am_crypto_md4_c::hash_final(void *, unsigned long *)
	?eap_sha_256_process_data_host_order@eap_am_crypto_sha_256_c@@AAE?AW4eap_status_e@@PBKK@Z @ 772 NONAME ; enum eap_status_e eap_am_crypto_sha_256_c::eap_sha_256_process_data_host_order(unsigned long const *, unsigned long)
	?add_data@eap_buf_chain_base_c@@QAE?AW4eap_status_e@@PBVeap_variable_data_c@@@Z @ 773 NONAME ; enum eap_status_e eap_buf_chain_base_c::add_data(class eap_variable_data_c const *)
	?mutex_enter@eap_am_mutex_symbian_c@@UAE?AW4eap_status_e@@XZ @ 774 NONAME ; enum eap_status_e eap_am_mutex_symbian_c::mutex_enter(void)
	?add_parameter_data@eap_process_tlv_message_data_c@@QAE?AW4eap_status_e@@PBVeap_certificate_entry_c@@@Z @ 775 NONAME ; enum eap_status_e eap_process_tlv_message_data_c::add_parameter_data(class eap_certificate_entry_c const *)
	?file_read@eap_am_file_input_symbian_c@@UAE?AW4eap_status_e@@PAVeap_variable_data_c@@@Z @ 776 NONAME ; enum eap_status_e eap_am_file_input_symbian_c::file_read(class eap_variable_data_c *)
	?set_expanded_type_data@eap_expanded_type_c@@QAE?AW4eap_status_e@@PAVabs_eap_am_tools_c@@PBXK@Z @ 777 NONAME ; enum eap_status_e eap_expanded_type_c::set_expanded_type_data(class abs_eap_am_tools_c *, void const *, unsigned long)
	?SetLabelPresent@EapCertificateEntry@@QAEXXZ @ 778 NONAME ; void EapCertificateEntry::SetLabelPresent(void)
	?GetThumbprint@EapCertificateEntry@@QBEPBVTDes16@@XZ @ 779 NONAME ; class TDes16 const * EapCertificateEntry::GetThumbprint(void) const
	?eap_htonll@@YA_K_K@Z @ 780 NONAME ; unsigned long long eap_htonll(unsigned long long)
	??0eap_am_mutex_symbian_c@@QAE@XZ @ 781 NONAME ; eap_am_mutex_symbian_c::eap_am_mutex_symbian_c(void)
	?set_is_valid@crypto_eap_fast_hmac_sha1_prf_c@@AAEXXZ @ 782 NONAME ; void crypto_eap_fast_hmac_sha1_prf_c::set_is_valid(void)
	??0TEapExpandedType@@QAE@PBV0@@Z @ 783 NONAME ; TEapExpandedType::TEapExpandedType(class TEapExpandedType const *)
	?get_is_timer_thread_active@eap_am_tools_symbian_c@@UAE_NXZ @ 784 NONAME ; bool eap_am_tools_symbian_c::get_is_timer_thread_active(void)
	?get_parameter_data@eap_process_tlv_message_data_c@@QAE?AW4eap_status_e@@PBVeap_tlv_header_c@@PAJ@Z @ 785 NONAME ; enum eap_status_e eap_process_tlv_message_data_c::get_parameter_data(class eap_tlv_header_c const *, long *)
	?object_decrease_reference_count@eap_core_c@@QAEKXZ @ 786 NONAME ; unsigned long eap_core_c::object_decrease_reference_count(void)
	?get_type_data@eap_expanded_type_c@@QBE?AW4eap_status_e@@PAVabs_eap_am_tools_c@@PAV1@@Z @ 787 NONAME ; enum eap_status_e eap_expanded_type_c::get_type_data(class abs_eap_am_tools_c *, class eap_expanded_type_c *) const
	?discard_stream@crypto_rc4_c@@UAE?AW4eap_status_e@@K@Z @ 788 NONAME ; enum eap_status_e crypto_rc4_c::discard_stream(unsigned long)
	?generic_convert_unicode_to_utf8@eap_am_tools_c@@QAE?AW4eap_status_e@@AAVeap_variable_data_c@@ABV3@@Z @ 789 NONAME ; enum eap_status_e eap_am_tools_c::generic_convert_unicode_to_utf8(class eap_variable_data_c &, class eap_variable_data_c const &)
	?read_parameter_data@eap_process_tlv_message_data_c@@QAE?AW4eap_status_e@@PBV?$eap_array_c@Veap_tlv_header_c@@@@KPAW4simple_config_Encryption_Type_e@@@Z @ 790 NONAME ; enum eap_status_e eap_process_tlv_message_data_c::read_parameter_data(class eap_array_c<class eap_tlv_header_c> const *, unsigned long, enum simple_config_Encryption_Type_e *)
	?restore_selected_bytes_from_ascii_armor@eap_am_tools_c@@AAEXEPAKPAE0_N@Z @ 791 NONAME ; void eap_am_tools_c::restore_selected_bytes_from_ascii_armor(unsigned char, unsigned long *, unsigned char *, unsigned long *, bool)
	??1eap_expanded_type_c@@QAE@XZ @ 792 NONAME ; eap_expanded_type_c::~eap_expanded_type_c(void)
	?shutdown_operation@eap_session_core_c@@CA?AW4eap_status_e@@PAVeap_core_c@@PAVabs_eap_am_tools_c@@@Z @ 793 NONAME ; enum eap_status_e eap_session_core_c::shutdown_operation(class eap_core_c *, class abs_eap_am_tools_c *)
	?set_copy_of_am_network_id@eap_am_network_id_c@@QAE?AW4eap_status_e@@PBXK0KG@Z @ 794 NONAME ; enum eap_status_e eap_am_network_id_c::set_copy_of_am_network_id(void const *, unsigned long, void const *, unsigned long, unsigned short)
	??4EapCertificateEntry@@QAEAAV0@ABV0@@Z @ 795 NONAME ; class EapCertificateEntry & EapCertificateEntry::operator=(class EapCertificateEntry const &)
	?get_eapol_header@eapol_ethernet_header_wr_c@@QBEPAEXZ @ 796 NONAME ; unsigned char * eapol_ethernet_header_wr_c::get_eapol_header(void) const
	?memrchr@eap_am_tools_symbian_c@@UAEPAXPBXEK@Z @ 797 NONAME ; void * eap_am_tools_symbian_c::memrchr(void const *, unsigned char, unsigned long)
	?encrypt_block@crypto_aes_wrap_c@@QAE?AW4eap_status_e@@PBXKPAXK@Z @ 798 NONAME ; enum eap_status_e crypto_aes_wrap_c::encrypt_block(void const *, unsigned long, void *, unsigned long)
	??0eap_header_rd_c@@QAE@PAVabs_eap_am_tools_c@@PAEK@Z @ 799 NONAME ; eap_header_rd_c::eap_header_rd_c(class abs_eap_am_tools_c *, unsigned char *, unsigned long)
	?rsa_cleanup@eap_am_crypto_symbian_c@@UAE?AW4eap_status_e@@PAVeap_variable_data_c@@@Z @ 800 NONAME ; enum eap_status_e eap_am_crypto_symbian_c::rsa_cleanup(class eap_variable_data_c *)
	?rsa_decrypt_with_public_key@eap_am_crypto_symbian_c@@UAE?AW4eap_status_e@@PAVeap_variable_data_c@@PBV3@10@Z @ 801 NONAME ; enum eap_status_e eap_am_crypto_symbian_c::rsa_decrypt_with_public_key(class eap_variable_data_c *, class eap_variable_data_c const *, class eap_variable_data_c const *, class eap_variable_data_c *)
	?set_is_valid@crypto_random_c@@QAEXXZ @ 802 NONAME ; void crypto_random_c::set_is_valid(void)
	?ascii_to_octet@eap_am_tools_c@@UAEEJ@Z @ 803 NONAME ; unsigned char eap_am_tools_c::ascii_to_octet(long)
	?convert_utf8_to_unicode@eap_am_tools_symbian_c@@UAE?AW4eap_status_e@@AAVeap_variable_data_c@@ABV3@@Z @ 804 NONAME ; enum eap_status_e eap_am_tools_symbian_c::convert_utf8_to_unicode(class eap_variable_data_c &, class eap_variable_data_c const &)
	?set_is_valid@eap_am_network_id_c@@AAEXXZ @ 805 NONAME ; void eap_am_network_id_c::set_is_valid(void)
	?hash_update@crypto_sha1_c@@UAE?AW4eap_status_e@@PBXK@Z @ 806 NONAME ; enum eap_status_e crypto_sha1_c::hash_update(void const *, unsigned long)
	?verify@crypto_rsa_c@@QAE?AW4eap_status_e@@PBVeap_variable_data_c@@00@Z @ 807 NONAME ; enum eap_status_e crypto_rsa_c::verify(class eap_variable_data_c const *, class eap_variable_data_c const *, class eap_variable_data_c const *)
	??1EapServerStrings@@UAE@XZ @ 808 NONAME ; EapServerStrings::~EapServerStrings(void)
	?get_block_size@crypto_aes_wrap_c@@QAEKXZ @ 809 NONAME ; unsigned long crypto_aes_wrap_c::get_block_size(void)
	?write_configure@eap_session_core_c@@UAE?AW4eap_status_e@@PBVeap_configuration_field_c@@PAVeap_variable_data_c@@@Z @ 810 NONAME ; enum eap_status_e eap_session_core_c::write_configure(class eap_configuration_field_c const *, class eap_variable_data_c *)
	?get_expanded_vendor_id_offset@eap_header_base_c@@SAKXZ @ 811 NONAME ; unsigned long eap_header_base_c::get_expanded_vendor_id_offset(void)
	?get_data@eap_config_value_c@@QAEPAVeap_variable_data_c@@XZ @ 812 NONAME ; class eap_variable_data_c * eap_config_value_c::get_data(void)
	?use_test_random@eap_am_crypto_symbian_c@@UAEXPBEK_N@Z @ 813 NONAME ; void eap_am_crypto_symbian_c::use_test_random(unsigned char const *, unsigned long, bool)
	?add_parameter_data@eap_process_tlv_message_data_c@@QAE?AW4eap_status_e@@W42@@Z @ 814 NONAME ; enum eap_status_e eap_process_tlv_message_data_c::add_parameter_data(enum eap_status_e)
	?set_is_valid@crypto_rc4_c@@EAEXXZ @ 815 NONAME ; void crypto_rc4_c::set_is_valid(void)
	?memset@eap_am_tools_symbian_c@@UAEXPAXJK@Z @ 816 NONAME ; void eap_am_tools_symbian_c::memset(void *, long, unsigned long)
	?initialize_asynchronous_init_remove_eap_session@eap_core_c@@AAE?AW4eap_status_e@@K@Z @ 817 NONAME ; enum eap_status_e eap_core_c::initialize_asynchronous_init_remove_eap_session(unsigned long)
	?aes_key_length@eap_am_crypto_symbian_c@@UAEKXZ @ 818 NONAME ; unsigned long eap_am_crypto_symbian_c::aes_key_length(void)
	?get_is_valid@crypto_aes_c@@UAE_NXZ @ 819 NONAME ; bool crypto_aes_c::get_is_valid(void)
	?reset_header@eap_tlv_header_c@@QAE?AW4eap_status_e@@KK@Z @ 820 NONAME ; enum eap_status_e eap_tlv_header_c::reset_header(unsigned long, unsigned long)
	?add_data@eap_am_memory_store_c@@UAE?AW4eap_status_e@@PBVeap_variable_data_c@@PBVeap_tlv_message_data_c@@K@Z @ 821 NONAME ; enum eap_status_e eap_am_memory_store_c::add_data(class eap_variable_data_c const *, class eap_tlv_message_data_c const *, unsigned long)
	?get_is_valid@eap_variable_data_c@@QBE_NXZ @ 822 NONAME ; bool eap_variable_data_c::get_is_valid(void) const
	?set_is_invalid@crypto_dsa_c@@AAEXXZ @ 823 NONAME ; void crypto_dsa_c::set_is_invalid(void)
	??1eap_header_base_c@@UAE@XZ @ 824 NONAME ; eap_header_base_c::~eap_header_base_c(void)
	?read_type@eap_expanded_type_c@@SA?AW4eap_status_e@@PAVabs_eap_am_tools_c@@KPBXKPAV1@@Z @ 825 NONAME ; enum eap_status_e eap_expanded_type_c::read_type(class abs_eap_am_tools_c *, unsigned long, void const *, unsigned long, class eap_expanded_type_c *)
	?get_message_data_length@eap_am_memory_store_tlv_data_c@@QBEKXZ @ 826 NONAME ; unsigned long eap_am_memory_store_tlv_data_c::get_message_data_length(void) const
	?ConvertCipherSuitesToInternalType@CEapConversion@@SAHPAVabs_eap_am_tools_c@@PBV?$RArray@I@@PAV?$eap_array_c@G@@@Z @ 827 NONAME ; int CEapConversion::ConvertCipherSuitesToInternalType(class abs_eap_am_tools_c *, class RArray<unsigned int> const *, class eap_array_c<unsigned short> *)
	??1simple_config_credential_c@@UAE@XZ @ 828 NONAME ; simple_config_credential_c::~simple_config_credential_c(void)
	?set_timer_resolution_ms@eap_am_tools_symbian_c@@UAEXK@Z @ 829 NONAME ; void eap_am_tools_symbian_c::set_timer_resolution_ms(unsigned long)
	??0eap_file_config_c@@QAE@PAVabs_eap_am_tools_c@@@Z @ 830 NONAME ; eap_file_config_c::eap_file_config_c(class abs_eap_am_tools_c *)
	?add_parameter_data@eap_process_tlv_message_data_c@@QAE?AW4eap_status_e@@PBVeapol_session_key_c@@@Z @ 831 NONAME ; enum eap_status_e eap_process_tlv_message_data_c::add_parameter_data(class eapol_session_key_c const *)
	?get_header_length@eapol_header_base_c@@SAKXZ @ 832 NONAME ; unsigned long eapol_header_base_c::get_header_length(void)
	?am_cancel_all_timers@eap_am_tools_symbian_c@@UAE?AW4eap_status_e@@XZ @ 833 NONAME ; enum eap_status_e eap_am_tools_symbian_c::am_cancel_all_timers(void)
	?get_md4_block_size@eap_am_crypto_symbian_c@@UAEKPAVeap_variable_data_c@@@Z @ 834 NONAME ; unsigned long eap_am_crypto_symbian_c::get_md4_block_size(class eap_variable_data_c *)
	?set_encryption_key_3des_ede@eap_am_crypto_symbian_c@@UAE?AW4eap_status_e@@PAVeap_variable_data_c@@PBEK@Z @ 835 NONAME ; enum eap_status_e eap_am_crypto_symbian_c::set_encryption_key_3des_ede(class eap_variable_data_c *, unsigned char const *, unsigned long)
	?remove_eap_session@eap_session_core_c@@UAE?AW4eap_status_e@@_NPBVeap_am_network_id_c@@@Z @ 836 NONAME ; enum eap_status_e eap_session_core_c::remove_eap_session(bool, class eap_am_network_id_c const *)
	?get_payload_size@eap_process_tlv_message_data_c@@QBEKPBVeap_method_settings_c@@@Z @ 837 NONAME ; unsigned long eap_process_tlv_message_data_c::get_payload_size(class eap_method_settings_c const *) const
	?set_stack_address@eap_buf_chain_base_c@@QAEXPBX@Z @ 838 NONAME ; void eap_buf_chain_base_c::set_stack_address(void const *)
	?nt_password_hash@crypto_nt_hash_c@@QAE?AW4eap_status_e@@PBVeap_variable_data_c@@PAV3@K@Z @ 839 NONAME ; enum eap_status_e crypto_nt_hash_c::nt_password_hash(class eap_variable_data_c const *, class eap_variable_data_c *, unsigned long)
	?encrypt_data@crypto_cbc_c@@UAE?AW4eap_status_e@@PAXK@Z @ 840 NONAME ; enum eap_status_e crypto_cbc_c::encrypt_data(void *, unsigned long)
	?get_code_string@eap_header_base_c@@QBEPBDXZ @ 841 NONAME ; char const * eap_header_base_c::get_code_string(void) const
	?remove_reference@eap_am_mutex_reference_c@@QAEXXZ @ 842 NONAME ; void eap_am_mutex_reference_c::remove_reference(void)
	?rsa_verify@eap_am_crypto_symbian_c@@UAE?AW4eap_status_e@@PAVeap_variable_data_c@@PBV3@11@Z @ 843 NONAME ; enum eap_status_e eap_am_crypto_symbian_c::rsa_verify(class eap_variable_data_c *, class eap_variable_data_c const *, class eap_variable_data_c const *, class eap_variable_data_c const *)
	?open_crypto_memory_leaks@eap_am_crypto_symbian_c@@AAEXXZ @ 844 NONAME ; void eap_am_crypto_symbian_c::open_crypto_memory_leaks(void)
	?set_is_valid@eap_am_crypto_rc4_c@@AAEXXZ @ 845 NONAME ; void eap_am_crypto_rc4_c::set_is_valid(void)
	?get_parameter_data@eap_process_tlv_message_data_c@@QAE?AW4eap_status_e@@PBVeap_tlv_header_c@@PAW4eap_tlv_message_type_function_e@@@Z @ 846 NONAME ; enum eap_status_e eap_process_tlv_message_data_c::get_parameter_data(class eap_tlv_header_c const *, enum eap_tlv_message_type_function_e *)
	?force_inheritance@eap_buf_chain_wr_c@@EAEXXZ @ 847 NONAME ; void eap_buf_chain_wr_c::force_inheritance(void)
	?set_is_client@eap_buf_chain_base_c@@QAEX_N@Z @ 848 NONAME ; void eap_buf_chain_base_c::set_is_client(bool)
	?SetIssuerName@EapCertificateEntry@@QAEHABV?$TBuf@$0PP@@@@Z @ 849 NONAME ; int EapCertificateEntry::SetIssuerName(class TBuf<255> const &)
	?set_is_valid@crypto_aes_c@@UAEXXZ @ 850 NONAME ; void crypto_aes_c::set_is_valid(void)
	?set_is_invalid@crypto_eap_fast_hmac_sha1_prf_c@@AAEXXZ @ 851 NONAME ; void crypto_eap_fast_hmac_sha1_prf_c::set_is_invalid(void)
	?set_partner@eap_core_c@@QAEXPAVabs_eap_core_c@@@Z @ 852 NONAME ; void eap_core_c::set_partner(class abs_eap_core_c *)
	?get_version@eapol_header_base_c@@QBE?AW4eapol_protocol_version_e@@XZ @ 853 NONAME ; enum eapol_protocol_version_e eapol_header_base_c::get_version(void) const
	??0crypto_tls_sha1_prf_c@@QAE@PAVabs_eap_am_tools_c@@@Z @ 854 NONAME ; crypto_tls_sha1_prf_c::crypto_tls_sha1_prf_c(class abs_eap_am_tools_c *)
	?get_block_size@crypto_md4_c@@UAEKXZ @ 855 NONAME ; unsigned long crypto_md4_c::get_block_size(void)
	?timer_thread_function@eap_am_tools_c@@UAE?AW4eap_status_e@@XZ @ 856 NONAME ; enum eap_status_e eap_am_tools_c::timer_thread_function(void)
	?begin_db_update@eap_am_tools_symbian_c@@QAE?AW4eap_status_e@@AAVRDbView@@@Z @ 857 NONAME ; enum eap_status_e eap_am_tools_symbian_c::begin_db_update(class RDbView &)
	?generic_convert_utf8_to_unicode@eap_am_tools_c@@QAE?AW4eap_status_e@@AAVeap_variable_data_c@@ABV3@@Z @ 858 NONAME ; enum eap_status_e eap_am_tools_c::generic_convert_utf8_to_unicode(class eap_variable_data_c &, class eap_variable_data_c const &)
	?add_rogue_ap@eap_session_core_c@@UAE?AW4eap_status_e@@AAV?$eap_array_c@Veap_rogue_ap_entry_c@@@@@Z @ 859 NONAME ; enum eap_status_e eap_session_core_c::add_rogue_ap(class eap_array_c<class eap_rogue_ap_entry_c> &)
	?set_key@crypto_rc4_c@@UAE?AW4eap_status_e@@PBVeap_variable_data_c@@@Z @ 860 NONAME ; enum eap_status_e crypto_rc4_c::set_key(class eap_variable_data_c const *)
	?encrypt_data@crypto_rc4_c@@UAE?AW4eap_status_e@@PAXK@Z @ 861 NONAME ; enum eap_status_e crypto_rc4_c::encrypt_data(void *, unsigned long)
	??0eapol_header_base_c@@QAE@PAVabs_eap_am_tools_c@@PAXK@Z @ 862 NONAME ; eapol_header_base_c::eapol_header_base_c(class abs_eap_am_tools_c *, void *, unsigned long)
	?get_is_valid@crypto_ephemeral_diffie_hellman_c@@QAE_NXZ @ 863 NONAME ; bool crypto_ephemeral_diffie_hellman_c::get_is_valid(void)
	?get_is_valid@eap_core_retransmission_c@@QBE_NXZ @ 864 NONAME ; bool eap_core_retransmission_c::get_is_valid(void) const
	?get_parameter_data@eap_process_tlv_message_data_c@@QAE?AW4eap_status_e@@PBVeap_tlv_header_c@@PAVeap_certificate_entry_c@@@Z @ 865 NONAME ; enum eap_status_e eap_process_tlv_message_data_c::get_parameter_data(class eap_tlv_header_c const *, class eap_certificate_entry_c *)
	??1crypto_dsa_c@@UAE@XZ @ 866 NONAME ; crypto_dsa_c::~crypto_dsa_c(void)
	?SetCertType@EapCertificateEntry@@QAEHABW4TCertType@1@@Z @ 867 NONAME ; int EapCertificateEntry::SetCertType(enum EapCertificateEntry::TCertType const &)
	?add_parameter_data@eap_process_tlv_message_data_c@@QAE?AW4eap_status_e@@W4eapol_key_authentication_type_e@@@Z @ 868 NONAME ; enum eap_status_e eap_process_tlv_message_data_c::add_parameter_data(enum eapol_key_authentication_type_e)
	?set_is_valid@crypto_sha_256_c@@EAEXXZ @ 869 NONAME ; void crypto_sha_256_c::set_is_valid(void)
	??0eap_variable_data_c@@QAE@PAVabs_eap_am_tools_c@@@Z @ 870 NONAME ; eap_variable_data_c::eap_variable_data_c(class abs_eap_am_tools_c *)
	?get_trace_mutex@eap_am_tools_symbian_c@@QAEPAVabs_eap_am_mutex_c@@XZ @ 871 NONAME ; class abs_eap_am_mutex_c * eap_am_tools_symbian_c::get_trace_mutex(void)
	?decrypt_block@crypto_aes_wrap_c@@QAE?AW4eap_status_e@@PBXKPAXK@Z @ 872 NONAME ; enum eap_status_e crypto_aes_wrap_c::decrypt_block(void const *, unsigned long, void *, unsigned long)
	?file_delete@eap_am_file_input_symbian_c@@UAE?AW4eap_status_e@@PBVeap_variable_data_c@@@Z @ 873 NONAME ; enum eap_status_e eap_am_file_input_symbian_c::file_delete(class eap_variable_data_c const *)
	?get_eap_type_string@eap_header_string_c@@SAPBDVeap_expanded_type_c@@@Z @ 874 NONAME ; char const * eap_header_string_c::get_eap_type_string(class eap_expanded_type_c)
	??1eap_state_notification_c@@UAE@XZ @ 875 NONAME ; eap_state_notification_c::~eap_state_notification_c(void)
	?hmac_final@crypto_hmac_c@@UAE?AW4eap_status_e@@PAXPAK@Z @ 876 NONAME ; enum eap_status_e crypto_hmac_c::hmac_final(void *, unsigned long *)
	?get_is_client@eap_state_notification_c@@UBE_NXZ @ 877 NONAME ; bool eap_state_notification_c::get_is_client(void) const
	??0crypto_wpa_psk_password_hash_c@@QAE@PAVabs_eap_am_tools_c@@@Z @ 878 NONAME ; crypto_wpa_psk_password_hash_c::crypto_wpa_psk_password_hash_c(class abs_eap_am_tools_c *)
	??0network_key_and_index_c@@QAE@PAVabs_eap_am_tools_c@@@Z @ 879 NONAME ; network_key_and_index_c::network_key_and_index_c(class abs_eap_am_tools_c *)
	?get_header_offset@eap_general_header_base_c@@QBEPAEKK@Z @ 880 NONAME ; unsigned char * eap_general_header_base_c::get_header_offset(unsigned long, unsigned long) const
	?read_parameter_data@eap_process_tlv_message_data_c@@QAE?AW4eap_status_e@@PBV?$eap_array_c@Veap_tlv_header_c@@@@KPAF@Z @ 881 NONAME ; enum eap_status_e eap_process_tlv_message_data_c::read_parameter_data(class eap_array_c<class eap_tlv_header_c> const *, unsigned long, short *)
	?cancel_eap_failure_timeout@eap_core_c@@AAE?AW4eap_status_e@@XZ @ 882 NONAME ; enum eap_status_e eap_core_c::cancel_eap_failure_timeout(void)
	?get_protocol_layer@eap_state_notification_c@@UBE?AW4eap_protocol_layer_e@@XZ @ 883 NONAME ; enum eap_protocol_layer_e eap_state_notification_c::get_protocol_layer(void) const
	?set_do_length_checks@eap_buf_chain_base_c@@QAEX_N@Z @ 884 NONAME ; void eap_buf_chain_base_c::set_do_length_checks(bool)
	?SetValue@TEapExpandedType@@QAEHII@Z @ 885 NONAME ; int TEapExpandedType::SetValue(unsigned int, unsigned int)
	?get_buffer_length@eap_buf_chain_base_c@@QBEKXZ @ 886 NONAME ; unsigned long eap_buf_chain_base_c::get_buffer_length(void) const
	?set_encryption_key@crypto_3des_ede_c@@UAE?AW4eap_status_e@@PBXK@Z @ 887 NONAME ; enum eap_status_e crypto_3des_ede_c::set_encryption_key(void const *, unsigned long)
	??0eap_general_header_base_c@@QAE@PAVabs_eap_am_tools_c@@PAXK@Z @ 888 NONAME ; eap_general_header_base_c::eap_general_header_base_c(class abs_eap_am_tools_c *, void *, unsigned long)
	?get_state_string@eap_simple_config_trace_string_c@@QBEPBDW4simple_config_state_e@@@Z @ 889 NONAME ; char const * eap_simple_config_trace_string_c::get_state_string(enum simple_config_state_e) const
	?get_data@eap_header_base_c@@QBEPAEK@Z @ 890 NONAME ; unsigned char * eap_header_base_c::get_data(unsigned long) const
	?reset_header@eapol_header_wr_c@@QAEXG@Z @ 891 NONAME ; void eapol_header_wr_c::reset_header(unsigned short)
	?xor_u64@eap_am_tools_c@@UAE_K_K0@Z @ 892 NONAME ; unsigned long long eap_am_tools_c::xor_u64(unsigned long long, unsigned long long)
	?add_parameter_data@eap_process_tlv_message_data_c@@QAE?AW4eap_status_e@@_K@Z @ 893 NONAME ; enum eap_status_e eap_process_tlv_message_data_c::add_parameter_data(unsigned long long)
	?swap@eap_am_crypto_rc4_c@@AAEXPAE0@Z @ 894 NONAME ; void eap_am_crypto_rc4_c::swap(unsigned char *, unsigned char *)
	?eap_read_u32_t_network_order@@YAKPBXK@Z @ 895 NONAME ; unsigned long eap_read_u32_t_network_order(void const *, unsigned long)
	?get_key_length@crypto_aes_c@@UAEKXZ @ 896 NONAME ; unsigned long crypto_aes_c::get_key_length(void)
	?get_partner@eap_core_c@@QAEPAVabs_eap_core_c@@XZ @ 897 NONAME ; class abs_eap_core_c * eap_core_c::get_partner(void)
	??1eap_am_memory_store_tlv_data_c@@UAE@XZ @ 898 NONAME ; eap_am_memory_store_tlv_data_c::~eap_am_memory_store_tlv_data_c(void)
	?set_is_valid@crypto_rsa_c@@AAEXXZ @ 899 NONAME ; void crypto_rsa_c::set_is_valid(void)
	?set_max_trace_file_size@eap_am_tools_symbian_c@@UAEXK@Z @ 900 NONAME ; void eap_am_tools_symbian_c::set_max_trace_file_size(unsigned long)
	?set_is_invalid@crypto_md4_c@@AAEXXZ @ 901 NONAME ; void crypto_md4_c::set_is_invalid(void)
	?GetThumbprintPresent@EapCertificateEntry@@QBEHXZ @ 902 NONAME ; int EapCertificateEntry::GetThumbprintPresent(void) const
	?enter_trace_mutex@eap_am_tools_symbian_c@@QAEXXZ @ 903 NONAME ; void eap_am_tools_symbian_c::enter_trace_mutex(void)
	?md4_update@eap_am_crypto_symbian_c@@UAE?AW4eap_status_e@@PAVeap_variable_data_c@@PBEK@Z @ 904 NONAME ; enum eap_status_e eap_am_crypto_symbian_c::md4_update(class eap_variable_data_c *, unsigned char const *, unsigned long)
	??0eap_expanded_type_c@@QAE@W4eap_type_ietf_values_e@@@Z @ 905 NONAME ; eap_expanded_type_c::eap_expanded_type_c(enum eap_type_ietf_values_e)
	?allocate_buffer@eap_variable_data_c@@AAE?AW4eap_status_e@@K@Z @ 906 NONAME ; enum eap_status_e eap_variable_data_c::allocate_buffer(unsigned long)
	?get_md4_digest_length@eap_am_crypto_symbian_c@@UAEKPAVeap_variable_data_c@@@Z @ 907 NONAME ; unsigned long eap_am_crypto_symbian_c::get_md4_digest_length(class eap_variable_data_c *)
	?set_authentication_error@eap_state_notification_c@@UAEXW4eap_status_e@@@Z @ 908 NONAME ; void eap_state_notification_c::set_authentication_error(enum eap_status_e)
	?rc4_set_key@eap_am_crypto_symbian_c@@UAE?AW4eap_status_e@@PAVeap_variable_data_c@@PBV3@@Z @ 909 NONAME ; enum eap_status_e eap_am_crypto_symbian_c::rc4_set_key(class eap_variable_data_c *, class eap_variable_data_c const *)
	?GetIssuerNamePresent@EapCertificateEntry@@QBEHXZ @ 910 NONAME ; int EapCertificateEntry::GetIssuerNamePresent(void) const
	?get_header_length@eap_tlv_header_c@@SAKXZ @ 911 NONAME ; unsigned long eap_tlv_header_c::get_header_length(void)
	?initialize@eap_buf_chain_base_c@@AAE?AW4eap_status_e@@K@Z @ 912 NONAME ; enum eap_status_e eap_buf_chain_base_c::initialize(unsigned long)
	??0eap_expanded_type_c@@QAE@XZ @ 913 NONAME ; eap_expanded_type_c::eap_expanded_type_c(void)
	??0eap_state_notification_c@@QAE@PAVabs_eap_am_tools_c@@PBVeap_am_network_id_c@@_NW4eap_state_notification_eap_e@@W4eap_protocol_layer_e@@Veap_expanded_type_c@@KKE2@Z @ 914 NONAME ; eap_state_notification_c::eap_state_notification_c(class abs_eap_am_tools_c *, class eap_am_network_id_c const *, bool, enum eap_state_notification_eap_e, enum eap_protocol_layer_e, class eap_expanded_type_c, unsigned long, unsigned long, unsigned char, bool)
	?copy@eap_am_crypto_sha1_c@@QAEPAV1@XZ @ 915 NONAME ; class eap_am_crypto_sha1_c * eap_am_crypto_sha1_c::copy(void)
	?read_parameter_data@eap_process_tlv_message_data_c@@QAE?AW4eap_status_e@@PBV?$eap_array_c@Veap_tlv_header_c@@@@KPAV?$eap_array_c@G@@@Z @ 916 NONAME ; enum eap_status_e eap_process_tlv_message_data_c::read_parameter_data(class eap_array_c<class eap_tlv_header_c> const *, unsigned long, class eap_array_c<unsigned short> *)
	??1eap_variable_data_c@@UAE@XZ @ 917 NONAME ; eap_variable_data_c::~eap_variable_data_c(void)
	?object_decrease_reference_count@eap_am_memory_store_tlv_data_c@@QAEKXZ @ 918 NONAME ; unsigned long eap_am_memory_store_tlv_data_c::object_decrease_reference_count(void)
	?restart_with_new_type@eap_core_c@@AAE?AW4eap_status_e@@Veap_expanded_type_c@@PBVeap_am_network_id_c@@E@Z @ 919 NONAME ; enum eap_status_e eap_core_c::restart_with_new_type(class eap_expanded_type_c, class eap_am_network_id_c const *, unsigned char)
	??0eap_core_retransmission_c@@QAE@PAVabs_eap_am_tools_c@@PBVeap_am_network_id_c@@PAVeap_buf_chain_wr_c@@KKKKW4eap_code_value_e@@EVeap_expanded_type_c@@@Z @ 920 NONAME ; eap_core_retransmission_c::eap_core_retransmission_c(class abs_eap_am_tools_c *, class eap_am_network_id_c const *, class eap_buf_chain_wr_c *, unsigned long, unsigned long, unsigned long, unsigned long, enum eap_code_value_e, unsigned char, class eap_expanded_type_c)
	?init@eap_variable_data_c@@QAE?AW4eap_status_e@@K@Z @ 921 NONAME ; enum eap_status_e eap_variable_data_c::init(unsigned long)
	?get_eap_code_string@eap_header_string_c@@SAPBDW4eap_code_value_e@@@Z @ 922 NONAME ; char const * eap_header_string_c::get_eap_code_string(enum eap_code_value_e)
	??4TEapExpandedType@@QAEAAV0@ABV?$TBufC8@$07@@@Z @ 923 NONAME ; class TEapExpandedType & TEapExpandedType::operator=(class TBufC8<8> const &)
	??1network_key_and_index_c@@UAE@XZ @ 924 NONAME ; network_key_and_index_c::~network_key_and_index_c(void)
	?copy_context@eap_am_crypto_sha1_c@@AAE?AW4eap_status_e@@PBVeap_variable_data_c@@_KPBK22@Z @ 925 NONAME ; enum eap_status_e eap_am_crypto_sha1_c::copy_context(class eap_variable_data_c const *, unsigned long long, unsigned long const *, unsigned long const *, unsigned long const *)
	??0eap_network_id_selector_c@@QAE@PAVabs_eap_am_tools_c@@@Z @ 926 NONAME ; eap_network_id_selector_c::eap_network_id_selector_c(class abs_eap_am_tools_c *)
	?compare@eap_variable_data_c@@QBEJPBXK@Z @ 927 NONAME ; long eap_variable_data_c::compare(void const *, unsigned long) const
	?copy@crypto_md4_c@@UAEPAVabs_crypto_hash_algorithm_c@@XZ @ 928 NONAME ; class abs_crypto_hash_algorithm_c * crypto_md4_c::copy(void)
	?generate_g_power_to_xy@eap_am_crypto_symbian_c@@UAE?AW4eap_status_e@@PBVeap_variable_data_c@@0PAV3@PBEK2K@Z @ 929 NONAME ; enum eap_status_e eap_am_crypto_symbian_c::generate_g_power_to_xy(class eap_variable_data_c const *, class eap_variable_data_c const *, class eap_variable_data_c *, unsigned char const *, unsigned long, unsigned char const *, unsigned long)
	?directory_read@eap_am_file_input_symbian_c@@UAE?AW4eap_status_e@@PAV?$eap_array_c@Vabs_eap_file_stat_c@@@@@Z @ 930 NONAME ; enum eap_status_e eap_am_file_input_symbian_c::directory_read(class eap_array_c<class abs_eap_file_stat_c> *)
	?get_is_valid@simple_config_credential_c@@QAE_NXZ @ 931 NONAME ; bool simple_config_credential_c::get_is_valid(void)
	?set_trace_mask@eap_am_tools_c@@UAEXK@Z @ 932 NONAME ; void eap_am_tools_c::set_trace_mask(unsigned long)
	?Copy@EapCertificateEntry@@QAEPAV1@XZ @ 933 NONAME ; class EapCertificateEntry * EapCertificateEntry::Copy(void)
	?dsa_verify@eap_am_crypto_symbian_c@@UAE?AW4eap_status_e@@PAVeap_variable_data_c@@PBV3@11111@Z @ 934 NONAME ; enum eap_status_e eap_am_crypto_symbian_c::dsa_verify(class eap_variable_data_c *, class eap_variable_data_c const *, class eap_variable_data_c const *, class eap_variable_data_c const *, class eap_variable_data_c const *, class eap_variable_data_c const *, class eap_variable_data_c const *)
	?file_read_word@eap_am_file_input_symbian_c@@UAE?AW4eap_status_e@@PAVeap_variable_data_c@@@Z @ 935 NONAME ; enum eap_status_e eap_am_file_input_symbian_c::file_read_word(class eap_variable_data_c *)
	?set_is_valid@eap_am_memory_store_c@@AAEXXZ @ 936 NONAME ; void eap_am_memory_store_c::set_is_valid(void)
	?set_buffer@eap_variable_data_c@@QAE?AW4eap_status_e@@PBV1@@Z @ 937 NONAME ; enum eap_status_e eap_variable_data_c::set_buffer(class eap_variable_data_c const *)
	?get_network_key@network_key_and_index_c@@QAEPAVeap_variable_data_c@@XZ @ 938 NONAME ; class eap_variable_data_c * network_key_and_index_c::get_network_key(void)
	?handle_eap_identity_response@eap_core_c@@AAE?AW4eap_status_e@@PAVeap_base_type_c@@Veap_expanded_type_c@@PBVeap_am_network_id_c@@PAVeap_header_wr_c@@K@Z @ 939 NONAME ; enum eap_status_e eap_core_c::handle_eap_identity_response(class eap_base_type_c *, class eap_expanded_type_c, class eap_am_network_id_c const *, class eap_header_wr_c *, unsigned long)
	?send_eap_identity_request@eap_session_core_c@@UAE?AW4eap_status_e@@PBVeap_am_network_id_c@@@Z @ 940 NONAME ; enum eap_status_e eap_session_core_c::send_eap_identity_request(class eap_am_network_id_c const *)
	?set_type_data_length@eap_header_base_c@@QAEXG_N@Z @ 941 NONAME ; void eap_header_base_c::set_type_data_length(unsigned short, bool)
	?get_eap_expanded_type_size@eap_expanded_type_c@@SAKXZ @ 942 NONAME ; unsigned long eap_expanded_type_c::get_eap_expanded_type_size(void)
	?init_retransmission@eap_core_c@@AAE?AW4eap_status_e@@PBVeap_am_network_id_c@@PAVeap_buf_chain_wr_c@@KKW4eap_code_value_e@@EVeap_expanded_type_c@@@Z @ 943 NONAME ; enum eap_status_e eap_core_c::init_retransmission(class eap_am_network_id_c const *, class eap_buf_chain_wr_c *, unsigned long, unsigned long, enum eap_code_value_e, unsigned char, class eap_expanded_type_c)
	??1crypto_md4_c@@UAE@XZ @ 944 NONAME ; crypto_md4_c::~crypto_md4_c(void)
	?leave_trace_mutex@eap_am_tools_symbian_c@@QAEXXZ @ 945 NONAME ; void eap_am_tools_symbian_c::leave_trace_mutex(void)
	?get_is_valid@eap_am_memory_store_c@@QAE_NXZ @ 946 NONAME ; bool eap_am_memory_store_c::get_is_valid(void)
	?get_digest_length@crypto_sha1_c@@UAEKXZ @ 947 NONAME ; unsigned long crypto_sha1_c::get_digest_length(void)
	?timer_delete_data@eap_core_c@@UAE?AW4eap_status_e@@KPAX@Z @ 948 NONAME ; enum eap_status_e eap_core_c::timer_delete_data(unsigned long, void *)
	??0eap_buf_chain_base_c@@QAE@W4eap_read_buffer_e@@PAVabs_eap_am_tools_c@@K@Z @ 949 NONAME ; eap_buf_chain_base_c::eap_buf_chain_base_c(enum eap_read_buffer_e, class abs_eap_am_tools_c *, unsigned long)
	?set_Encryption_Type@simple_config_credential_c@@QAEXW4simple_config_Encryption_Type_e@@@Z @ 950 NONAME ; void simple_config_credential_c::set_Encryption_Type(enum simple_config_Encryption_Type_e)
	??0eap_am_file_input_symbian_c@@QAE@PAVabs_eap_am_tools_c@@@Z @ 951 NONAME ; eap_am_file_input_symbian_c::eap_am_file_input_symbian_c(class abs_eap_am_tools_c *)
	?get_ethernet_header@eap_buf_chain_wr_c@@QAEPAEXZ @ 952 NONAME ; unsigned char * eap_buf_chain_wr_c::get_ethernet_header(void)
	?get_is_valid@eap_process_tlv_message_data_c@@QAE_NXZ @ 953 NONAME ; bool eap_process_tlv_message_data_c::get_is_valid(void)
	?tls_prf_A_value@crypto_tls_base_prf_c@@QAE?AW4eap_status_e@@PAVabs_crypto_hmac_algorithm_c@@PAVeap_variable_data_c@@11@Z @ 954 NONAME ; enum eap_status_e crypto_tls_base_prf_c::tls_prf_A_value(class abs_crypto_hmac_algorithm_c *, class eap_variable_data_c *, class eap_variable_data_c *, class eap_variable_data_c *)
	?convert_eapol_error_to_am_error@eap_am_tools_symbian_c@@UAEJW4eap_status_e@@@Z @ 955 NONAME ; long eap_am_tools_symbian_c::convert_eapol_error_to_am_error(enum eap_status_e)
	?get_current_state_string@eap_state_notification_c@@UBEPBDXZ @ 956 NONAME ; char const * eap_state_notification_c::get_current_state_string(void) const
	?get_type@eap_config_value_c@@QAE?AW4eap_configure_type_e@@XZ @ 957 NONAME ; enum eap_configure_type_e eap_config_value_c::get_type(void)
	?set_data_length@eap_variable_data_c@@QAE?AW4eap_status_e@@K@Z @ 958 NONAME ; enum eap_status_e eap_variable_data_c::set_data_length(unsigned long)
	?set_key_tx_bit@eapol_session_key_c@@QAEX_N@Z @ 959 NONAME ; void eapol_session_key_c::set_key_tx_bit(bool)
	?aes_cleanup@eap_am_crypto_symbian_c@@UAE?AW4eap_status_e@@PAVeap_variable_data_c@@@Z @ 960 NONAME ; enum eap_status_e eap_am_crypto_symbian_c::aes_cleanup(class eap_variable_data_c *)
	?get_data_offset@eap_buf_chain_rd_c@@QBEPBEKK@Z @ 961 NONAME ; unsigned char const * eap_buf_chain_rd_c::get_data_offset(unsigned long, unsigned long) const
	?cancel_timer@eap_core_c@@UAE?AW4eap_status_e@@PAVabs_eap_base_timer_c@@K@Z @ 962 NONAME ; enum eap_status_e eap_core_c::cancel_timer(class abs_eap_base_timer_c *, unsigned long)
	??0eapol_ethernet_header_base_c@@QAE@PAVabs_eap_am_tools_c@@PAXK@Z @ 963 NONAME ; eapol_ethernet_header_base_c::eapol_ethernet_header_base_c(class abs_eap_am_tools_c *, void *, unsigned long)
	?get_data_offset@eap_variable_data_c@@QBEPAEKK@Z @ 964 NONAME ; unsigned char * eap_variable_data_c::get_data_offset(unsigned long, unsigned long) const
	?sha1_copy_context@eap_am_crypto_symbian_c@@UAE?AW4eap_status_e@@PAVeap_variable_data_c@@PBV3@@Z @ 965 NONAME ; enum eap_status_e eap_am_crypto_symbian_c::sha1_copy_context(class eap_variable_data_c *, class eap_variable_data_c const *)
	??0crypto_eap_fast_hmac_sha1_prf_c@@QAE@PAVabs_eap_am_tools_c@@@Z @ 966 NONAME ; crypto_eap_fast_hmac_sha1_prf_c::crypto_eap_fast_hmac_sha1_prf_c(class abs_eap_am_tools_c *)
	?tls_prf_cleanup@crypto_tls_base_prf_c@@QAE?AW4eap_status_e@@XZ @ 967 NONAME ; enum eap_status_e crypto_tls_base_prf_c::tls_prf_cleanup(void)
	?get_is_valid@network_key_and_index_c@@QAE_NXZ @ 968 NONAME ; bool network_key_and_index_c::get_is_valid(void)
	?internal_encrypt_data@crypto_cbc_c@@AAE?AW4eap_status_e@@PBXPAXK@Z @ 969 NONAME ; enum eap_status_e crypto_cbc_c::internal_encrypt_data(void const *, void *, unsigned long)
	??0eap_simple_config_trace_string_c@@QAE@XZ @ 970 NONAME ; eap_simple_config_trace_string_c::eap_simple_config_trace_string_c(void)
	?add_parameter_data@eap_process_tlv_message_data_c@@QAE?AW4eap_status_e@@W4eapol_key_802_11_authentication_mode_e@@@Z @ 971 NONAME ; enum eap_status_e eap_process_tlv_message_data_c::add_parameter_data(enum eapol_key_802_11_authentication_mode_e)
	?set_encryption_key@crypto_aes_c@@UAE?AW4eap_status_e@@PBXK@Z @ 972 NONAME ; enum eap_status_e crypto_aes_c::set_encryption_key(void const *, unsigned long)
	?GetPrimaryName@EapCertificateEntry@@QBEPBVTDes16@@XZ @ 973 NONAME ; class TDes16 const * EapCertificateEntry::GetPrimaryName(void) const
	??1eap_am_crypto_sha_256_c@@UAE@XZ @ 974 NONAME ; eap_am_crypto_sha_256_c::~eap_am_crypto_sha_256_c(void)
	?get_new_key_from_sha@crypto_nt_hash_c@@QAE?AW4eap_status_e@@PBVeap_variable_data_c@@0PAV3@K@Z @ 975 NONAME ; enum eap_status_e crypto_nt_hash_c::get_new_key_from_sha(class eap_variable_data_c const *, class eap_variable_data_c const *, class eap_variable_data_c *, unsigned long)
	?shutdown@eap_am_memory_store_c@@QAE?AW4eap_status_e@@XZ @ 976 NONAME ; enum eap_status_e eap_am_memory_store_c::shutdown(void)
	?reset_operation@eap_core_c@@CA?AW4eap_status_e@@PAVeap_base_type_c@@PAVabs_eap_am_tools_c@@@Z @ 977 NONAME ; enum eap_status_e eap_core_c::reset_operation(class eap_base_type_c *, class abs_eap_am_tools_c *)
	?cbc_xor_block@crypto_cbc_c@@AAEXPBXPAXKK@Z @ 978 NONAME ; void crypto_cbc_c::cbc_xor_block(void const *, void *, unsigned long, unsigned long)
	?close_crypto_memory_leaks@eap_am_crypto_symbian_c@@AAEXXZ @ 979 NONAME ; void eap_am_crypto_symbian_c::close_crypto_memory_leaks(void)
	?unset_marked_removed@eap_core_c@@QAEXXZ @ 980 NONAME ; void eap_core_c::unset_marked_removed(void)
	?directory_open@eap_am_file_input_symbian_c@@UAE?AW4eap_status_e@@PBVeap_variable_data_c@@@Z @ 981 NONAME ; enum eap_status_e eap_am_file_input_symbian_c::directory_open(class eap_variable_data_c const *)
	?memory_store_remove_data@eap_am_tools_c@@UAE?AW4eap_status_e@@PBVeap_variable_data_c@@@Z @ 982 NONAME ; enum eap_status_e eap_am_tools_c::memory_store_remove_data(class eap_variable_data_c const *)
	?set_is_reserved@eap_am_mutex_reference_c@@QAEX_N@Z @ 983 NONAME ; void eap_am_mutex_reference_c::set_is_reserved(bool)
	?hash_update@crypto_md4_c@@UAE?AW4eap_status_e@@PBXK@Z @ 984 NONAME ; enum eap_status_e crypto_md4_c::hash_update(void const *, unsigned long)
	?set_encrypt@eap_buf_chain_base_c@@QAEX_N@Z @ 985 NONAME ; void eap_buf_chain_base_c::set_encrypt(bool)
	?set_code@eap_header_base_c@@QAEXW4eap_code_value_e@@@Z @ 986 NONAME ; void eap_header_base_c::set_code(enum eap_code_value_e)
	?directory_close@eap_am_file_input_symbian_c@@UAE?AW4eap_status_e@@XZ @ 987 NONAME ; enum eap_status_e eap_am_file_input_symbian_c::directory_close(void)
	?get_parameter_data@eap_process_tlv_message_data_c@@QAE?AW4eap_status_e@@PBVeap_tlv_header_c@@PAVeap_am_network_id_c@@@Z @ 988 NONAME ; enum eap_status_e eap_process_tlv_message_data_c::get_parameter_data(class eap_tlv_header_c const *, class eap_am_network_id_c *)
	?parse_message_data@eap_tlv_message_data_c@@QAE?AW4eap_status_e@@PAV?$eap_array_c@Veap_tlv_header_c@@@@@Z @ 989 NONAME ; enum eap_status_e eap_tlv_message_data_c::parse_message_data(class eap_array_c<class eap_tlv_header_c> *)
	??1crypto_kd_hmac_sha256_c@@UAE@XZ @ 990 NONAME ; crypto_kd_hmac_sha256_c::~crypto_kd_hmac_sha256_c(void)
	?add_parameter_data@eap_process_tlv_message_data_c@@QAE?AW4eap_status_e@@W4eap_tlv_message_type_e@@K@Z @ 991 NONAME ; enum eap_status_e eap_process_tlv_message_data_c::add_parameter_data(enum eap_tlv_message_type_e, unsigned long)
	?check_header@eap_tlv_header_c@@UBE?AW4eap_status_e@@XZ @ 992 NONAME ; enum eap_status_e eap_tlv_header_c::check_header(void) const
	??1EapCertificateEntry@@UAE@XZ @ 993 NONAME ; EapCertificateEntry::~EapCertificateEntry(void)
	?eap_write_u24_t_network_order@@YA?AW4eap_status_e@@PAXKK@Z @ 994 NONAME ; enum eap_status_e eap_write_u24_t_network_order(void *, unsigned long, unsigned long)
	?get_is_valid@crypto_sha_256_c@@UAE_NXZ @ 995 NONAME ; bool crypto_sha_256_c::get_is_valid(void)
	?new_abs_eap_am_tools_c@abs_eap_am_tools_c@@SAPAV1@XZ @ 996 NONAME ; class abs_eap_am_tools_c * abs_eap_am_tools_c::new_abs_eap_am_tools_c(void)
	?SetIsValid@EapCertificateEntry@@QAEHH@Z @ 997 NONAME ; int EapCertificateEntry::SetIsValid(int)
	?copy_message_digest@eap_am_crypto_md4_c@@AAE?AW4eap_status_e@@PAXPAK@Z @ 998 NONAME ; enum eap_status_e eap_am_crypto_md4_c::copy_message_digest(void *, unsigned long *)
	?timer_delete_data@eap_session_core_c@@UAE?AW4eap_status_e@@KPAX@Z @ 999 NONAME ; enum eap_status_e eap_session_core_c::timer_delete_data(unsigned long, void *)
	?convert_am_error_to_eapol_error@eap_am_tools_symbian_c@@UAE?AW4eap_status_e@@J@Z @ 1000 NONAME ; enum eap_status_e eap_am_tools_symbian_c::convert_am_error_to_eapol_error(long)
	?sha_256_final@eap_am_crypto_symbian_c@@UAE?AW4eap_status_e@@PAVeap_variable_data_c@@PAEPAK@Z @ 1001 NONAME ; enum eap_status_e eap_am_crypto_symbian_c::sha_256_final(class eap_variable_data_c *, unsigned char *, unsigned long *)
	??0eapol_session_key_c@@QAE@PAVabs_eap_am_tools_c@@@Z @ 1002 NONAME ; eapol_session_key_c::eapol_session_key_c(class abs_eap_am_tools_c *)
	?copy_context@crypto_md5_c@@QAE?AW4eap_status_e@@PBVeap_variable_data_c@@@Z @ 1003 NONAME ; enum eap_status_e crypto_md5_c::copy_context(class eap_variable_data_c const *)
	?get_destination_length@eapol_ethernet_header_base_c@@QBEKXZ @ 1004 NONAME ; unsigned long eapol_ethernet_header_base_c::get_destination_length(void) const
	?eap_host_to_little_endian_long@@YAKK@Z @ 1005 NONAME ; unsigned long eap_host_to_little_endian_long(unsigned long)
	?read_parameter_data@eap_process_tlv_message_data_c@@QAE?AW4eap_status_e@@PBV?$eap_array_c@Veap_tlv_header_c@@@@KPAV?$eap_array_c@Vsimple_config_credential_c@@@@@Z @ 1006 NONAME ; enum eap_status_e eap_process_tlv_message_data_c::read_parameter_data(class eap_array_c<class eap_tlv_header_c> const *, unsigned long, class eap_array_c<class simple_config_credential_c> *)
	?set_is_valid@crypto_tls_prf_c@@AAEXXZ @ 1007 NONAME ; void crypto_tls_prf_c::set_is_valid(void)
	?set_is_invalid@crypto_rc4_c@@AAEXXZ @ 1008 NONAME ; void crypto_rc4_c::set_is_invalid(void)
	??1eap_network_id_selector_c@@UAE@XZ @ 1009 NONAME ; eap_network_id_selector_c::~eap_network_id_selector_c(void)
	?get_allow_send_eap_success@eap_state_notification_c@@UBE_NXZ @ 1010 NONAME ; bool eap_state_notification_c::get_allow_send_eap_success(void) const
	?get_type@eap_type_selection_c@@QBE?AVeap_expanded_type_c@@XZ @ 1011 NONAME ; class eap_expanded_type_c eap_type_selection_c::get_type(void) const
	?get_authentication_error@eap_state_notification_c@@UBE?AW4eap_status_e@@XZ @ 1012 NONAME ; enum eap_status_e eap_state_notification_c::get_authentication_error(void) const
	?get_source_id@eap_am_network_id_c@@QBEPBVeap_variable_data_c@@XZ @ 1013 NONAME ; class eap_variable_data_c const * eap_am_network_id_c::get_source_id(void) const
	?get_protocol_string@eap_state_notification_c@@SAPBDKK@Z @ 1014 NONAME ; char const * eap_state_notification_c::get_protocol_string(unsigned long, unsigned long)
	?get_parameter_data@eap_process_tlv_message_data_c@@QAE?AW4eap_status_e@@PBVeap_tlv_header_c@@PAVeap_expanded_type_c@@@Z @ 1015 NONAME ; enum eap_status_e eap_process_tlv_message_data_c::get_parameter_data(class eap_tlv_header_c const *, class eap_expanded_type_c *)
	?add_structured_parameter_header@eap_process_tlv_message_data_c@@QAE?AW4eap_status_e@@W4eap_tlv_message_type_e@@K@Z @ 1016 NONAME ; enum eap_status_e eap_process_tlv_message_data_c::add_structured_parameter_header(enum eap_tlv_message_type_e, unsigned long)
	?client_proposes_eap_types@eap_core_c@@AAE?AW4eap_status_e@@PBVeap_am_network_id_c@@E@Z @ 1017 NONAME ; enum eap_status_e eap_core_c::client_proposes_eap_types(class eap_am_network_id_c const *, unsigned char)
	??0eapol_session_key_c@@QAE@PAVabs_eap_am_tools_c@@PAVeap_variable_data_c@@W4eapol_key_type_e@@K_NPBEK@Z @ 1018 NONAME ; eapol_session_key_c::eapol_session_key_c(class abs_eap_am_tools_c *, class eap_variable_data_c *, enum eapol_key_type_e, unsigned long, bool, unsigned char const *, unsigned long)
	?get_is_reserved@eap_am_mutex_reference_c@@QAE_NXZ @ 1019 NONAME ; bool eap_am_mutex_reference_c::get_is_reserved(void)
	?set_key@eapol_session_key_c@@QAE?AW4eap_status_e@@PBVeap_variable_data_c@@@Z @ 1020 NONAME ; enum eap_status_e eapol_session_key_c::set_key(class eap_variable_data_c const *)
	?set_is_invalid@crypto_rsa_c@@AAEXXZ @ 1021 NONAME ; void crypto_rsa_c::set_is_invalid(void)
	?eap_write_u32_t_network_order@@YA?AW4eap_status_e@@PAXKK@Z @ 1022 NONAME ; enum eap_status_e eap_write_u32_t_network_order(void *, unsigned long, unsigned long)
	?get_hardware_ticks_of_second@eap_am_tools_symbian_c@@UAE_KXZ @ 1023 NONAME ; unsigned long long eap_am_tools_symbian_c::get_hardware_ticks_of_second(void)
	?add_parameter_data@eap_process_tlv_message_data_c@@QAE?AW4eap_status_e@@PBV?$eap_array_c@Veap_expanded_type_c@@@@@Z @ 1024 NONAME ; enum eap_status_e eap_process_tlv_message_data_c::add_parameter_data(class eap_array_c<class eap_expanded_type_c> const *)
	??0TEapExpandedType@@QAE@ABV?$TBufC8@$07@@@Z @ 1025 NONAME ; TEapExpandedType::TEapExpandedType(class TBufC8<8> const &)
	?get_data@eap_am_memory_store_c@@UAE?AW4eap_status_e@@PBVeap_variable_data_c@@PAVeap_tlv_message_data_c@@@Z @ 1026 NONAME ; enum eap_status_e eap_am_memory_store_c::get_data(class eap_variable_data_c const *, class eap_tlv_message_data_c *)
	?aes_block_size@eap_am_crypto_symbian_c@@UAEKXZ @ 1027 NONAME ; unsigned long eap_am_crypto_symbian_c::aes_block_size(void)
	?get_global_mutex@eap_am_tools_symbian_c@@UAEPAVabs_eap_am_mutex_c@@XZ @ 1028 NONAME ; class abs_eap_am_mutex_c * eap_am_tools_symbian_c::get_global_mutex(void)
	?ConvertExpandedEAPTypesToInternalTypes@CEapConversion@@SAHPAVabs_eap_am_tools_c@@PBV?$RArray@VTEapExpandedType@@@@PAV?$eap_array_c@Veap_expanded_type_c@@@@@Z @ 1029 NONAME ; int CEapConversion::ConvertExpandedEAPTypesToInternalTypes(class abs_eap_am_tools_c *, class RArray<class TEapExpandedType> const *, class eap_array_c<class eap_expanded_type_c> *)
	?get_encrypts@crypto_aes_c@@UAE_NXZ @ 1030 NONAME ; bool crypto_aes_c::get_encrypts(void)
	?add_parameter_data@eap_process_tlv_message_data_c@@QAE?AW4eap_status_e@@E@Z @ 1031 NONAME ; enum eap_status_e eap_process_tlv_message_data_c::add_parameter_data(unsigned char)
	?eap_shift_right_64_bit@@YA_K_KK@Z @ 1032 NONAME ; unsigned long long eap_shift_right_64_bit(unsigned long long, unsigned long)
	?add_rogue_ap@eap_core_c@@UAE?AW4eap_status_e@@AAV?$eap_array_c@Veap_rogue_ap_entry_c@@@@@Z @ 1033 NONAME ; enum eap_status_e eap_core_c::add_rogue_ap(class eap_array_c<class eap_rogue_ap_entry_c> &)
	?timer_expired@eap_am_memory_store_c@@UAE?AW4eap_status_e@@KPAX@Z @ 1034 NONAME ; enum eap_status_e eap_am_memory_store_c::timer_expired(unsigned long, void *)
	?GetSubjectKeyId@EapCertificateEntry@@QBEABV?$TBuf8@$0BE@@@XZ @ 1035 NONAME ; class TBuf8<20> const & EapCertificateEntry::GetSubjectKeyId(void) const
	??9eap_expanded_type_c@@QBE_NW4eap_type_ietf_values_e@@@Z @ 1036 NONAME ; bool eap_expanded_type_c::operator!=(enum eap_type_ietf_values_e) const
	?get_sequence_number@eapol_session_key_c@@QBEPBVeap_variable_data_c@@XZ @ 1037 NONAME ; class eap_variable_data_c const * eapol_session_key_c::get_sequence_number(void) const
	?tls_prf_one_round@crypto_tls_base_prf_c@@QAE?AW4eap_status_e@@PAVabs_crypto_hmac_algorithm_c@@PBVeap_variable_data_c@@PAV4@2PAXK@Z @ 1038 NONAME ; enum eap_status_e crypto_tls_base_prf_c::tls_prf_one_round(class abs_crypto_hmac_algorithm_c *, class eap_variable_data_c const *, class eap_variable_data_c *, class eap_variable_data_c *, void *, unsigned long)
	??1crypto_rc4_c@@UAE@XZ @ 1039 NONAME ; crypto_rc4_c::~crypto_rc4_c(void)
	?memchr@eap_am_tools_symbian_c@@UAEPAXPBXEK@Z @ 1040 NONAME ; void * eap_am_tools_symbian_c::memchr(void const *, unsigned char, unsigned long)
	??1eap_status_string_c@@UAE@XZ @ 1041 NONAME ; eap_status_string_c::~eap_status_string_c(void)
	?get_buffer@eap_variable_data_c@@QBEPAEK@Z @ 1042 NONAME ; unsigned char * eap_variable_data_c::get_buffer(unsigned long) const
	?packet_data_crypto_keys@eap_session_core_c@@UAE?AW4eap_status_e@@PBVeap_am_network_id_c@@PBVeap_master_session_key_c@@@Z @ 1043 NONAME ; enum eap_status_e eap_session_core_c::packet_data_crypto_keys(class eap_am_network_id_c const *, class eap_master_session_key_c const *)
	??1eapol_header_wr_c@@UAE@XZ @ 1044 NONAME ; eapol_header_wr_c::~eapol_header_wr_c(void)
	?send_eap_identity_request@eap_core_c@@QAE?AW4eap_status_e@@PBVeap_am_network_id_c@@@Z @ 1045 NONAME ; enum eap_status_e eap_core_c::send_eap_identity_request(class eap_am_network_id_c const *)
	?set_key_index@eapol_session_key_c@@QAEXK@Z @ 1046 NONAME ; void eapol_session_key_c::set_key_index(unsigned long)
	?get_next_retransmission_time@eap_core_retransmission_c@@QAEKXZ @ 1047 NONAME ; unsigned long eap_core_retransmission_c::get_next_retransmission_time(void)
	??1crypto_rsa_c@@UAE@XZ @ 1048 NONAME ; crypto_rsa_c::~crypto_rsa_c(void)
	?get_eap_type@eap_core_retransmission_c@@QBE?AVeap_expanded_type_c@@XZ @ 1049 NONAME ; class eap_expanded_type_c eap_core_retransmission_c::get_eap_type(void) const
	?get_marked_removed@eap_core_c@@QAE_NXZ @ 1050 NONAME ; bool eap_core_c::get_marked_removed(void)
	?sign@crypto_dsa_c@@QAE?AW4eap_status_e@@PBVeap_variable_data_c@@0PAV3@@Z @ 1051 NONAME ; enum eap_status_e crypto_dsa_c::sign(class eap_variable_data_c const *, class eap_variable_data_c const *, class eap_variable_data_c *)
	??0eap_network_id_selector_c@@QAE@PAVabs_eap_am_tools_c@@PBV0@@Z @ 1052 NONAME ; eap_network_id_selector_c::eap_network_id_selector_c(class abs_eap_am_tools_c *, class eap_network_id_selector_c const *)
	?get_buffer_length@eap_variable_data_c@@QBEKXZ @ 1053 NONAME ; unsigned long eap_variable_data_c::get_buffer_length(void) const
	?set_is_valid@crypto_sha1_c@@EAEXXZ @ 1054 NONAME ; void crypto_sha1_c::set_is_valid(void)
	?set_buffer@eap_variable_data_c@@QAE?AW4eap_status_e@@PBXK_N1@Z @ 1055 NONAME ; enum eap_status_e eap_variable_data_c::set_buffer(void const *, unsigned long, bool, bool)
	?write_type@eap_expanded_type_c@@SA?AW4eap_status_e@@PAVabs_eap_am_tools_c@@KPAXK_NV1@@Z @ 1056 NONAME ; enum eap_status_e eap_expanded_type_c::write_type(class abs_eap_am_tools_c *, unsigned long, void *, unsigned long, bool, class eap_expanded_type_c)
	?sha1_update@eap_am_crypto_symbian_c@@UAE?AW4eap_status_e@@PAVeap_variable_data_c@@PBEK@Z @ 1057 NONAME ; enum eap_status_e eap_am_crypto_symbian_c::sha1_update(class eap_variable_data_c *, unsigned char const *, unsigned long)
	?add_parameter_data@eap_process_tlv_message_data_c@@QAE?AW4eap_status_e@@PBVeap_am_network_id_c@@@Z @ 1058 NONAME ; enum eap_status_e eap_process_tlv_message_data_c::add_parameter_data(class eap_am_network_id_c const *)
	?ConvertInternalTypesToExpandedEAPTypes@CEapConversion@@SAHPAVabs_eap_am_tools_c@@PBV?$eap_array_c@Veap_expanded_type_c@@@@PAV?$RArray@VTEapExpandedType@@@@@Z @ 1059 NONAME ; int CEapConversion::ConvertInternalTypesToExpandedEAPTypes(class abs_eap_am_tools_c *, class eap_array_c<class eap_expanded_type_c> const *, class RArray<class TEapExpandedType> *)
	?decrypt_block@crypto_3des_ede_c@@UAE?AW4eap_status_e@@PBXPAXK@Z @ 1060 NONAME ; enum eap_status_e crypto_3des_ede_c::decrypt_block(void const *, void *, unsigned long)
	??0eap_am_memory_store_c@@QAE@PAVabs_eap_am_tools_c@@@Z @ 1061 NONAME ; eap_am_memory_store_c::eap_am_memory_store_c(class abs_eap_am_tools_c *)
	?get_is_valid@eap_core_c@@UAE_NXZ @ 1062 NONAME ; bool eap_core_c::get_is_valid(void)
	?get_random_error_type@eap_buf_chain_base_c@@QAE?AW4eap_random_error_type@@XZ @ 1063 NONAME ; enum eap_random_error_type eap_buf_chain_base_c::get_random_error_type(void)
	?tls_prf_output@crypto_tls_sha1_prf_c@@QAE?AW4eap_status_e@@PAXK@Z @ 1064 NONAME ; enum eap_status_e crypto_tls_sha1_prf_c::tls_prf_output(void *, unsigned long)
	??1eapol_ethernet_header_rd_c@@UAE@XZ @ 1065 NONAME ; eapol_ethernet_header_rd_c::~eapol_ethernet_header_rd_c(void)
	?cancel_all_eap_sessions@eap_session_core_c@@UAE?AW4eap_status_e@@XZ @ 1066 NONAME ; enum eap_status_e eap_session_core_c::cancel_all_eap_sessions(void)
	??0crypto_rc4_c@@QAE@PAVabs_eap_am_tools_c@@@Z @ 1067 NONAME ; crypto_rc4_c::crypto_rc4_c(class abs_eap_am_tools_c *)
	??0eap_base_type_c@@QAE@PAVabs_eap_am_tools_c@@PAVabs_eap_base_type_c@@@Z @ 1068 NONAME ; eap_base_type_c::eap_base_type_c(class abs_eap_am_tools_c *, class abs_eap_base_type_c *)
	?get_network_keys@simple_config_credential_c@@QAEPAV?$eap_array_c@Vnetwork_key_and_index_c@@@@XZ @ 1069 NONAME ; class eap_array_c<class network_key_and_index_c> * simple_config_credential_c::get_network_keys(void)
	?add_data_to_offset@eap_buf_chain_base_c@@QAE?AW4eap_status_e@@KPBVeap_variable_data_c@@@Z @ 1070 NONAME ; enum eap_status_e eap_buf_chain_base_c::add_data_to_offset(unsigned long, class eap_variable_data_c const *)
	?state_notification@eap_core_c@@UAEXPBVabs_eap_state_notification_c@@@Z @ 1071 NONAME ; void eap_core_c::state_notification(class abs_eap_state_notification_c const *)
	?ConvertInternalTypeToCertificates@CEapConversion@@SAHPAVabs_eap_am_tools_c@@W4eap_certificate_type_e@eap_certificate_entry_c@@PBV?$eap_array_c@Veap_certificate_entry_c@@@@PAV?$RPointerArray@VEapCertificateEntry@@@@@Z @ 1072 NONAME ; int CEapConversion::ConvertInternalTypeToCertificates(class abs_eap_am_tools_c *, enum eap_certificate_entry_c::eap_certificate_type_e, class eap_array_c<class eap_certificate_entry_c> const *, class RPointerArray<class EapCertificateEntry> *)
	??1crypto_sha_256_c@@UAE@XZ @ 1073 NONAME ; crypto_sha_256_c::~crypto_sha_256_c(void)
	?ignore_notifications@eap_core_c@@QAEXXZ @ 1074 NONAME ; void eap_core_c::ignore_notifications(void)
	?get_digest_length@eap_am_crypto_md4_c@@QAEKXZ @ 1075 NONAME ; unsigned long eap_am_crypto_md4_c::get_digest_length(void)
	?send_eap_notification_response@eap_core_c@@AAE?AW4eap_status_e@@PBVeap_am_network_id_c@@E@Z @ 1076 NONAME ; enum eap_status_e eap_core_c::send_eap_notification_response(class eap_am_network_id_c const *, unsigned char)
	?get_header_offset@eap_core_retransmission_c@@QBEKXZ @ 1077 NONAME ; unsigned long eap_core_retransmission_c::get_header_offset(void) const
	?get_destination@eapol_ethernet_header_base_c@@QBEPAEXZ @ 1078 NONAME ; unsigned char * eapol_ethernet_header_base_c::get_destination(void) const
	?set_is_valid@crypto_3des_ede_c@@UAEXXZ @ 1079 NONAME ; void crypto_3des_ede_c::set_is_valid(void)
	?eap_md4_process_data@eap_am_crypto_md4_c@@AAE?AW4eap_status_e@@PBKK@Z @ 1080 NONAME ; enum eap_status_e eap_am_crypto_md4_c::eap_md4_process_data(unsigned long const *, unsigned long)
	?get_message_data@eap_tlv_message_data_c@@QBEPAXXZ @ 1081 NONAME ; void * eap_tlv_message_data_c::get_message_data(void) const
	?set_eap_failure_timeout@eap_core_c@@AAE?AW4eap_status_e@@XZ @ 1082 NONAME ; enum eap_status_e eap_core_c::set_eap_failure_timeout(void)
	?snprintf@eap_am_tools_symbian_c@@UAAKPAEKPBDZZ @ 1083 NONAME ; unsigned long eap_am_tools_symbian_c::snprintf(unsigned char *, unsigned long, char const *, ...)
	?set_random_error_type@eap_buf_chain_base_c@@QAEXW4eap_random_error_type@@@Z @ 1084 NONAME ; void eap_buf_chain_base_c::set_random_error_type(enum eap_random_error_type)
	?create_new_session@eap_session_core_c@@AAEPAVeap_core_c@@PBVeap_am_network_id_c@@@Z @ 1085 NONAME ; class eap_core_c * eap_session_core_c::create_new_session(class eap_am_network_id_c const *)
	?copy_context@crypto_sha1_c@@QAE?AW4eap_status_e@@PBVeap_variable_data_c@@@Z @ 1086 NONAME ; enum eap_status_e crypto_sha1_c::copy_context(class eap_variable_data_c const *)
	?cleanup@crypto_dsa_c@@QAE?AW4eap_status_e@@XZ @ 1087 NONAME ; enum eap_status_e crypto_dsa_c::cleanup(void)
	?rsa_decrypt_with_private_key@eap_am_crypto_symbian_c@@UAE?AW4eap_status_e@@PAVeap_variable_data_c@@PBV3@10@Z @ 1088 NONAME ; enum eap_status_e eap_am_crypto_symbian_c::rsa_decrypt_with_private_key(class eap_variable_data_c *, class eap_variable_data_c const *, class eap_variable_data_c const *, class eap_variable_data_c *)
	?check_padding_bytes@crypto_cbc_c@@UAE?AW4eap_status_e@@PBXKE@Z @ 1089 NONAME ; enum eap_status_e crypto_cbc_c::check_padding_bytes(void const *, unsigned long, unsigned char)
	?get_parameter_data@eap_process_tlv_message_data_c@@QAE?AW4eap_status_e@@PBVeap_tlv_header_c@@PAV?$eap_array_c@Veap_certificate_entry_c@@@@@Z @ 1090 NONAME ; enum eap_status_e eap_process_tlv_message_data_c::get_parameter_data(class eap_tlv_header_c const *, class eap_array_c<class eap_certificate_entry_c> *)
	?decrypt_block@crypto_aes_c@@UAE?AW4eap_status_e@@PBXPAXK@Z @ 1091 NONAME ; enum eap_status_e crypto_aes_c::decrypt_block(void const *, void *, unsigned long)
	?GetIssuerName@EapCertificateEntry@@QBEPBVTDes16@@XZ @ 1092 NONAME ; class TDes16 const * EapCertificateEntry::GetIssuerName(void) const
	?ConvertInternalTypesToHBufC8@CEapConversion@@SAHPAVabs_eap_am_tools_c@@PBV?$eap_array_c@Veap_expanded_type_c@@@@PAPAVHBufC8@@@Z @ 1093 NONAME ; int CEapConversion::ConvertInternalTypesToHBufC8(class abs_eap_am_tools_c *, class eap_array_c<class eap_expanded_type_c> const *, class HBufC8 * *)
	?tls_prf_output@crypto_tls_md5_prf_c@@QAE?AW4eap_status_e@@PAXK@Z @ 1094 NONAME ; enum eap_status_e crypto_tls_md5_prf_c::tls_prf_output(void *, unsigned long)
	?get_buffer_size@eap_core_retransmission_c@@QBEKXZ @ 1095 NONAME ; unsigned long eap_core_retransmission_c::get_buffer_size(void) const
	?get_type_data_offset@eap_header_base_c@@QBEPAEKK@Z @ 1096 NONAME ; unsigned char * eap_header_base_c::get_type_data_offset(unsigned long, unsigned long) const
	?GetRequestType@EapMessageBuffer@@QBE?AW4TEapRequests@@XZ @ 1097 NONAME ; enum TEapRequests EapMessageBuffer::GetRequestType(void) const
	?get_header_offset@eap_core_c@@UAEKPAK0@Z @ 1098 NONAME ; unsigned long eap_core_c::get_header_offset(unsigned long *, unsigned long *)
	?get_is_valid@eap_am_tools_symbian_c@@UBE_NXZ @ 1099 NONAME ; bool eap_am_tools_symbian_c::get_is_valid(void) const
	?cancel_timer@eap_session_core_c@@UAE?AW4eap_status_e@@PAVabs_eap_base_timer_c@@K@Z @ 1100 NONAME ; enum eap_status_e eap_session_core_c::cancel_timer(class abs_eap_base_timer_c *, unsigned long)
	?read_parameter_data@eap_process_tlv_message_data_c@@QAE?AW4eap_status_e@@PBV?$eap_array_c@Veap_tlv_header_c@@@@KPAJ@Z @ 1101 NONAME ; enum eap_status_e eap_process_tlv_message_data_c::read_parameter_data(class eap_array_c<class eap_tlv_header_c> const *, unsigned long, long *)
	?get_parameter_data@eap_process_tlv_message_data_c@@QAE?AW4eap_status_e@@PBVeap_tlv_header_c@@PAE@Z @ 1102 NONAME ; enum eap_status_e eap_process_tlv_message_data_c::get_parameter_data(class eap_tlv_header_c const *, unsigned char *)
	??1eap_general_header_base_c@@UAE@XZ @ 1103 NONAME ; eap_general_header_base_c::~eap_general_header_base_c(void)
	?get_type_data_offset@eap_header_wr_c@@QBEPAEKK@Z @ 1104 NONAME ; unsigned char * eap_header_wr_c::get_type_data_offset(unsigned long, unsigned long) const
	?complete_eap_identity_query@eap_core_c@@UAE?AW4eap_status_e@@PBVeap_am_network_id_c@@PBVeap_variable_data_c@@E@Z @ 1105 NONAME ; enum eap_status_e eap_core_c::complete_eap_identity_query(class eap_am_network_id_c const *, class eap_variable_data_c const *, unsigned char)
	?SetPrimaryName@EapCertificateEntry@@QAEHABV?$TBuf@$0EA@@@@Z @ 1106 NONAME ; int EapCertificateEntry::SetPrimaryName(class TBuf<64> const &)
	?set_is_invalid@eap_am_crypto_sha1_c@@AAEXXZ @ 1107 NONAME ; void eap_am_crypto_sha1_c::set_is_invalid(void)
	?encrypt_data@crypto_rc4_c@@UAE?AW4eap_status_e@@PBXPAXK@Z @ 1108 NONAME ; enum eap_status_e crypto_rc4_c::encrypt_data(void const *, void *, unsigned long)
	?read_parameter_data@eap_process_tlv_message_data_c@@QAE?AW4eap_status_e@@PBV?$eap_array_c@Veap_tlv_header_c@@@@KPAV?$eap_array_c@Veap_certificate_entry_c@@@@@Z @ 1109 NONAME ; enum eap_status_e eap_process_tlv_message_data_c::read_parameter_data(class eap_array_c<class eap_tlv_header_c> const *, unsigned long, class eap_array_c<class eap_certificate_entry_c> *)
	?set_is_valid@eap_am_crypto_sha1_c@@AAEXXZ @ 1110 NONAME ; void eap_am_crypto_sha1_c::set_is_valid(void)
	?set_header_buffer@eap_general_header_base_c@@QAEXPAEK@Z @ 1111 NONAME ; void eap_general_header_base_c::set_header_buffer(unsigned char *, unsigned long)
	?get_parameter_data@eap_process_tlv_message_data_c@@QAE?AW4eap_status_e@@PBVeap_tlv_header_c@@PAVsimple_config_credential_c@@@Z @ 1112 NONAME ; enum eap_status_e eap_process_tlv_message_data_c::get_parameter_data(class eap_tlv_header_c const *, class simple_config_credential_c *)
	?configure@eap_am_crypto_symbian_c@@UAE?AW4eap_status_e@@XZ @ 1113 NONAME ; enum eap_status_e eap_am_crypto_symbian_c::configure(void)
	?am_cancel_timer@eap_am_tools_symbian_c@@UAE?AW4eap_status_e@@PAVabs_eap_base_timer_c@@K@Z @ 1114 NONAME ; enum eap_status_e eap_am_tools_symbian_c::am_cancel_timer(class abs_eap_base_timer_c *, unsigned long)
	?get_value_length@eap_tlv_header_c@@QBEKXZ @ 1115 NONAME ; unsigned long eap_tlv_header_c::get_value_length(void) const
	?get_is_valid@eap_am_crypto_sha1_c@@QAE_NXZ @ 1116 NONAME ; bool eap_am_crypto_sha1_c::get_is_valid(void)
	?set_copy_of_buffer@eap_variable_data_c@@QAE?AW4eap_status_e@@PBV1@@Z @ 1117 NONAME ; enum eap_status_e eap_variable_data_c::set_copy_of_buffer(class eap_variable_data_c const *)
	??1EAPSettings@@UAE@XZ @ 1118 NONAME ; EAPSettings::~EAPSettings(void)
	??1crypto_ephemeral_diffie_hellman_c@@UAE@XZ @ 1119 NONAME ; crypto_ephemeral_diffie_hellman_c::~crypto_ephemeral_diffie_hellman_c(void)
	?set_send_packet_index@eap_buf_chain_base_c@@QAEXK@Z @ 1120 NONAME ; void eap_buf_chain_base_c::set_send_packet_index(unsigned long)
	?copy_message_digest@eap_am_crypto_sha1_c@@AAE?AW4eap_status_e@@PAXPAK@Z @ 1121 NONAME ; enum eap_status_e eap_am_crypto_sha1_c::copy_message_digest(void *, unsigned long *)
	?reset_header@eap_header_wr_c@@QAEXG_N@Z @ 1122 NONAME ; void eap_header_wr_c::reset_header(unsigned short, bool)
	?get_ietf_type@eap_header_base_c@@QBE?AW4eap_type_ietf_values_e@@XZ @ 1123 NONAME ; enum eap_type_ietf_values_e eap_header_base_c::get_ietf_type(void) const
	?cleanup_3des_ede@eap_am_crypto_symbian_c@@UAE?AW4eap_status_e@@PAVeap_variable_data_c@@@Z @ 1124 NONAME ; enum eap_status_e eap_am_crypto_symbian_c::cleanup_3des_ede(class eap_variable_data_c *)
	?get_eap_code@eap_core_retransmission_c@@QBE?AW4eap_code_value_e@@XZ @ 1125 NONAME ; enum eap_code_value_e eap_core_retransmission_c::get_eap_code(void) const
	?finalize_non_aligned@crypto_cbc_c@@UAE?AW4eap_status_e@@XZ @ 1126 NONAME ; enum eap_status_e crypto_cbc_c::finalize_non_aligned(void)
	?decrypt_with_public_key@crypto_rsa_c@@QAE?AW4eap_status_e@@PBVeap_variable_data_c@@0PAV3@@Z @ 1127 NONAME ; enum eap_status_e crypto_rsa_c::decrypt_with_public_key(class eap_variable_data_c const *, class eap_variable_data_c const *, class eap_variable_data_c *)
	?get_destination@eapol_ethernet_header_wr_c@@QAEPAEXZ @ 1128 NONAME ; unsigned char * eapol_ethernet_header_wr_c::get_destination(void)
	?tls_prf_cleanup@crypto_tls_md5_prf_c@@QAE?AW4eap_status_e@@XZ @ 1129 NONAME ; enum eap_status_e crypto_tls_md5_prf_c::tls_prf_cleanup(void)
	?isspace@eap_am_tools_symbian_c@@UAE_NE@Z @ 1130 NONAME ; bool eap_am_tools_symbian_c::isspace(unsigned char)
	?set_decryption_key@crypto_cbc_c@@UAE?AW4eap_status_e@@PBXK0K@Z @ 1131 NONAME ; enum eap_status_e crypto_cbc_c::set_decryption_key(void const *, unsigned long, void const *, unsigned long)
	?set_decryption_key@crypto_3des_ede_c@@UAE?AW4eap_status_e@@PBXK@Z @ 1132 NONAME ; enum eap_status_e crypto_3des_ede_c::set_decryption_key(void const *, unsigned long)
	?set_network_key_index@network_key_and_index_c@@QAEXE@Z @ 1133 NONAME ; void network_key_and_index_c::set_network_key_index(unsigned char)
	?object_increase_reference_count@eap_config_value_c@@QAEXXZ @ 1134 NONAME ; void eap_config_value_c::object_increase_reference_count(void)
	?set_notification_string@eap_state_notification_c@@UAE?AW4eap_status_e@@PBVeap_variable_data_c@@_N@Z @ 1135 NONAME ; enum eap_status_e eap_state_notification_c::set_notification_string(class eap_variable_data_c const *, bool)
	?copy_message_data@eap_tlv_message_data_c@@QAE?AW4eap_status_e@@KPBX@Z @ 1136 NONAME ; enum eap_status_e eap_tlv_message_data_c::copy_message_data(unsigned long, void const *)
	?add_reference@eap_am_mutex_reference_c@@QAEXXZ @ 1137 NONAME ; void eap_am_mutex_reference_c::add_reference(void)
	??0EapCertificateEntry@@QAE@XZ @ 1138 NONAME ; EapCertificateEntry::EapCertificateEntry(void)
	?add_parameter_data@eap_process_tlv_message_data_c@@QAE?AW4eap_status_e@@G@Z @ 1139 NONAME ; enum eap_status_e eap_process_tlv_message_data_c::add_parameter_data(unsigned short)
	??1crypto_tls_prf_c@@UAE@XZ @ 1140 NONAME ; crypto_tls_prf_c::~crypto_tls_prf_c(void)
	?get_am_tools@eap_buf_chain_base_c@@IAEPAVabs_eap_am_tools_c@@XZ @ 1141 NONAME ; class abs_eap_am_tools_c * eap_buf_chain_base_c::get_am_tools(void)
	?get_hardware_ticks@eap_am_tools_symbian_c@@UAE_KXZ @ 1142 NONAME ; unsigned long long eap_am_tools_symbian_c::get_hardware_ticks(void)
	?get_type_data@eap_header_wr_c@@QBEPAEK@Z @ 1143 NONAME ; unsigned char * eap_header_wr_c::get_type_data(unsigned long) const
	?GetData@EapMessageBuffer@@QBEPAVHBufC8@@XZ @ 1144 NONAME ; class HBufC8 * EapMessageBuffer::GetData(void) const
	?get_message_data@eap_am_memory_store_tlv_data_c@@QBEPAXXZ @ 1145 NONAME ; void * eap_am_memory_store_tlv_data_c::get_message_data(void) const
	?hash_final@eap_am_crypto_sha1_c@@QAE?AW4eap_status_e@@PAXPAK@Z @ 1146 NONAME ; enum eap_status_e eap_am_crypto_sha1_c::hash_final(void *, unsigned long *)
	?multiply_u64@eap_am_tools_c@@UAE_K_K0@Z @ 1147 NONAME ; unsigned long long eap_am_tools_c::multiply_u64(unsigned long long, unsigned long long)
	?eap_acknowledge@eap_session_core_c@@UAE?AW4eap_status_e@@PBVeap_am_network_id_c@@@Z @ 1148 NONAME ; enum eap_status_e eap_session_core_c::eap_acknowledge(class eap_am_network_id_c const *)
	?encrypt_data@crypto_cbc_c@@UAE?AW4eap_status_e@@PBXPAXK@Z @ 1149 NONAME ; enum eap_status_e crypto_cbc_c::encrypt_data(void const *, void *, unsigned long)
	??0TEapExpandedType@@QAE@XZ @ 1150 NONAME ; TEapExpandedType::TEapExpandedType(void)
	?set_is_valid@crypto_md5_c@@EAEXXZ @ 1151 NONAME ; void crypto_md5_c::set_is_valid(void)
	?get_is_client@eap_buf_chain_base_c@@QBE_NXZ @ 1152 NONAME ; bool eap_buf_chain_base_c::get_is_client(void) const
	?set_session_timeout@eap_session_core_c@@UAE?AW4eap_status_e@@K@Z @ 1153 NONAME ; enum eap_status_e eap_session_core_c::set_session_timeout(unsigned long)
	?key_length_3des_ede@eap_am_crypto_symbian_c@@UAEKXZ @ 1154 NONAME ; unsigned long eap_am_crypto_symbian_c::key_length_3des_ede(void)
	?read_configure@eap_core_c@@UAE?AW4eap_status_e@@PBVeap_configuration_field_c@@PAVeap_variable_data_c@@@Z @ 1155 NONAME ; enum eap_status_e eap_core_c::read_configure(class eap_configuration_field_c const *, class eap_variable_data_c *)
	?SetSerialNumberPresent@EapCertificateEntry@@QAEXXZ @ 1156 NONAME ; void EapCertificateEntry::SetSerialNumberPresent(void)
	?get_notification_string@eap_state_notification_c@@UBEPBVeap_variable_data_c@@XZ @ 1157 NONAME ; class eap_variable_data_c const * eap_state_notification_c::get_notification_string(void) const
	?add_message_data_array@eap_tlv_message_data_c@@QAE?AW4eap_status_e@@KKPAV?$eap_array_c@Veap_variable_data_c@@@@@Z @ 1158 NONAME ; enum eap_status_e eap_tlv_message_data_c::add_message_data_array(unsigned long, unsigned long, class eap_array_c<class eap_variable_data_c> *)
	??1crypto_wpa_psk_password_hash_c@@UAE@XZ @ 1159 NONAME ; crypto_wpa_psk_password_hash_c::~crypto_wpa_psk_password_hash_c(void)
	?get_is_valid@crypto_random_c@@QAE_NXZ @ 1160 NONAME ; bool crypto_random_c::get_is_valid(void)
	?get_rogue_reason@eap_rogue_ap_entry_c@@QBE?AW4eap_rogue_ap_reason_e@@XZ @ 1161 NONAME ; enum eap_rogue_ap_reason_e eap_rogue_ap_entry_c::get_rogue_reason(void) const
	?get_payload_size@eap_process_tlv_message_data_c@@QBEKPBVsimple_config_credential_c@@@Z @ 1162 NONAME ; unsigned long eap_process_tlv_message_data_c::get_payload_size(class simple_config_credential_c const *) const
	?set_is_valid@crypto_aes_wrap_c@@QAEXXZ @ 1163 NONAME ; void crypto_aes_wrap_c::set_is_valid(void)
	?convert_bytes_to_hex_ascii@eap_am_tools_c@@UAE?AW4eap_status_e@@PBEKPAEPAK@Z @ 1164 NONAME ; enum eap_status_e eap_am_tools_c::convert_bytes_to_hex_ascii(unsigned char const *, unsigned long, unsigned char *, unsigned long *)
	?hash_update@eap_am_crypto_sha_256_c@@QAE?AW4eap_status_e@@PBXK@Z @ 1165 NONAME ; enum eap_status_e eap_am_crypto_sha_256_c::hash_update(void const *, unsigned long)
	?get_is_valid_data@eap_type_selection_c@@QBE_NXZ @ 1166 NONAME ; bool eap_type_selection_c::get_is_valid_data(void) const
	?trace@EapCertificateEntry@@QBEXXZ @ 1167 NONAME ; void EapCertificateEntry::trace(void) const
	?timer_delete_data@eap_am_memory_store_c@@UAE?AW4eap_status_e@@KPAX@Z @ 1168 NONAME ; enum eap_status_e eap_am_memory_store_c::timer_delete_data(unsigned long, void *)
	?hmac_update@crypto_hmac_c@@UAE?AW4eap_status_e@@PBXK@Z @ 1169 NONAME ; enum eap_status_e crypto_hmac_c::hmac_update(void const *, unsigned long)
	?eap_read_u32_t_little_endian_order@@YAKPBXK@Z @ 1170 NONAME ; unsigned long eap_read_u32_t_little_endian_order(void const *, unsigned long)
	?new_eap_session_core_c@eap_session_core_base_c@@SAPAV1@PAVabs_eap_am_tools_c@@PAVabs_eap_session_core_c@@_NK@Z @ 1171 NONAME ; class eap_session_core_base_c * eap_session_core_base_c::new_eap_session_core_c(class abs_eap_am_tools_c *, class abs_eap_session_core_c *, bool, unsigned long)
	??0eap_process_tlv_message_data_c@@QAE@PAVabs_eap_am_tools_c@@@Z @ 1172 NONAME ; eap_process_tlv_message_data_c::eap_process_tlv_message_data_c(class abs_eap_am_tools_c *)
	?GetSerialNumberWritable@EapCertificateEntry@@QAEPAVTDes16@@XZ @ 1173 NONAME ; class TDes16 * EapCertificateEntry::GetSerialNumberWritable(void)
	??1eap_base_type_c@@UAE@XZ @ 1174 NONAME ; eap_base_type_c::~eap_base_type_c(void)
	?GetSubjectKeyIdPresent@EapCertificateEntry@@QBEHXZ @ 1175 NONAME ; int EapCertificateEntry::GetSubjectKeyIdPresent(void) const
	?unload_module@eap_session_core_c@@UAE?AW4eap_status_e@@Veap_expanded_type_c@@@Z @ 1176 NONAME ; enum eap_status_e eap_session_core_c::unload_module(class eap_expanded_type_c)
	?get_payload_size@eap_process_tlv_message_data_c@@QBEKPBV?$eap_array_c@Vsimple_config_credential_c@@@@@Z @ 1177 NONAME ; unsigned long eap_process_tlv_message_data_c::get_payload_size(class eap_array_c<class simple_config_credential_c> const *) const
	?packet_process@eap_session_core_c@@UAE?AW4eap_status_e@@PBVeap_am_network_id_c@@PAVeap_general_header_base_c@@K@Z @ 1178 NONAME ; enum eap_status_e eap_session_core_c::packet_process(class eap_am_network_id_c const *, class eap_general_header_base_c *, unsigned long)
	?reset@eap_session_core_c@@UAE?AW4eap_status_e@@XZ @ 1179 NONAME ; enum eap_status_e eap_session_core_c::reset(void)
	?GetEapRequestsString@EapServerStrings@@SAPBDW4TEapRequests@@@Z @ 1180 NONAME ; char const * EapServerStrings::GetEapRequestsString(enum TEapRequests)
	?begin_db_delete@eap_am_tools_symbian_c@@QAE?AW4eap_status_e@@AAVRDbView@@@Z @ 1181 NONAME ; enum eap_status_e eap_am_tools_symbian_c::begin_db_delete(class RDbView &)
	?set_identifier@eap_header_base_c@@QAEXE@Z @ 1182 NONAME ; void eap_header_base_c::set_identifier(unsigned char)
	?am_set_timer@eap_am_tools_symbian_c@@UAE?AW4eap_status_e@@PAVabs_eap_base_timer_c@@KPAXK@Z @ 1183 NONAME ; enum eap_status_e eap_am_tools_symbian_c::am_set_timer(class abs_eap_base_timer_c *, unsigned long, void *, unsigned long)
	?read_parameter_data@eap_process_tlv_message_data_c@@QAE?AW4eap_status_e@@PBV?$eap_array_c@Veap_tlv_header_c@@@@KPAVeap_variable_data_c@@@Z @ 1184 NONAME ; enum eap_status_e eap_process_tlv_message_data_c::read_parameter_data(class eap_array_c<class eap_tlv_header_c> const *, unsigned long, class eap_variable_data_c *)
	?SetSubjectKeyId@EapCertificateEntry@@QAEHABV?$TBuf8@$0BE@@@@Z @ 1185 NONAME ; int EapCertificateEntry::SetSubjectKeyId(class TBuf8<20> const &)
	?get_MAC_address_const@simple_config_credential_c@@QBEPBVeap_variable_data_c@@XZ @ 1186 NONAME ; class eap_variable_data_c const * simple_config_credential_c::get_MAC_address_const(void) const
	??1eap_am_crypto_md4_c@@UAE@XZ @ 1187 NONAME ; eap_am_crypto_md4_c::~eap_am_crypto_md4_c(void)
	?GetIssuerNameWritable@EapCertificateEntry@@QAEPAVTDes16@@XZ @ 1188 NONAME ; class TDes16 * EapCertificateEntry::GetIssuerNameWritable(void)
	?reset_or_remove_session@eap_session_core_c@@AAE?AW4eap_status_e@@PAPAVeap_core_c@@PBVeap_network_id_selector_c@@_N@Z @ 1189 NONAME ; enum eap_status_e eap_session_core_c::reset_or_remove_session(class eap_core_c * *, class eap_network_id_selector_c const *, bool)
	??1crypto_tls_md5_prf_c@@UAE@XZ @ 1190 NONAME ; crypto_tls_md5_prf_c::~crypto_tls_md5_prf_c(void)
	??4eap_expanded_type_c@@QAEAAV0@ABV0@@Z @ 1191 NONAME ; class eap_expanded_type_c & eap_expanded_type_c::operator=(class eap_expanded_type_c const &)
	?get_type_field_length@eap_header_base_c@@QBEKXZ @ 1192 NONAME ; unsigned long eap_header_base_c::get_type_field_length(void) const
	?get_eap_identifier@eap_core_retransmission_c@@QBEEXZ @ 1193 NONAME ; unsigned char eap_core_retransmission_c::get_eap_identifier(void) const
	??0crypto_sha1_c@@QAE@PAVabs_eap_am_tools_c@@@Z @ 1194 NONAME ; crypto_sha1_c::crypto_sha1_c(class abs_eap_am_tools_c *)
	?sha_256_copy_context@eap_am_crypto_symbian_c@@UAE?AW4eap_status_e@@PAVeap_variable_data_c@@PBV3@@Z @ 1195 NONAME ; enum eap_status_e eap_am_crypto_symbian_c::sha_256_copy_context(class eap_variable_data_c *, class eap_variable_data_c const *)
	??0eap_tlv_header_c@@QAE@PAVabs_eap_am_tools_c@@PAXK@Z @ 1196 NONAME ; eap_tlv_header_c::eap_tlv_header_c(class abs_eap_am_tools_c *, void *, unsigned long)
	??0eap_status_string_c@@QAE@XZ @ 1197 NONAME ; eap_status_string_c::eap_status_string_c(void)
	??1eap_session_core_c@@UAE@XZ @ 1198 NONAME ; eap_session_core_c::~eap_session_core_c(void)
	?rc4_encrypt@eap_am_crypto_symbian_c@@UAE?AW4eap_status_e@@PBVeap_variable_data_c@@PAXK@Z @ 1199 NONAME ; enum eap_status_e eap_am_crypto_symbian_c::rc4_encrypt(class eap_variable_data_c const *, void *, unsigned long)
	?ConvertExpandedEAPTypeToInternalType@CEapConversion@@SAHPBVTEapExpandedType@@PAVeap_expanded_type_c@@@Z @ 1200 NONAME ; int CEapConversion::ConvertExpandedEAPTypeToInternalType(class TEapExpandedType const *, class eap_expanded_type_c *)
	??0eap_buf_chain_base_c@@QAE@W4eap_write_buffer_e@@PAVabs_eap_am_tools_c@@PAEK_N3K@Z @ 1201 NONAME ; eap_buf_chain_base_c::eap_buf_chain_base_c(enum eap_write_buffer_e, class abs_eap_am_tools_c *, unsigned char *, unsigned long, bool, bool, unsigned long)
	?compare@eap_expanded_type_c@@QBEJPBV1@@Z @ 1202 NONAME ; long eap_expanded_type_c::compare(class eap_expanded_type_c const *) const
	??0EAPSettings@@QAE@XZ @ 1203 NONAME ; EAPSettings::EAPSettings(void)
	?generate_g_power_to_xy@crypto_ephemeral_diffie_hellman_c@@QAE?AW4eap_status_e@@PBVeap_variable_data_c@@0PAV3@PBXK2K@Z @ 1204 NONAME ; enum eap_status_e crypto_ephemeral_diffie_hellman_c::generate_g_power_to_xy(class eap_variable_data_c const *, class eap_variable_data_c const *, class eap_variable_data_c *, void const *, unsigned long, void const *, unsigned long)
	?tls_prf_init@crypto_tls_sha1_prf_c@@QAE?AW4eap_status_e@@PBVeap_variable_data_c@@00@Z @ 1205 NONAME ; enum eap_status_e crypto_tls_sha1_prf_c::tls_prf_init(class eap_variable_data_c const *, class eap_variable_data_c const *, class eap_variable_data_c const *)
	?get_Authentication_Type@simple_config_credential_c@@QAE?AW4simple_config_Authentication_Type_e@@XZ @ 1206 NONAME ; enum simple_config_Authentication_Type_e simple_config_credential_c::get_Authentication_Type(void)
	?get_stack_address@eap_buf_chain_base_c@@QBEPBXXZ @ 1207 NONAME ; void const * eap_buf_chain_base_c::get_stack_address(void) const
	??0eap_am_tools_c@@QAE@XZ @ 1208 NONAME ; eap_am_tools_c::eap_am_tools_c(void)
	?get_protocol_layer_string@eap_state_notification_c@@UBEPBDXZ @ 1209 NONAME ; char const * eap_state_notification_c::get_protocol_layer_string(void) const
	?cancel_asynchronous_init_remove_eap_session@eap_core_c@@AAE?AW4eap_status_e@@XZ @ 1210 NONAME ; enum eap_status_e eap_core_c::cancel_asynchronous_init_remove_eap_session(void)
	??0eap_am_crypto_symbian_c@@QAE@PAVabs_eap_am_tools_c@@@Z @ 1211 NONAME ; eap_am_crypto_symbian_c::eap_am_crypto_symbian_c(class abs_eap_am_tools_c *)
	?sha1_init@eap_am_crypto_symbian_c@@UAE?AW4eap_status_e@@PAVeap_variable_data_c@@@Z @ 1212 NONAME ; enum eap_status_e eap_am_crypto_symbian_c::sha1_init(class eap_variable_data_c *)
	?create_eap_identity_response@eap_core_c@@AAE?AW4eap_status_e@@PAVeap_buf_chain_wr_c@@PBVeap_variable_data_c@@E@Z @ 1213 NONAME ; enum eap_status_e eap_core_c::create_eap_identity_response(class eap_buf_chain_wr_c *, class eap_variable_data_c const *, unsigned char)
	??0crypto_tls_base_prf_c@@QAE@PAVabs_eap_am_tools_c@@@Z @ 1214 NONAME ; crypto_tls_base_prf_c::crypto_tls_base_prf_c(class abs_eap_am_tools_c *)
	?file_size@eap_am_file_input_symbian_c@@UAEKXZ @ 1215 NONAME ; unsigned long eap_am_file_input_symbian_c::file_size(void)
	??1eap_am_memory_store_c@@UAE@XZ @ 1216 NONAME ; eap_am_memory_store_c::~eap_am_memory_store_c(void)
	??1eap_process_tlv_message_data_c@@UAE@XZ @ 1217 NONAME ; eap_process_tlv_message_data_c::~eap_process_tlv_message_data_c(void)
	?md5_init@eap_am_crypto_symbian_c@@UAE?AW4eap_status_e@@PAVeap_variable_data_c@@@Z @ 1218 NONAME ; enum eap_status_e eap_am_crypto_symbian_c::md5_init(class eap_variable_data_c *)
	?GetIsEnabled@EapCertificateEntry@@QBEHXZ @ 1219 NONAME ; int EapCertificateEntry::GetIsEnabled(void) const
	?t_prf_cleanup@crypto_eap_fast_hmac_sha1_prf_c@@QAE?AW4eap_status_e@@XZ @ 1220 NONAME ; enum eap_status_e crypto_eap_fast_hmac_sha1_prf_c::t_prf_cleanup(void)
	??0eap_state_notification_c@@QAE@PAVabs_eap_am_tools_c@@PBVeap_am_network_id_c@@_NW4eap_state_notification_eap_e@@W4eap_protocol_layer_e@@W4eap_type_ietf_values_e@@KKE2@Z @ 1221 NONAME ; eap_state_notification_c::eap_state_notification_c(class abs_eap_am_tools_c *, class eap_am_network_id_c const *, bool, enum eap_state_notification_eap_e, enum eap_protocol_layer_e, enum eap_type_ietf_values_e, unsigned long, unsigned long, unsigned char, bool)
	?add_parameter_data@eap_process_tlv_message_data_c@@QAE?AW4eap_status_e@@PBVeap_variable_data_c@@PBVeap_config_value_c@@@Z @ 1222 NONAME ; enum eap_status_e eap_process_tlv_message_data_c::add_parameter_data(class eap_variable_data_c const *, class eap_config_value_c const *)
	??1abs_crypto_cbc_block_algorithm_c@@UAE@XZ @ 1223 NONAME ; abs_crypto_cbc_block_algorithm_c::~abs_crypto_cbc_block_algorithm_c(void)
	??0eap_am_crypto_md4_c@@QAE@PAVabs_eap_am_tools_c@@@Z @ 1224 NONAME ; eap_am_crypto_md4_c::eap_am_crypto_md4_c(class abs_eap_am_tools_c *)
	?internal_decrypt_data@crypto_cbc_c@@AAE?AW4eap_status_e@@PBXPAXK@Z @ 1225 NONAME ; enum eap_status_e crypto_cbc_c::internal_decrypt_data(void const *, void *, unsigned long)
	?shutdown@eap_core_c@@UAE?AW4eap_status_e@@XZ @ 1226 NONAME ; enum eap_status_e eap_core_c::shutdown(void)
	?file_write@eap_am_file_input_symbian_c@@UAE?AW4eap_status_e@@PBVeap_variable_data_c@@@Z @ 1227 NONAME ; enum eap_status_e eap_am_file_input_symbian_c::file_write(class eap_variable_data_c const *)
	?compare_length@eap_variable_data_c@@QBEJPBXKK@Z @ 1228 NONAME ; long eap_variable_data_c::compare_length(void const *, unsigned long, unsigned long) const
	?get_parameter_data@eap_process_tlv_message_data_c@@QAE?AW4eap_status_e@@PBVeap_tlv_header_c@@PAG@Z @ 1229 NONAME ; enum eap_status_e eap_process_tlv_message_data_c::get_parameter_data(class eap_tlv_header_c const *, unsigned short *)
	??9TEapExpandedType@@QBE_NABV0@@Z @ 1230 NONAME ; bool TEapExpandedType::operator!=(class TEapExpandedType const &) const
	?hash_final@crypto_sha_256_c@@UAE?AW4eap_status_e@@PAXPAK@Z @ 1231 NONAME ; enum eap_status_e crypto_sha_256_c::hash_final(void *, unsigned long *)
	?add_parameter_data@eap_process_tlv_message_data_c@@QAE?AW4eap_status_e@@PBV?$eap_array_c@G@@@Z @ 1232 NONAME ; enum eap_status_e eap_process_tlv_message_data_c::add_parameter_data(class eap_array_c<unsigned short> const *)
	?memcmp@eap_am_tools_symbian_c@@UAEJPBX0K@Z @ 1233 NONAME ; long eap_am_tools_symbian_c::memcmp(void const *, void const *, unsigned long)
	?object_decrease_reference_count@eap_process_tlv_message_data_c@@QAEKXZ @ 1234 NONAME ; unsigned long eap_process_tlv_message_data_c::object_decrease_reference_count(void)
	?get_block_size@crypto_aes_c@@UAEKXZ @ 1235 NONAME ; unsigned long crypto_aes_c::get_block_size(void)
	?get_data@eapol_ethernet_header_base_c@@QBEPAEK@Z @ 1236 NONAME ; unsigned char * eapol_ethernet_header_base_c::get_data(unsigned long) const
	?remove_data@eap_am_memory_store_c@@QAE?AW4eap_status_e@@PBVeap_variable_data_c@@@Z @ 1237 NONAME ; enum eap_status_e eap_am_memory_store_c::remove_data(class eap_variable_data_c const *)
	?GetSubjectNamePresent@EapCertificateEntry@@QBEHXZ @ 1238 NONAME ; int EapCertificateEntry::GetSubjectNamePresent(void) const
	?dss_pseudo_random@eap_am_crypto_symbian_c@@UAE?AW4eap_status_e@@PAEK0K@Z @ 1239 NONAME ; enum eap_status_e eap_am_crypto_symbian_c::dss_pseudo_random(unsigned char *, unsigned long, unsigned char *, unsigned long)
	?SetIsEnabledPresent@EapCertificateEntry@@QAEXXZ @ 1240 NONAME ; void EapCertificateEntry::SetIsEnabledPresent(void)
	?generate_diffie_hellman_keys@crypto_ephemeral_diffie_hellman_c@@QAE?AW4eap_status_e@@PAVeap_variable_data_c@@0PBXK1K@Z @ 1241 NONAME ; enum eap_status_e crypto_ephemeral_diffie_hellman_c::generate_diffie_hellman_keys(class eap_variable_data_c *, class eap_variable_data_c *, void const *, unsigned long, void const *, unsigned long)
	??0EapServerStrings@@QAE@XZ @ 1242 NONAME ; EapServerStrings::EapServerStrings(void)
	?get_is_valid@eap_am_mutex_base_c@@QBE_NXZ @ 1243 NONAME ; bool eap_am_mutex_base_c::get_is_valid(void) const
	?file_open@eap_am_file_input_symbian_c@@UAE?AW4eap_status_e@@PBVeap_variable_data_c@@W4eap_file_io_direction_e@@@Z @ 1244 NONAME ; enum eap_status_e eap_am_file_input_symbian_c::file_open(class eap_variable_data_c const *, enum eap_file_io_direction_e)
	?get_source_length@eapol_ethernet_header_base_c@@QBEKXZ @ 1245 NONAME ; unsigned long eapol_ethernet_header_base_c::get_source_length(void) const
	??1eap_am_mutex_base_c@@UAE@XZ @ 1246 NONAME ; eap_am_mutex_base_c::~eap_am_mutex_base_c(void)
	?SetLabel@EapCertificateEntry@@QAEHABV?$TBuf@$0EA@@@@Z @ 1247 NONAME ; int EapCertificateEntry::SetLabel(class TBuf<64> const &)
	?get_is_valid@crypto_tls_sha1_prf_c@@QAE_NXZ @ 1248 NONAME ; bool crypto_tls_sha1_prf_c::get_is_valid(void)
	?cancel_session_timeout@eap_core_c@@AAE?AW4eap_status_e@@XZ @ 1249 NONAME ; enum eap_status_e eap_core_c::cancel_session_timeout(void)
	?hash_cleanup@crypto_md5_c@@UAE?AW4eap_status_e@@XZ @ 1250 NONAME ; enum eap_status_e crypto_md5_c::hash_cleanup(void)
	?add_message_header@eap_tlv_message_data_c@@QAE?AW4eap_status_e@@KK@Z @ 1251 NONAME ; enum eap_status_e eap_tlv_message_data_c::add_message_header(unsigned long, unsigned long)
	??0TEapExpandedType@@QAE@ABVTDesC8@@@Z @ 1252 NONAME ; TEapExpandedType::TEapExpandedType(class TDesC8 const &)
	?get_payload_size@eap_process_tlv_message_data_c@@QBEKPBVnetwork_key_and_index_c@@@Z @ 1253 NONAME ; unsigned long eap_process_tlv_message_data_c::get_payload_size(class network_key_and_index_c const *) const
	??0eapol_ethernet_header_wr_c@@QAE@PAVabs_eap_am_tools_c@@PBEK@Z @ 1254 NONAME ; eapol_ethernet_header_wr_c::eapol_ethernet_header_wr_c(class abs_eap_am_tools_c *, unsigned char const *, unsigned long)
	?get_payload_size@eap_process_tlv_message_data_c@@QBEKPBV?$eap_array_c@Veap_certificate_entry_c@@@@@Z @ 1255 NONAME ; unsigned long eap_process_tlv_message_data_c::get_payload_size(class eap_array_c<class eap_certificate_entry_c> const *) const
	?get_is_enabled@eap_type_selection_c@@QBE_NXZ @ 1256 NONAME ; bool eap_type_selection_c::get_is_enabled(void) const
	?GetCertType@EapCertificateEntry@@QBE?AW4TCertType@1@XZ @ 1257 NONAME ; enum EapCertificateEntry::TCertType EapCertificateEntry::GetCertType(void) const
	?shutdown@eap_am_tools_symbian_c@@UAE?AW4eap_status_e@@XZ @ 1258 NONAME ; enum eap_status_e eap_am_tools_symbian_c::shutdown(void)
	?get_digest_length@eap_am_crypto_sha_256_c@@QAEKXZ @ 1259 NONAME ; unsigned long eap_am_crypto_sha_256_c::get_digest_length(void)
	?add_parameter_data@eap_process_tlv_message_data_c@@QAE?AW4eap_status_e@@PBV?$eap_array_c@Veap_certificate_entry_c@@@@@Z @ 1260 NONAME ; enum eap_status_e eap_process_tlv_message_data_c::add_parameter_data(class eap_array_c<class eap_certificate_entry_c> const *)
	?get_parameter_data@eap_process_tlv_message_data_c@@QAE?AW4eap_status_e@@PBVeap_tlv_header_c@@PAVeap_method_settings_c@@@Z @ 1261 NONAME ; enum eap_status_e eap_process_tlv_message_data_c::get_parameter_data(class eap_tlv_header_c const *, class eap_method_settings_c *)
	?octet_from_ascii_armor@eap_am_tools_c@@AAEEE@Z @ 1262 NONAME ; unsigned char eap_am_tools_c::octet_from_ascii_armor(unsigned char)

