EXPORTS
	?ApplicationLeavesConnection@RMPM@@QAEHKK@Z @ 1 NONAME ; int RMPM::ApplicationLeavesConnection(unsigned long, unsigned long)
	?Cancel@RMPM@@QBEXW4TMpmAsynchCodes@@@Z @ 2 NONAME ; void RMPM::Cancel(enum TMpmAsynchCodes) const
	?ChooseBestIAP@RMPM@@QAEXAAVTConnPref@@KVTUid@@0AAVTRequestStatus@@@Z @ 3 NONAME ; void RMPM::ChooseBestIAP(class TConnPref &, unsigned long, class TConnPref &, class TRequestStatus &)
	?Close@RMPM@@QAEXXZ @ 4 NONAME ; void RMPM::Close(void)
	?Connect@RMPM@@QAEHXZ @ 5 NONAME ; int RMPM::Connect(void)
	?IAPConnectionStopped@RMPM@@QAEHKK@Z @ 6 NONAME ; int RMPM::IAPConnectionStopped(unsigned long, unsigned long)
	?LaunchServer@RMPM@@QAEHXZ @ 7 NONAME ; int RMPM::LaunchServer(void)
	?ProcessError@RMPM@@QAEXAAVTConnPref@@AAHKAAW4TBMNeededAction@@AAVTRequestStatus@@@Z @ 8 NONAME ; void RMPM::ProcessError(class TConnPref &, int &, unsigned long, enum TBMNeededAction &, class TRequestStatus &)
	?RegisterPrefIAPNotif@RMPM@@QAEHABVTConnPref@@K@Z @ 9 NONAME ; int RMPM::RegisterPrefIAPNotif(class TConnPref &, unsigned long)
	?UnregisterPrefIAPNotif@RMPM@@QAEXK@Z @ 10 NONAME ; void RMPM::UnregisterPrefIAPNotif(unsigned long)
	?Version@RMPM@@QBE?AVTVersion@@XZ @ 11 NONAME ; class TVersion RMPM::Version(void) const
	?WaitNotification@RMPM@@QAEXAAV?$TBuf8@$0CAA@@@AAVTRequestStatus@@@Z @ 12 NONAME ; void RMPM::WaitNotification(class TBuf8<512> &, class TRequestStatus &)
	?SortSNAP@RMPM@@QAEHKAAVTMpmSnapBuffer@@@Z @ 13 NONAME ; int RMPM::SortSNAP(unsigned long, class TMpmSnapBuffer &)
	?ApplicationJoinsConnection@RMPM@@QAEHKK@Z @ 14 NONAME ; int RMPM::ApplicationJoinsConnection(unsigned long, unsigned long)
	?IAPConnectionStarted@RMPM@@QAEHKK@Z @ 15 NONAME ; int RMPM::IAPConnectionStarted(unsigned long, unsigned long)
	?ApplicationConnectionEnds@RMPM@@QAEHK@Z @ 16 NONAME ; int RMPM::ApplicationConnectionEnds(unsigned long)
	?ApplicationAcceptedTheCarrier@RMPM@@QAEHKK@Z @ 17 NONAME ; int RMPM::ApplicationAcceptedTheCarrier(unsigned long, unsigned long)
	?ApplicationIgnoredTheCarrier@RMPM@@QAEHKK@Z @ 18 NONAME ; int RMPM::ApplicationIgnoredTheCarrier(unsigned long, unsigned long)
	?ApplicationMigratesToCarrier@RMPM@@QAEHKK@Z @ 19 NONAME ; int RMPM::ApplicationMigratesToCarrier(unsigned long, unsigned long)
	?ApplicationRejectedTheCarrier@RMPM@@QAEHKK@Z @ 20 NONAME ; int RMPM::ApplicationRejectedTheCarrier(unsigned long, unsigned long)
	?IAPConnectionActivated@RMPM@@QAEHKK@Z @ 21 NONAME ; int RMPM::IAPConnectionActivated(unsigned long, unsigned long)
	?EasyWlanSsid@RMPM@@QAEHABV?$TBuf8@$0CA@@@@Z @ 22 NONAME ; int RMPM::EasyWlanSsid(class TBuf8<32> const &)
	?Connect@RMPM@@QAEXAAVTRequestStatus@@@Z @ 23 NONAME ; void RMPM::Connect(class TRequestStatus &)
	?RegisterPrefIAPNotif@RMPM@@QAEHK@Z @ 24 NONAME ; int RMPM::RegisterPrefIAPNotif(unsigned long)
	?UnregisterPrefIAPNotif@RMPM@@QAEXKAAVTRequestStatus@@@Z @ 25 NONAME ; void RMPM::UnregisterPrefIAPNotif(unsigned long, class TRequestStatus &)
	?IAPConnectionStarted@RMPM@@QAEXKKAAVTRequestStatus@@@Z @ 26 NONAME ; void RMPM::IAPConnectionStarted(unsigned long, unsigned long, class TRequestStatus &)
	?SendCancelRequest@RMPM@@QBEHW4TMpmAsynchCodes@@@Z @ 27 NONAME ; int RMPM::SendCancelRequest(enum TMpmAsynchCodes) const
	?IAPConnectionStopped@RMPM@@QAEXKKAAVTRequestStatus@@@Z @ 28 NONAME ; void RMPM::IAPConnectionStopped(unsigned long, unsigned long, class TRequestStatus &)
	?ProcessError@RMPM@@QAEXAAHKAAW4TBMNeededAction@@AAVTRequestStatus@@@Z @ 29 NONAME ; void RMPM::ProcessError(int &, unsigned long, enum TBMNeededAction &, class TRequestStatus &)
	?ReselectBestIAP@RMPM@@QAEXKAAVTConnPref@@AAVTRequestStatus@@@Z @ 30 NONAME ; void RMPM::ReselectBestIAP(unsigned long, class TConnPref &, class TRequestStatus &)
	?ApplicationRejectedTheCarrier@RMPM@@QAEXKKAAVTRequestStatus@@@Z @ 31 NONAME ; void RMPM::ApplicationRejectedTheCarrier(unsigned long, unsigned long, class TRequestStatus &)
	?Connected@RMPM@@QAEHXZ @ 32 NONAME ; int RMPM::Connected(void)
	?RegisterPrefIAPNotif@RMPM@@QAEXKAAVTRequestStatus@@@Z @ 33 NONAME ; void RMPM::RegisterPrefIAPNotif(unsigned long, class TRequestStatus &)
	?ApplicationLeavesConnection@RMPM@@QAEXKKAAVTRequestStatus@@@Z @ 34 NONAME ; void RMPM::ApplicationLeavesConnection(unsigned long, unsigned long, class TRequestStatus &)
	?ApplicationJoinsConnection@RMPM@@QAEXKKAAVTRequestStatus@@@Z @ 35 NONAME ; void RMPM::ApplicationJoinsConnection(unsigned long, unsigned long, class TRequestStatus &)
	?ApplicationIgnoredTheCarrier@RMPM@@QAEXKKAAVTRequestStatus@@@Z @ 36 NONAME ; void RMPM::ApplicationIgnoredTheCarrier(unsigned long, unsigned long, class TRequestStatus &)
	?ApplicationConnectionEnds@RMPM@@QAEXKAAVTRequestStatus@@@Z @ 37 NONAME ; void RMPM::ApplicationConnectionEnds(unsigned long, class TRequestStatus &)
	?ApplicationAcceptedTheCarrier@RMPM@@QAEXKKAAVTRequestStatus@@@Z @ 38 NONAME ; void RMPM::ApplicationAcceptedTheCarrier(unsigned long, unsigned long, class TRequestStatus &)
	?ApplicationMigratesToCarrier@RMPM@@QAEXKKAAVTRequestStatus@@@Z @ 39 NONAME ; void RMPM::ApplicationMigratesToCarrier(unsigned long, unsigned long, class TRequestStatus &)
	?SortSNAP@RMPM@@QAEXKAAVTMpmSnapBuffer@@AAVTRequestStatus@@K@Z @ 40 NONAME ; void RMPM::SortSNAP(unsigned long, class TMpmSnapBuffer &, class TRequestStatus &, unsigned long)

