EXPORTS
	_ZN9CCmDmMain10AddStoredLERK7TDesC16RK6TDesC85TTime @ 1 NONAME
	_ZN9CCmDmMain10SetDrivesLER13RPointerArrayI12CCmDriveInfoE @ 2 NONAME
	_ZN9CCmDmMain11BytesFilledEj @ 3 NONAME
	_ZN9CCmDmMain11GetSyncTimeER5TTime @ 4 NONAME
	_ZN9CCmDmMain11SetSyncTimeEv @ 5 NONAME
	_ZN9CCmDmMain12AddFillRuleLEP11CCmFillRule @ 6 NONAME
	_ZN9CCmDmMain12AddHashValueExP21CCmSearchResponseHash @ 7 NONAME
	_ZN9CCmDmMain12AddStoreFileER16CCmStoreListItem @ 8 NONAME
	_ZN9CCmDmMain12QueryDrivesLER13RPointerArrayI12CCmDriveInfoE @ 9 NONAME
	_ZN9CCmDmMain12SetFillFilesER13RPointerArrayI15CCmFillListItemE @ 10 NONAME
	_ZN9CCmDmMain13AddStoreRuleLEP12CCmStoreRule @ 11 NONAME
	_ZN9CCmDmMain13FillFileCountEj @ 12 NONAME
	_ZN9CCmDmMain14QueryFillRuleLEP11CCmFillRule @ 13 NONAME
	_ZN9CCmDmMain14SetStoreFilesLER13RPointerArrayI16CCmStoreListItemE @ 14 NONAME
	_ZN9CCmDmMain14StoreFileCountEj @ 15 NONAME
	_ZN9CCmDmMain15AddMediaServerLEP18CCmMediaServerFull @ 16 NONAME
	_ZN9CCmDmMain15DeleteFillFilesEv @ 17 NONAME
	_ZN9CCmDmMain15GetProgressInfoERiS0_ @ 18 NONAME
	_ZN9CCmDmMain15GetTransferInfoE10TCmServiceRiS1_ @ 19 NONAME
	_ZN9CCmDmMain15QueryStoreRuleLEP12CCmStoreRule @ 20 NONAME
	_ZN9CCmDmMain15QueryStoredRowLER13RPointerArrayI7HBufC16ERK6TDesC8i @ 21 NONAME
	_ZN9CCmDmMain15SetProgressInfoEii @ 22 NONAME
	_ZN9CCmDmMain16DeleteStoreFilesEv @ 23 NONAME
	_ZN9CCmDmMain16GetAllFillFilesLER13RPointerArrayI15CCmFillListItemEj @ 24 NONAME
	_ZN9CCmDmMain16GetFillFileCountERK6TDesC8jRi @ 25 NONAME
	_ZN9CCmDmMain16GetFillListNameLERP6HBufC8x @ 26 NONAME
	_ZN9CCmDmMain16GetMediaServersLER13RPointerArrayI18CCmMediaServerFullE @ 27 NONAME
	_ZN9CCmDmMain16KBytesToBeFilledEhj @ 28 NONAME
	_ZN9CCmDmMain16KBytesToBeStoredEhj @ 29 NONAME
	_ZN9CCmDmMain16PrepareQueryCmdLE15TCMQueryCmdType @ 30 NONAME
	_ZN9CCmDmMain16QueryHashValuesLEiR13RPointerArrayI21CCmSearchResponseHashE @ 31 NONAME
	_ZN9CCmDmMain16SetMediaServersLER13RPointerArrayI18CCmMediaServerFullE @ 32 NONAME
	_ZN9CCmDmMain17DeleteHashValuesLEii @ 33 NONAME
	_ZN9CCmDmMain17DeleteMediaServerERK6TDesC8 @ 34 NONAME
	_ZN9CCmDmMain17GetAllStoreFilesLER13RPointerArrayI16CCmStoreListItemEj @ 35 NONAME
	_ZN9CCmDmMain17GetStoreFileCountERK6TDesC8jRi @ 36 NONAME
	_ZN9CCmDmMain17QueryMediaServerLEP18CCmMediaServerFull @ 37 NONAME
	_ZN9CCmDmMain17SetFillListStateLEj17TCmFillRuleStatus @ 38 NONAME
	_ZN9CCmDmMain18DeleteAllFillRulesEv @ 39 NONAME
	_ZN9CCmDmMain18QueryAllFillFilesLER13RPointerArrayI15CCmFillListItemE @ 40 NONAME
	_ZN9CCmDmMain18QueryFillFileListLER13RPointerArrayI15CCmBaseListItemERK6TDesC8j @ 41 NONAME
	_ZN9CCmDmMain18QueryMediaServerIdERK6TDesC8 @ 42 NONAME
	_ZN9CCmDmMain18UpdateStatusValuesER13RPointerArrayI15CCmBaseListItemE @ 43 NONAME
	_ZN9CCmDmMain18UpdateTransferInfoE10TCmServiceii @ 44 NONAME
	_ZN9CCmDmMain19DeleteAllStoreRulesEv @ 45 NONAME
	_ZN9CCmDmMain19DeleteDeletedItemsLEv @ 46 NONAME
	_ZN9CCmDmMain19QueryAllStoreFilesLER13RPointerArrayI16CCmStoreListItemE @ 47 NONAME
	_ZN9CCmDmMain19QueryFillRuleNamesLER13RPointerArrayI6HBufC8E @ 48 NONAME
	_ZN9CCmDmMain19QueryMediaServerUdnERP6HBufC8l @ 49 NONAME
	_ZN9CCmDmMain19QueryStoreFileListLER13RPointerArrayI15CCmBaseListItemERK6TDesC8j @ 50 NONAME
	_ZN9CCmDmMain19UpdateUploadHistoryEjRxS0_ @ 51 NONAME
	_ZN9CCmDmMain20DeleteFillRuleByNameERK6TDesC8 @ 52 NONAME
	_ZN9CCmDmMain20IncrementShrinkTimeLEii @ 53 NONAME
	_ZN9CCmDmMain20QueryStoreRuleNamesLER13RPointerArrayI6HBufC8E @ 54 NONAME
	_ZN9CCmDmMain20QueryTransferHistoryERK6TDesC8RxS3_S3_S3_ @ 55 NONAME
	_ZN9CCmDmMain20RestoreFileStatusesLERK13RPointerArrayI15CCmFillListItemERK6TDesC8 @ 56 NONAME
	_ZN9CCmDmMain21GetAvgImageShrinkTimeEv @ 57 NONAME
	_ZN9CCmDmMain21QueryAllMediaServersLEP18CCmMediaServerFull @ 58 NONAME
	_ZN9CCmDmMain21UpdateDownloadHistoryEjRxS0_ @ 59 NONAME
	_ZN9CCmDmMain21UpdateMediaServerInfoEP18CCmMediaServerFull @ 60 NONAME
	_ZN9CCmDmMain22UpdateFillRuleSelectedERK6TDesC8i @ 61 NONAME
	_ZN9CCmDmMain23DeleteItemsByFillListIdEi @ 62 NONAME
	_ZN9CCmDmMain23QueryDeletedItemsListsLER13RPointerArrayI15CCmBaseListItemEj @ 63 NONAME
	_ZN9CCmDmMain23UpdateFillRuleGroupInfoEv @ 64 NONAME
	_ZN9CCmDmMain24UpdateFillTransferStatusEjP15CCmFillListItem @ 65 NONAME
	_ZN9CCmDmMain25UpdateStoreTransferStatusEjxx @ 66 NONAME
	_ZN9CCmDmMain26DeleteDeletedMediaServersLEv @ 67 NONAME
	_ZN9CCmDmMain26GetLowPriorityFilledFilesLEiR13RPointerArrayI15CCmFillListItemE @ 68 NONAME
	_ZN9CCmDmMain26StoreFileCountNoDuplicatesEv @ 69 NONAME
	_ZN9CCmDmMain26UpdateFillListItemPriorityEP20CCmFillRuleContainer @ 70 NONAME
	_ZN9CCmDmMain27QuerySelectedFillRuleNamesLER13RPointerArrayI6HBufC8Ei @ 71 NONAME
	_ZN9CCmDmMain28QuerySelectedStoreRuleNamesLER13RPointerArrayI6HBufC8Ei @ 72 NONAME
	_ZN9CCmDmMain28SetFillListRealCountAndSizeLExxx @ 73 NONAME
	_ZN9CCmDmMain28UpdateFillListDriveStatusesLEP12CCmDriveInfoS1_i @ 74 NONAME
	_ZN9CCmDmMain30GetStoreFileCountNoDuplicatesLERij @ 75 NONAME
	_ZN9CCmDmMain4NewLEv @ 76 NONAME
	_ZN9CCmDmMain5NewLCEv @ 77 NONAME
	_ZN9CCmDmMain8ListSizeE11TCmRuleTypeRK6TDesC8j @ 78 NONAME
	_ZN9CCmDmMainD0Ev @ 79 NONAME
	_ZN9CCmDmMainD1Ev @ 80 NONAME
	_ZN9CCmDmMainD2Ev @ 81 NONAME
	_ZTI21CCmDmSqlDbMaintenance @ 82 NONAME ; #<TI>#
	_ZTI9CCmDmMain @ 83 NONAME ; #<TI>#
	_ZTV21CCmDmSqlDbMaintenance @ 84 NONAME ; #<VT>#
	_ZTV9CCmDmMain @ 85 NONAME ; #<VT>#

