EXPORTS
	_ZN10RRtpPacket5CloseEv @ 1 NONAME
	_ZN11RRtpSession12SetMaxRXSizeEi @ 2 NONAME
	_ZN11RRtpSession14NewSendSourceLEv @ 3 NONAME
	_ZN11RRtpSession17NewReceiveSourceLEv @ 4 NONAME
	_ZN11RRtpSession18NewReceiveSourceLCEv @ 5 NONAME
	_ZN11RRtpSession26PrivRegisterEventCallbackLEjPFvPvRK9TRtpEventES0_ @ 6 NONAME
	_ZN11RRtpSession26PrivRegisterEventCallbackLEjPFvPvRK9TRtpEventES0_i @ 7 NONAME
	_ZN11RRtpSession5CloseEv @ 8 NONAME
	_ZN11RRtpSession5OpenLER11RSocketServR9TSockAddrS3_iR11RConnectioniRK6TDesC8 @ 9 NONAME
	_ZN11RRtpSession5OpenLER11RSocketServR9TSockAddrS3_iiRK6TDesC8 @ 10 NONAME
	_ZN11RRtpSession5OpenLER7RSocketii @ 11 NONAME
	_ZN11RRtpSession9MaxRXSizeEv @ 12 NONAME
	_ZN14RRtpSendPacket12SetTimestampEj @ 13 NONAME
	_ZN14RRtpSendPacket12WritePayloadEv @ 14 NONAME
	_ZN14RRtpSendPacket14SetPayloadTypeEj @ 15 NONAME
	_ZN14RRtpSendPacket4SendEv @ 16 NONAME
	_ZN14RRtpSendPacket8SetFlagsEj @ 17 NONAME
	_ZN14RRtpSendPacket9SetMarkerEi @ 18 NONAME
	_ZN14RRtpSendSource12SetAlignmentEi @ 19 NONAME
	_ZN14RRtpSendSource14NewSendPacketLEii @ 20 NONAME
	_ZN14RRtpSendSource14SetPayloadTypeEj @ 21 NONAME
	_ZN14RRtpSendSource15NewSendPacketLCEii @ 22 NONAME
	_ZN14RRtpSendSource21SetDefaultPayloadSizeEi @ 23 NONAME
	_ZN14RRtpSendSource26PrivRegisterEventCallbackLEjPFvPvRK9TRtpEventES0_ @ 24 NONAME
	_ZN14RRtpSendSource26PrivRegisterEventCallbackLEjPFvPvRK9TRtpEventES0_i @ 25 NONAME
	_ZN14RRtpSendSource5CloseEv @ 26 NONAME
	_ZN14RRtpSendSource9IsSendingEv @ 27 NONAME
	_ZN17RRtpReceiveSource26PrivRegisterEventCallbackLEjPFvPvRK9TRtpEventES0_ @ 28 NONAME
	_ZN17RRtpReceiveSource26PrivRegisterEventCallbackLEjPFvPvRK9TRtpEventES0_i @ 29 NONAME
	_ZN17RRtpReceiveSource5CloseEv @ 30 NONAME
	_ZN17RRtpReceiveSource6PacketEv @ 31 NONAME
	_ZN19RRtpHeaderExtension4DataEv @ 32 NONAME
	_ZN19RRtpHeaderExtension7SetTypeEt @ 33 NONAME
	_ZN9TRtpEventC1E13TRtpEventTypeiPv @ 34 NONAME
	_ZN9TRtpEventC2E13TRtpEventTypeiPv @ 35 NONAME
	_ZNK10RRtpPacket11PayloadTypeEv @ 36 NONAME
	_ZNK10RRtpPacket14SequenceNumberEv @ 37 NONAME
	_ZNK10RRtpPacket16ExtensionPresentEv @ 38 NONAME
	_ZNK10RRtpPacket4SSRCEv @ 39 NONAME
	_ZNK10RRtpPacket5CSRCsEv @ 40 NONAME
	_ZNK10RRtpPacket5FlagsEv @ 41 NONAME
	_ZNK10RRtpPacket6MarkerEv @ 42 NONAME
	_ZNK10RRtpPacket7PayloadEv @ 43 NONAME
	_ZNK10RRtpPacket9ExtensionEv @ 44 NONAME
	_ZNK10RRtpPacket9TimestampEv @ 45 NONAME
	_ZNK14RRtpSendSource9AlignmentEv @ 46 NONAME
	_ZNK17RRtpReceiveSource4SSRCEv @ 47 NONAME
	_ZNK19RRtpHeaderExtension4TypeEv @ 48 NONAME
	_ZNK9RRtpCSRCs5CountEv @ 49 NONAME
	_ZNK9RRtpCSRCsixEj @ 50 NONAME
	_ZNK9TRtpEvent10SendSourceEv @ 51 NONAME
	_ZNK9TRtpEvent13ReceiveSourceEv @ 52 NONAME
	_ZNK9TRtpEvent14IsSessionEventEv @ 53 NONAME
	_ZNK9TRtpEvent17IsSendSourceEventEv @ 54 NONAME
	_ZNK9TRtpEvent20IsReceiveSourceEventEv @ 55 NONAME
	_ZNK9TRtpEvent7SessionEv @ 56 NONAME
	_ZN11RRtcpRRItemC1Ev @ 57 NONAME
	_ZN11RRtcpRRItemC2Ev @ 58 NONAME
	_ZN11RRtcpRRPartC1ER11TRtcpRRPart @ 59 NONAME
	_ZN11RRtcpRRPartC2ER11TRtcpRRPart @ 60 NONAME
	_ZN11RRtcpSRPartC1ER11TRtcpSRPart @ 61 NONAME
	_ZN11RRtcpSRPartC2ER11TRtcpSRPart @ 62 NONAME
	_ZN11RRtpSession10SendSourceEv @ 63 NONAME
	_ZN11RRtpSession11DontReceiveEi @ 64 NONAME
	_ZN11RRtpSession12SetBandwidthEj @ 65 NONAME
	_ZN11RRtpSession15SendRTCPPacketLER6TDesC8 @ 66 NONAME
	_ZN11RRtpSession15SetRTCPAutoSendEi @ 67 NONAME
	_ZN11RRtpSession15SetRtcpIntervalER27TTimeIntervalMicroSeconds32 @ 68 NONAME
	_ZN11RRtpSession20SetRTPTimeConversionEjj @ 69 NONAME
	_ZN11RRtpSession22SetRtpStreamParametersEiii @ 70 NONAME
	_ZN11RRtpSession5OpenLER7RSocketiS1_iRK6TDesC8 @ 71 NONAME
	_ZN11RRtpSession6GetRRsEv @ 72 NONAME
	_ZN11RRtpSession7GetSDESEiR5TDes8 @ 73 NONAME
	_ZN11RRtpSession8SendAPPLERK6TDesC8S2_h @ 74 NONAME
	_ZN11RRtpSession8SetPRIVLERK6TDesC8S2_ @ 75 NONAME
	_ZN11RRtpSession8SetSDESLEiRK6TDesC8 @ 76 NONAME
	_ZN14RRtpSendSource12GetLocalSSRCEv @ 77 NONAME
	_ZN14RRtpSendSource4ByeLER6TDesC8 @ 78 NONAME
	_ZN14RRtpSendSource6CancelEv @ 79 NONAME
	_ZN17RRtpReceiveSource10GetLastAppER6TPtrC8S1_Rj @ 80 NONAME
	_ZN17RRtpReceiveSource12GetByeReasonEv @ 81 NONAME
	_ZN17RRtpReceiveSource5GetSREv @ 82 NONAME
	_ZN17RRtpReceiveSource7GetSDESEiR5TDes8 @ 83 NONAME
	_ZNK11RRtcpRRItem11PacketsLostEv @ 84 NONAME
	_ZNK11RRtcpRRItem12FractionLostEv @ 85 NONAME
	_ZNK11RRtcpRRItem15LastSRTimestampEv @ 86 NONAME
	_ZNK11RRtcpRRItem16DelaySinceLastSREv @ 87 NONAME
	_ZNK11RRtcpRRItem18InterarrivalJitterEv @ 88 NONAME
	_ZNK11RRtcpRRItem29ExtendedHighestSequenceNumberEv @ 89 NONAME
	_ZNK11RRtcpRRItem9AboutSSRCEv @ 90 NONAME
	_ZNK11RRtcpRRPart10SenderSSRCEv @ 91 NONAME
	_ZNK11RRtcpRRPart5CountEv @ 92 NONAME
	_ZNK11RRtcpRRPartixEi @ 93 NONAME
	_ZNK11RRtcpSRPart11PacketCountEv @ 94 NONAME
	_ZNK11RRtcpSRPart12NTPTimestampER5TTime @ 95 NONAME
	_ZNK11RRtcpSRPart12RTPTimestampEv @ 96 NONAME
	_ZNK11RRtcpSRPart9ByteCountEv @ 97 NONAME
	_ZNK11RRtpSession12RTCPAutoSendEv @ 98 NONAME
	_ZNK11RRtcpSRPart12NTPTimestampERmS0_ @ 99 NONAME
	_ZN11RRtpSession5OpenLER11RSocketServR9TSockAddrS3_iR14RSubConnectioniRK6TDesC8 @ 100 NONAME ABSENT
	_ZN11RRtpSession10RtcpSocketEv @ 101 NONAME
	_ZN11RRtpSession11NonRtpDataLEv @ 102 NONAME
	_ZN11RRtpSession12NonRtcpDataLEv @ 103 NONAME
	_ZN11RRtpSession14RtcpStatisticsEmR15TRtcpStatistics @ 104 NONAME ABSENT
	_ZN11RRtpSession15SetSamplingRateEij @ 105 NONAME
	_ZN11RRtpSession16SetRemoteAddressERK9TSockAddr @ 106 NONAME
	_ZN11RRtpSession17DisableNonRtpDataEv @ 107 NONAME
	_ZN11RRtpSession17SetRemoteRtcpPortEj @ 108 NONAME
	_ZN11RRtpSession9RtpSocketEv @ 109 NONAME
	_ZN11RRtpSession9SendDataLEiRK6TDesC8R14TRequestStatus @ 110 NONAME
	_ZN14RRtpSendPacket8SendSyncEv @ 111 NONAME
	_ZN11RRtpSession36SetPrePostProcessingRegisterCallbackEP26MPrePostProcessingCallback @ 112 NONAME ABSENT
	_ZN17RRtpReceiveSource12PayLoadTypeLEv @ 113 NONAME
	_ZN20RRtpSession_Internal14RtcpStatisticsEmR15TRtcpStatistics @ 114 NONAME
	_ZN20RRtpSession_Internal36SetPrePostProcessingRegisterCallbackEP26MPrePostProcessingCallback @ 115 NONAME
	_ZN20RRtpSession_Internal5OpenLER11RSocketServR9TSockAddrS3_iR14RSubConnectioniRK6TDesC8 @ 116 NONAME
	_ZN14RRtpSendPacket5CloseEv @ 117 NONAME
	_ZNK11RRtcpRRItem10SenderSSRCEv @ 118 NONAME

