EXPORTS
	_ZN12CTzConverter18ConvertToLocalTimeER5TTime @ 1 NONAME
	_ZN12CTzConverter18ConvertToLocalTimeER5TTimeRK5CTzId @ 2 NONAME
	_ZN12CTzConverter22ConvertToUniversalTimeER5TTime @ 3 NONAME
	_ZN12CTzConverter22ConvertToUniversalTimeER5TTimeRK5CTzId @ 4 NONAME
	_ZN12CTzConverter4NewLER3RTz @ 5 NONAME
	_ZN12CTzConverterD0Ev @ 6 NONAME
	_ZN12CTzConverterD1Ev @ 7 NONAME
	_ZN12CTzConverterD2Ev @ 8 NONAME
	_ZN17TTzActualisedRule12InternalizeLER11RReadStream @ 9 NONAME
	_ZN18CTzActualisedRules12InternalizeLER11RReadStream @ 10 NONAME ABSENT
	_ZN18CTzActualisedRules4NewLER11RReadStream @ 11 NONAME ABSENT
	_ZN18CTzActualisedRules4NewLEii @ 12 NONAME ABSENT
	_ZN18CTzActualisedRules8AddRuleLERK17TTzActualisedRule @ 13 NONAME ABSENT
	_ZN18CTzActualisedRulesD0Ev @ 14 NONAME ABSENT
	_ZN18CTzActualisedRulesD1Ev @ 15 NONAME ABSENT
	_ZN18CTzActualisedRulesD2Ev @ 16 NONAME ABSENT
	_ZN18CTzActualisedRulesixEi @ 17 NONAME ABSENT
	_ZN3RTz5CloseEv @ 18 NONAME
	_ZN3RTz5PanicENS_6TPanicE @ 19 NONAME
	_ZN3RTz7ConnectEv @ 20 NONAME
	_ZN3RTzC1Ev @ 21 NONAME
	_ZN3RTzC2Ev @ 22 NONAME
	_ZN3RTzD1Ev @ 23 NONAME
	_ZN3RTzD2Ev @ 24 NONAME
	_ZN5CTzId12InternalizeLER11RReadStream @ 25 NONAME
	_ZN5CTzId4NewLER11RReadStream @ 26 NONAME
	_ZN5CTzId4NewLERK6TDesC8 @ 27 NONAME
	_ZN5CTzId4NewLEj @ 28 NONAME
	_ZN5CTzId5SetIdEj @ 29 NONAME
	_ZN5CTzId6SetIdLERK6TDesC8 @ 30 NONAME
	_ZN5CTzIdD0Ev @ 31 NONAME
	_ZN5CTzIdD1Ev @ 32 NONAME
	_ZN5CTzIdD2Ev @ 33 NONAME
	_ZNK17TTzActualisedRule12ExternalizeLER12RWriteStream @ 34 NONAME
	_ZNK18CTzActualisedRules11ConvertTimeER5TTime16TTzTimeReference @ 35 NONAME ABSENT
	_ZNK18CTzActualisedRules11RuleAppliesERK5TTime16TTzTimeReference @ 36 NONAME ABSENT
	_ZNK18CTzActualisedRules12ExternalizeLER12RWriteStream @ 37 NONAME ABSENT
	_ZNK18CTzActualisedRules18GetLocalTimeOffsetERK5TTime16TTzTimeReference @ 38 NONAME ABSENT
	_ZNK18CTzActualisedRules5CountEv @ 39 NONAME ABSENT
	_ZNK3RTz12SetTimeZoneLER5CTzId @ 40 NONAME
	_ZNK3RTz14GetTimeZoneIdLEv @ 41 NONAME
	_ZNK3RTz18ConvertToLocalTimeER5TTime @ 42 NONAME
	_ZNK3RTz18ConvertToLocalTimeER5TTimeRK5CTzId @ 43 NONAME
	_ZNK3RTz22ConvertToUniversalTimeER5TTime @ 44 NONAME
	_ZNK3RTz22ConvertToUniversalTimeER5TTimeRK5CTzId @ 45 NONAME
	_ZNK3RTz25GetOffsetsForTimeZoneIdsLERK6RArrayIiERS1_ @ 46 NONAME
	_ZNK5CTzId12ExternalizeLER12RWriteStream @ 47 NONAME
	_ZNK5CTzId14TimeZoneNameIDEv @ 48 NONAME
	_ZNK5CTzId17TimeZoneNumericIDEv @ 49 NONAME
	_ZNK5CTzId6CloneLEv @ 50 NONAME
	_ZNK5CTzIdeqERKS_ @ 51 NONAME
	_ZTI12CTzConverter @ 52 NONAME ; #<TI>#
	_ZTI17CTzChangeNotifier @ 53 NONAME ; #<TI>#
	_ZTI18CTzActualisedRules @ 54 NONAME ABSENT ; #<TI>#
	_ZTI5CTzId @ 55 NONAME ; #<TI>#
	_ZTV12CTzConverter @ 56 NONAME ; #<VT>#
	_ZTV17CTzChangeNotifier @ 57 NONAME ; #<VT>#
	_ZTV18CTzActualisedRules @ 58 NONAME ABSENT ; #<VT>#
	_ZTV5CTzId @ 59 NONAME ; #<VT>#
	_ZNK3RTz11SetHomeTimeERK5TTime @ 60 NONAME
	_ZNK18CTzActualisedRules18IsDaylightSavingOnER5TTime @ 61 NONAME ABSENT
	_ZNK3RTz19IsDaylightSavingOnLER5CTzId @ 62 NONAME
	_ZN3RTz22SetAutoUpdateBehaviorLENS_21TTzAutoDSTUpdateModesE @ 63 NONAME
	_ZN18TVTzActualisedRuleC1Ev @ 64 NONAME
	_ZN18TVTzActualisedRuleC2Ev @ 65 NONAME
	_ZN18TVTzActualisedRuleaSES_ @ 66 NONAME
	_ZN7TTzRuleC1ERKS_ @ 67 NONAME
	_ZN7TTzRuleC1Essss6TMonth10TTzRuleDayhh16TTzTimeReferencet @ 68 NONAME
	_ZN7TTzRuleC1Ev @ 69 NONAME
	_ZN7TTzRuleC2ERKS_ @ 70 NONAME
	_ZN7TTzRuleC2Essss6TMonth10TTzRuleDayhh16TTzTimeReferencet @ 71 NONAME
	_ZN7TTzRuleC2Ev @ 72 NONAME
	_ZN8CTzRules10RemoveRuleEi @ 73 NONAME
	_ZN8CTzRules10SetEndYearEi @ 74 NONAME
	_ZN8CTzRules12InternalizeLER11RReadStream @ 75 NONAME
	_ZN8CTzRules12SetStartYearEi @ 76 NONAME
	_ZN8CTzRules23SetInitialStdTimeOffsetEi @ 77 NONAME
	_ZN8CTzRules4NewLER11RReadStream @ 78 NONAME
	_ZN8CTzRules4NewLEii @ 79 NONAME
	_ZN8CTzRules4NewLEv @ 80 NONAME
	_ZN8CTzRules8AddRuleLE7TTzRule @ 81 NONAME
	_ZN8CTzRulesD0Ev @ 82 NONAME
	_ZN8CTzRulesD1Ev @ 83 NONAME
	_ZN8CTzRulesD2Ev @ 84 NONAME
	_ZN8CTzRulesixEi @ 85 NONAME
	_ZNK3RTz17GetTimeZoneRulesLERK5CTzIdRK5TTimeS5_16TTzTimeReference @ 86 NONAME
	_ZNK3RTz17GetTimeZoneRulesLERK5TTimeS2_16TTzTimeReference @ 87 NONAME
	_ZNK7TTzRule9ActualiseEi @ 88 NONAME
	_ZNK8CTzRules12ExternalizeLER12RWriteStream @ 89 NONAME
	_ZNK8CTzRules13ConvertToUtcLER5TTime @ 90 NONAME
	_ZNK8CTzRules15ConvertToLocalLER5TTime @ 91 NONAME
	_ZNK8CTzRules20InitialStdTimeOffsetEv @ 92 NONAME
	_ZNK8CTzRules5CountEv @ 93 NONAME
	_ZNK8CTzRules7EndYearEv @ 94 NONAME
	_ZNK8CTzRules9StartYearEv @ 95 NONAME
	_ZTI19CVTzActualisedRules @ 96 NONAME ABSENT ; #<TI>#
	_ZTI8CTzRules @ 97 NONAME ; #<TI>#
	_ZTV19CVTzActualisedRules @ 98 NONAME ABSENT ; #<VT>#
	_ZTV8CTzRules @ 99 NONAME ; #<VT>#
	_ZNK8CTzRules10RulesApplyERK5TTime @ 100 NONAME
	_ZNK8CTzRules6CloneLEv @ 101 NONAME
	_ZN3RTz18AutoUpdateSettingLEv @ 102 NONAME
	_ZN12CTzConverter11CurrentTzIdEv @ 103 NONAME
	_ZNK8CTzRules9IsEqualToERKS_ @ 104 NONAME
	_ZN13CTzOlsenRules12InternalizeLER11RReadStream @ 105 NONAME ABSENT
	_ZN13CTzOlsenRules16AddStdAlignmentLEP24CTzOlsenStdTimeAlignment @ 106 NONAME ABSENT
	_ZN13CTzOlsenRules23SetInitialStdTimeOffsetEi @ 107 NONAME ABSENT
	_ZN13CTzOlsenRules4NewLER11RReadStream @ 108 NONAME ABSENT
	_ZN13CTzOlsenRules4NewLEii @ 109 NONAME ABSENT
	_ZN13CTzOlsenRules4NewLEv @ 110 NONAME ABSENT
	_ZN13CTzOlsenRulesD0Ev @ 111 NONAME ABSENT
	_ZN13CTzOlsenRulesD1Ev @ 112 NONAME ABSENT
	_ZN13CTzOlsenRulesD2Ev @ 113 NONAME ABSENT
	_ZN15CTzOlsenRuleSet12InternalizeLER11RReadStream @ 114 NONAME ABSENT
	_ZN15CTzOlsenRuleSet4NewLER11RReadStream @ 115 NONAME ABSENT
	_ZN15CTzOlsenRuleSetC1Ev @ 116 NONAME ABSENT
	_ZN15CTzOlsenRuleSetC2Ev @ 117 NONAME ABSENT
	_ZN15CTzOlsenRuleSetD0Ev @ 118 NONAME ABSENT
	_ZN15CTzOlsenRuleSetD1Ev @ 119 NONAME ABSENT
	_ZN15CTzOlsenRuleSetD2Ev @ 120 NONAME ABSENT
	_ZN15CTzOlsenRuleUse12InternalizeLER11RReadStream @ 121 NONAME ABSENT
	_ZN15CTzOlsenRuleUse14RuleDefinitionEv @ 122 NONAME ABSENT
	_ZN15CTzOlsenRuleUse4NewLER11RReadStream @ 123 NONAME ABSENT
	_ZN15CTzOlsenRuleUse4NewLERK10TTzRuleUseRK17TTzRuleDefinition @ 124 NONAME ABSENT
	_ZN15CTzOlsenRuleUse7RuleUseEv @ 125 NONAME ABSENT
	_ZN15CTzOlsenRuleUse9ActualiseE17TTzRuleDefinitionii @ 126 NONAME ABSENT
	_ZN15CTzOlsenRuleUseC1ERK10TTzRuleUseRK17TTzRuleDefinition @ 127 NONAME ABSENT
	_ZN15CTzOlsenRuleUseC1Ev @ 128 NONAME ABSENT
	_ZN15CTzOlsenRuleUseC2ERK10TTzRuleUseRK17TTzRuleDefinition @ 129 NONAME ABSENT
	_ZN15CTzOlsenRuleUseC2Ev @ 130 NONAME ABSENT
	_ZN24CTzOlsenStdTimeAlignment12InternalizeLER11RReadStream @ 131 NONAME ABSENT
	_ZN24CTzOlsenStdTimeAlignment16CalculateEndTimeER5TTime @ 132 NONAME ABSENT
	_ZN24CTzOlsenStdTimeAlignment18CalculateStartTimeER5TTime @ 133 NONAME ABSENT
	_ZN24CTzOlsenStdTimeAlignment24IsTimeInStdTimeAlignmentEiiiii16TTzTimeReference @ 134 NONAME ABSENT
	_ZN24CTzOlsenStdTimeAlignment4NewLER11RReadStreamP19TTzStdTimeAlignment @ 135 NONAME ABSENT
	_ZN24CTzOlsenStdTimeAlignment9GetRulesLER18CTzActualisedRulesRK9TDateTimeRS2_ @ 136 NONAME ABSENT
	_ZN24CTzOlsenStdTimeAlignmentC1EP19TTzStdTimeAlignment @ 137 NONAME ABSENT
	_ZN24CTzOlsenStdTimeAlignmentC1Ev @ 138 NONAME ABSENT
	_ZN24CTzOlsenStdTimeAlignmentC2EP19TTzStdTimeAlignment @ 139 NONAME ABSENT
	_ZN24CTzOlsenStdTimeAlignmentC2Ev @ 140 NONAME ABSENT
	_ZN24CTzOlsenStdTimeAlignmentD0Ev @ 141 NONAME ABSENT
	_ZN24CTzOlsenStdTimeAlignmentD1Ev @ 142 NONAME ABSENT
	_ZN24CTzOlsenStdTimeAlignmentD2Ev @ 143 NONAME ABSENT
	_ZNK13CTzOlsenRules10RulesApplyERK5TTime @ 144 NONAME ABSENT
	_ZNK13CTzOlsenRules12ExternalizeLER12RWriteStream @ 145 NONAME ABSENT
	_ZNK13CTzOlsenRules17AddSerializedSizeERi @ 146 NONAME ABSENT
	_ZNK13CTzOlsenRules5CountEv @ 147 NONAME ABSENT
	_ZNK13CTzOlsenRules7EndYearEv @ 148 NONAME ABSENT
	_ZNK13CTzOlsenRules9GetRulesLER18CTzActualisedRules @ 149 NONAME ABSENT
	_ZNK13CTzOlsenRules9StartYearEv @ 150 NONAME ABSENT
	_ZNK15CTzOlsenRuleSet12ExternalizeLER12RWriteStream @ 151 NONAME ABSENT
	_ZNK15CTzOlsenRuleSet17AddSerializedSizeERi @ 152 NONAME ABSENT
	_ZNK15CTzOlsenRuleSet9GetRulesLER18CTzActualisedRulesRK17TTzActualisedRuleiRK9TDateTimeS7_ @ 153 NONAME ABSENT
	_ZNK15CTzOlsenRuleUse12ExternalizeLER12RWriteStream @ 154 NONAME ABSENT
	_ZNK15CTzOlsenRuleUse17AddSerializedSizeERi @ 155 NONAME ABSENT
	_ZNK15CTzOlsenRuleUse9GetRulesLER18CTzActualisedRulesiRK9TDateTimeS4_RK17TTzActualisedRule @ 156 NONAME ABSENT
	_ZNK24CTzOlsenStdTimeAlignment12ExternalizeLER12RWriteStream @ 157 NONAME ABSENT
	_ZNK24CTzOlsenStdTimeAlignment17AddSerializedSizeERi @ 158 NONAME ABSENT
	_ZNK3RTz22GetTimeZoneOlsenRulesLERK5TTimeS2_16TTzTimeReference @ 159 NONAME ABSENT
	_ZTI13CTzOlsenRules @ 160 NONAME ABSENT ; #<TI>#
	_ZTI15CTzOlsenRuleSet @ 161 NONAME ABSENT ; #<TI>#
	_ZTI24CTzOlsenStdTimeAlignment @ 162 NONAME ABSENT ; #<TI>#
	_ZTV13CTzOlsenRules @ 163 NONAME ABSENT ; #<VT>#
	_ZTV15CTzOlsenRuleSet @ 164 NONAME ABSENT ; #<VT>#
	_ZTV24CTzOlsenStdTimeAlignment @ 165 NONAME ABSENT ; #<VT>#
	_ZNK13CTzOlsenRules20InitialStdTimeOffsetEv @ 166 NONAME ABSENT
	_ZNK3RTz26NotifyHomeTimeZoneChangedLERKN9NTzUpdate15TTimeZoneChangeE @ 167 NONAME
	_ZN7TTzRuleC1E18TTimeWithReferenceS0_ss6TMonth10TTzRuleDayhh16TTzTimeReferencet @ 168 NONAME
	_ZN7TTzRuleC2E18TTimeWithReferenceS0_ss6TMonth10TTzRuleDayhh16TTzTimeReferencet @ 169 NONAME
	_ZNK18CTzActualisedRulesixEi @ 170 NONAME ABSENT
	_ZNK8CTzRules11ConvertTimeER19CVTzActualisedRulesR5TTime16TTzTimeReference @ 171 NONAME
	_ZNK8CTzRules19GetActualisedRulesLER19CVTzActualisedRules @ 172 NONAME
	_ZNK8CTzRules19GetActualisedRulesLER19CVTzActualisedRulesi @ 173 NONAME ABSENT
	_ZN19CVTzActualisedRules4NewLEii @ 174 NONAME
	_ZNK19CVTzActualisedRules5CountEv @ 175 NONAME
	_ZNK19CVTzActualisedRules7EndYearEv @ 176 NONAME
	_ZNK19CVTzActualisedRules9StartYearEv @ 177 NONAME
	_ZNK19CVTzActualisedRulesixEi @ 178 NONAME
	_ZN3RTz19SetUnknownZoneTimeLERK5TTimei @ 179 NONAME
	_ZN18TVTzActualisedRuleC1E5TTimei16TTzTimeReference @ 180 NONAME
	_ZN18TVTzActualisedRuleC2E5TTimei16TTzTimeReference @ 181 NONAME
	_ZN19CVTzActualisedRules8AddRuleLERK18TVTzActualisedRule @ 182 NONAME
	_ZN19CVTzActualisedRulesD0Ev @ 183 NONAME
	_ZN19CVTzActualisedRulesD1Ev @ 184 NONAME
	_ZN19CVTzActualisedRulesD2Ev @ 185 NONAME
	_ZNK19CVTzActualisedRules18IsDaylightSavingOnER5TTime @ 186 NONAME
	_ZNK19CVTzActualisedRules18GetOffsetFromRuleLERK5TTime16TTzTimeReference @ 187 NONAME
	_ZNK7TTzRule10ActualiseLEi @ 188 NONAME
	_ZN3RTz16__dbgClearCacheLEi @ 189 NONAME
	_ZNK3RTz19IsDaylightSavingOnLER5CTzIdRK5TTime @ 190 NONAME
	_ZN3RTz19SetUnknownZoneTimeLERK5TTimeii @ 191 NONAME
	_ZN11CTzUserData4NewLER3RTz @ 192 NONAME
	_ZN11CTzUserData7CreateLERK8CTzRulesRK12CTzUserNames @ 193 NONAME
	_ZN11CTzUserData7DeleteLERK5CTzId @ 194 NONAME
	_ZN11CTzUserData7UpdateLERK5CTzIdRK8CTzRulesRK12CTzUserNames @ 195 NONAME
	_ZN11CTzUserDataD0Ev @ 196 NONAME
	_ZN11CTzUserDataD1Ev @ 197 NONAME
	_ZN11CTzUserDataD2Ev @ 198 NONAME
	_ZN12CTzUserNames12InternalizeLER11RReadStream @ 199 NONAME
	_ZN12CTzUserNames4NewLER11RReadStream @ 200 NONAME
	_ZN12CTzUserNames4NewLERK7TDesC16S2_S2_S2_S2_S2_ @ 201 NONAME
	_ZN12CTzUserNames5NewLCERK7TDesC16S2_S2_S2_S2_S2_ @ 202 NONAME
	_ZN12CTzUserNamesD0Ev @ 203 NONAME
	_ZN12CTzUserNamesD1Ev @ 204 NONAME
	_ZN12CTzUserNamesD2Ev @ 205 NONAME
	_ZN3RTz15__dbgResetHeapLEv @ 206 NONAME
	_ZN3RTz17__dbgSetHeapFailLEN10RAllocator10TAllocFailEi @ 207 NONAME
	_ZN3RTz27__dbgRequestAllocatedCellsLEi @ 208 NONAME
	_ZNK11CTzUserData10ReadNamesLERK5CTzId @ 209 NONAME
	_ZNK11CTzUserData10ReadRulesLERK5CTzId @ 210 NONAME
	_ZNK11CTzUserData9GetTzIdsLER13RPointerArrayI5CTzIdE @ 211 NONAME
	_ZNK12CTzUserNames10RegionNameEv @ 212 NONAME
	_ZNK12CTzUserNames12ExternalizeLER12RWriteStream @ 213 NONAME
	_ZNK12CTzUserNames12SizeOfObjectEv @ 214 NONAME
	_ZNK12CTzUserNames12StandardNameEv @ 215 NONAME
	_ZNK12CTzUserNames16DaylightSaveNameEv @ 216 NONAME
	_ZNK12CTzUserNames17ShortStandardNameEv @ 217 NONAME
	_ZNK12CTzUserNames21ShortDaylightSaveNameEv @ 218 NONAME
	_ZNK12CTzUserNames8CityNameEv @ 219 NONAME
	_ZNK5CTzId10IsUserTzIdEv @ 220 NONAME
	_ZNK8CTzRules10GetOffsetLERK5TTime16TTzTimeReference @ 221 NONAME
	_ZNK8CTzRules12SizeOfObjectEv @ 222 NONAME
	_ZTI11CTzUserData @ 223 NONAME DATA 12
	_ZTI12CTzUserNames @ 224 NONAME DATA 12
	_ZTV11CTzUserData @ 225 NONAME DATA 20
	_ZTV12CTzUserNames @ 226 NONAME DATA 20
	_ZN22CTzLocalizedCityRecord4NewLER11RReadStream @ 227 NONAME
	_ZN22CTzLocalizedCityRecord4NewLERK7TDesC16hiij @ 228 NONAME
	_ZN22CTzLocalizedCityRecord5NewLCER11RReadStream @ 229 NONAME
	_ZN22CTzLocalizedCityRecord5NewLCERK7TDesC16hiij @ 230 NONAME
	_ZN22CTzLocalizedCityRecordD0Ev @ 231 NONAME
	_ZN22CTzLocalizedCityRecordD1Ev @ 232 NONAME
	_ZN22CTzLocalizedCityRecordD2Ev @ 233 NONAME
	_ZN26CTzLocalizedTimeZoneRecord4NewLER11RReadStream @ 234 NONAME
	_ZN26CTzLocalizedTimeZoneRecord4NewLEiRK7TDesC16S2_S2_S2_j @ 235 NONAME
	_ZN26CTzLocalizedTimeZoneRecord5NewLCER11RReadStream @ 236 NONAME
	_ZN26CTzLocalizedTimeZoneRecord5NewLCEiRK7TDesC16S2_S2_S2_j @ 237 NONAME
	_ZN26CTzLocalizedTimeZoneRecordD0Ev @ 238 NONAME
	_ZN26CTzLocalizedTimeZoneRecordD1Ev @ 239 NONAME
	_ZN26CTzLocalizedTimeZoneRecordD2Ev @ 240 NONAME
	_ZN3RTz22LocalizationWriteCityLERK7TDesC16ihj @ 241 NONAME
	_ZN3RTz23LocalizationDeleteCityLERK7TDesC16i @ 242 NONAME
	_ZNK22CTzLocalizedCityRecord12ExternalizeLER12RWriteStream @ 243 NONAME
	_ZNK22CTzLocalizedCityRecord15ExternalizeSizeEv @ 244 NONAME
	_ZNK26CTzLocalizedTimeZoneRecord12ExternalizeLER12RWriteStream @ 245 NONAME
	_ZNK26CTzLocalizedTimeZoneRecord15ExternalizeSizeEv @ 246 NONAME
	_ZTI22CTzLocalizedCityRecord @ 247 NONAME DATA 12
	_ZTI26CTzLocalizedTimeZoneRecord @ 248 NONAME DATA 12
	_ZTV22CTzLocalizedCityRecord @ 249 NONAME DATA 20
	_ZTV26CTzLocalizedTimeZoneRecord @ 250 NONAME DATA 20
	_ZN3RTz36LocalizationWriteFrequentlyUsedZoneLERK26CTzLocalizedTimeZoneRecordRK22CTzLocalizedCityRecordi @ 251 NONAME
	_ZN22CTzLocalizedCityRecord12InternalizeLER11RReadStreamR13RPointerArrayIS_E @ 252 NONAME
	_ZN26CTzLocalizedTimeZoneRecord12InternalizeLER11RReadStreamR13RPointerArrayIS_E @ 253 NONAME
	_ZN3RTz40LocalizationWriteAllFrequentlyUsedZonesLERK13RPointerArrayI26CTzLocalizedTimeZoneRecordERKS0_I22CTzLocalizedCityRecordE @ 254 NONAME
	_ZN22CTzLocalizedCityRecord12ExternalizeLERK13RPointerArrayIS_ER12RWriteStream @ 255 NONAME
	_ZN22CTzLocalizedCityRecord15ExternalizeSizeERK13RPointerArrayIS_E @ 256 NONAME
	_ZN26CTzLocalizedTimeZoneRecord12ExternalizeLERK13RPointerArrayIS_ER12RWriteStream @ 257 NONAME
	_ZN26CTzLocalizedTimeZoneRecord15ExternalizeSizeERK13RPointerArrayIS_E @ 258 NONAME
	_ZN3RTz23LocalizationReadCitiesLER13RPointerArrayI22CTzLocalizedCityRecordE @ 259 NONAME
	_ZN3RTz23LocalizationReadCitiesLER13RPointerArrayI22CTzLocalizedCityRecordEi @ 260 NONAME
	_ZN3RTz30LocalizationReadCitiesInGroupLER13RPointerArrayI22CTzLocalizedCityRecordEh @ 261 NONAME
	_ZN3RTz35LocalizationReadCachedTimeZoneCityLEi @ 262 NONAME
	_ZN3RTz35LocalizationReadFrequentlyUsedZoneLEi @ 263 NONAME
	_ZN8CTzRules5CopyLERKS_ @ 264 NONAME
	_ZN5CTzId10IsUserTzIdEj @ 265 NONAME
	_ZN3RTz10SwiObsEndLEv @ 266 NONAME
	_ZN3RTz12SwiObsBeginLEv @ 267 NONAME
	_ZN3RTz18SwiObsFileChangedLENS_23TSWIObserverFilterIndexE @ 268 NONAME
	_ZN3RTz19LocalizationOpenDbLEv @ 269 NONAME
	_ZN3RTz20LocalizationCloseDbLEv @ 270 NONAME
	_ZN22CTzLocalizedCityRecord12CleanupArrayEPv @ 271 NONAME
	_ZN26CTzLocalizedTimeZoneRecord12CleanupArrayEPv @ 272 NONAME

