EXPORTS
	_Z18CheckIPv4ValidityLP16CCmPluginBaseEngmPKv @ 1 NONAME ABSENT
	_Z18CheckIPv6ValidityLP16CCmPluginBaseEngmPKv @ 2 NONAME ABSENT
	_Z18ReadOnlyAttributeLP16CCmPluginBaseEngmPKv @ 3 NONAME ABSENT
	_Z19ClassifyIPv6AddressRK7TDesC16 @ 4 NONAME ABSENT
	_Z19SetProxyServerNameLP16CCmPluginBaseEngmPKv @ 5 NONAME ABSENT
	_Z22CheckRecordIdValidityLP16CCmPluginBaseEngmPKv @ 6 NONAME ABSENT
	_Z24CheckPortNumberValidityLP16CCmPluginBaseEngmPKv @ 7 NONAME ABSENT
	_Z24IsUnspecifiedIPv4AddressRK7TDesC16 @ 8 NONAME ABSENT
	_Z26CheckWAPWspOptionValidityLP16CCmPluginBaseEngmPKv @ 9 NONAME ABSENT
	_ZN10RCmManager12ReadDefConnLER15TCmDefConnValue @ 10 NONAME
	_ZN10RCmManager5CloseEv @ 11 NONAME
	_ZN10RCmManager5OpenLEv @ 12 NONAME
	_ZN10RCmManager6OpenLCEv @ 13 NONAME
	_ZN11TCmCommonUi14ShowPopupListLERK7TDesC16P16CDesC16ArrayFlatP9CArrayPtrI8CGulIconEjRi @ 14 NONAME ABSENT
	_ZN11TCmCommonUi22ShowConfirmationQueryLEi @ 15 NONAME ABSENT
	_ZN11TCmCommonUi22ShowConfirmationQueryLEiRK7TDesC16 @ 16 NONAME ABSENT
	_ZN11TCmCommonUi31ShowConfirmationQueryWithInputLEiR6TDes16 @ 17 NONAME ABSENT
	_ZN11TCmCommonUi9ShowNoteLERK7TDesC16NS_11TCmNoteTypeE @ 18 NONAME ABSENT
	_ZN11TCmCommonUi9ShowNoteLEiNS_11TCmNoteTypeE @ 19 NONAME ABSENT
	_ZN11TCmCommonUi9ShowNoteLEiRK7TDesC16NS_11TCmNoteTypeE @ 20 NONAME ABSENT
	_ZN13CCmSettingsUi12RunSettingsLEv @ 21 NONAME ABSENT
	_ZN13CCmSettingsUi21SelectDestinationDlgLERm @ 22 NONAME ABSENT
	_ZN13CCmSettingsUi4NewLEv @ 23 NONAME ABSENT
	_ZN13CCmSettingsUiD0Ev @ 24 NONAME ABSENT
	_ZN13CCmSettingsUiD1Ev @ 25 NONAME ABSENT
	_ZN13CCmSettingsUiD2Ev @ 26 NONAME ABSENT
	_ZN13RCmManagerExt11EasyWlanIdLEv @ 27 NONAME
	_ZN13RCmManagerExt12DestinationLEm @ 28 NONAME
	_ZN13RCmManagerExt12ReadDefConnLER15TCmDefConnValue @ 29 NONAME
	_ZN13RCmManagerExt13WriteDefConnLERK15TCmDefConnValue @ 30 NONAME
	_ZN13RCmManagerExt16AllDestinationsLER6RArrayImE @ 31 NONAME
	_ZN13RCmManagerExt17ConnectionMethodLER6RArrayImEiii @ 32 NONAME
	_ZN13RCmManagerExt17ConnectionMethodLEm @ 33 NONAME
	_ZN13RCmManagerExt18CreateDestinationLERK7TDesC16 @ 34 NONAME
	_ZN13RCmManagerExt20RemoveAllReferencesLER22RCmConnectionMethodExt @ 35 NONAME
	_ZN13RCmManagerExt21CopyConnectionMethodLER17RCmDestinationExtR22RCmConnectionMethodExt @ 36 NONAME
	_ZN13RCmManagerExt21MoveConnectionMethodLER17RCmDestinationExtS1_R22RCmConnectionMethodExt @ 37 NONAME
	_ZN13RCmManagerExt23CreateConnectionMethodLEm @ 38 NONAME
	_ZN13RCmManagerExt23RemoveConnectionMethodLER17RCmDestinationExtR22RCmConnectionMethodExt @ 39 NONAME
	_ZN13RCmManagerExt26UpdateBearerPriorityArrayLERK6RArrayI15TBearerPriorityE @ 40 NONAME
	_ZN13RCmManagerExt5CloseEv @ 41 NONAME
	_ZN13RCmManagerExt5OpenLEv @ 42 NONAME
	_ZN13RCmManagerExt6OpenLCEv @ 43 NONAME
	_ZN14CCmManagerImpl11EasyWlanIdLEv @ 44 NONAME ABSENT
	_ZN14CCmManagerImpl12DestinationLEm @ 45 NONAME ABSENT
	_ZN14CCmManagerImpl16AllDestinationsLER6RArrayImE @ 46 NONAME ABSENT
	_ZN14CCmManagerImpl17ConnectionMethodLER6RArrayImEiiii @ 47 NONAME ABSENT
	_ZN14CCmManagerImpl17ConnectionMethodLEm @ 48 NONAME ABSENT
	_ZN14RCmDestination5CloseEv @ 49 NONAME
	_ZN14RCmDestinationC1ERKS_ @ 50 NONAME
	_ZN14RCmDestinationC2ERKS_ @ 51 NONAME
	_ZN14RCmDestinationD1Ev @ 52 NONAME
	_ZN14RCmDestinationD2Ev @ 53 NONAME
	_ZN14RCmDestinationaSERKS_ @ 54 NONAME
	_ZN16CCmPluginBaseEng10ConstructLEv @ 55 NONAME ABSENT
	_ZN16CCmPluginBaseEng10CreateNewLEv @ 56 NONAME ABSENT
	_ZN16CCmPluginBaseEng12EnableProxyLEi @ 57 NONAME ABSENT
	_ZN16CCmPluginBaseEng13ConvTableItemEm @ 58 NONAME ABSENT
	_ZN16CCmPluginBaseEng15EnableLocationLEi @ 59 NONAME ABSENT
	_ZN16CCmPluginBaseEng16AddResourceFileLERK7TDesC16 @ 60 NONAME ABSENT
	_ZN16CCmPluginBaseEng16FeatureSupportedEi @ 61 NONAME ABSENT
	_ZN16CCmPluginBaseEng16SetIntAttributeLEmm @ 62 NONAME ABSENT
	_ZN16CCmPluginBaseEng17EnableChargeCardLEi @ 63 NONAME ABSENT
	_ZN16CCmPluginBaseEng17RestoreAttributeLEm @ 64 NONAME ABSENT
	_ZN16CCmPluginBaseEng17SetBoolAttributeLEmi @ 65 NONAME ABSENT
	_ZN16CCmPluginBaseEng18RemoveResourceFileERK7TDesC16 @ 66 NONAME ABSENT
	_ZN16CCmPluginBaseEng18UpdateProxyRecordLEv @ 67 NONAME ABSENT
	_ZN16CCmPluginBaseEng19LoadServiceSettingLEv @ 68 NONAME ABSENT
	_ZN16CCmPluginBaseEng19SetStringAttributeLEmRK7TDesC16 @ 69 NONAME ABSENT
	_ZN16CCmPluginBaseEng20AddConverstionTableLEPPN8CommsDat13CCDRecordBaseEPiPK18TCmAttribConvTable @ 70 NONAME ABSENT
	_ZN16CCmPluginBaseEng20SetDNSServerAddressLEmRK7TDesC16mS2_mi @ 71 NONAME ABSENT
	_ZN16CCmPluginBaseEng20SetString8AttributeLEmRK6TDesC8 @ 72 NONAME ABSENT
	_ZN16CCmPluginBaseEng20UpdateServiceRecordLEv @ 73 NONAME ABSENT
	_ZN16CCmPluginBaseEng21PrepareToLoadRecordsLEv @ 74 NONAME ABSENT
	_ZN16CCmPluginBaseEng21RemoveConversionTableEPK18TCmAttribConvTable @ 75 NONAME ABSENT
	_ZN16CCmPluginBaseEng22CheckDNSServerAddressLEiRN8CommsDat9CMDBFieldI7TDesC16EES4_RNS1_IiEE @ 76 NONAME ABSENT
	_ZN16CCmPluginBaseEng23PrepareToUpdateRecordsLEv @ 77 NONAME ABSENT
	_ZN16CCmPluginBaseEng25AddCommonConversionTableLEPK26TCmCommonAttrConvArrayItem @ 78 NONAME ABSENT
	_ZN16CCmPluginBaseEng26NumOfConnMethodReferencesLEv @ 79 NONAME ABSENT
	_ZN16CCmPluginBaseEng27RemoveCommonConversionTableEPK26TCmCommonAttrConvArrayItem @ 80 NONAME ABSENT
	_ZN16CCmPluginBaseEng5LoadLEm @ 81 NONAME ABSENT
	_ZN16CCmPluginBaseEng5ResetEv @ 82 NONAME ABSENT
	_ZN16CCmPluginBaseEng7DeleteLEii @ 83 NONAME ABSENT
	_ZN16CCmPluginBaseEng7UpdateLEv @ 84 NONAME ABSENT
	_ZN16CCmPluginBaseEngC2EP18TCmPluginInitParam @ 85 NONAME ABSENT
	_ZN16CCmPluginBaseEngD0Ev @ 86 NONAME ABSENT
	_ZN16CCmPluginBaseEngD1Ev @ 87 NONAME ABSENT
	_ZN16CCmPluginBaseEngD2Ev @ 88 NONAME ABSENT
	_ZN16CCmPluginLanBase10ConstructLEv @ 89 NONAME ABSENT
	_ZN16CCmPluginLanBase12RunSettingsLEv @ 90 NONAME ABSENT
	_ZN16CCmPluginLanBase16BearerRecordIdLCERP7HBufC16Rm @ 91 NONAME ABSENT
	_ZN16CCmPluginLanBase17InitializeWithUiLEi @ 92 NONAME ABSENT
	_ZN16CCmPluginLanBase17ServiceRecordIdLCERP7HBufC16Rm @ 93 NONAME ABSENT
	_ZN16CCmPluginLanBase19LoadServiceSettingLEv @ 94 NONAME ABSENT
	_ZN16CCmPluginLanBase23CreateNewServiceRecordLEv @ 95 NONAME ABSENT
	_ZN16CCmPluginLanBase23PrepareToUpdateRecordsLEv @ 96 NONAME ABSENT
	_ZN16CCmPluginLanBaseC2EP18TCmPluginInitParam @ 97 NONAME ABSENT
	_ZN16CCmPluginLanBaseD0Ev @ 98 NONAME ABSENT
	_ZN16CCmPluginLanBaseD1Ev @ 99 NONAME ABSENT
	_ZN16CCmPluginLanBaseD2Ev @ 100 NONAME ABSENT
	_ZN17RCmDestinationExt10SetHiddenLEi @ 101 NONAME
	_ZN17RCmDestinationExt12SetMetadataLEN9CMManager18TSnapMetadataFieldEm @ 102 NONAME
	_ZN17RCmDestinationExt14SetProtectionLEN9CMManager16TProtectionLevelE @ 103 NONAME
	_ZN17RCmDestinationExt15ModifyPriorityLER22RCmConnectionMethodExtj @ 104 NONAME
	_ZN17RCmDestinationExt15ProtectionLevelEv @ 105 NONAME
	_ZN17RCmDestinationExt17ConnectionMethodLEi @ 106 NONAME
	_ZN17RCmDestinationExt20AddConnectionMethodLE22RCmConnectionMethodExt @ 107 NONAME
	_ZN17RCmDestinationExt21ConnectionMethodByIDLEi @ 108 NONAME
	_ZN17RCmDestinationExt21ConnectionMethodCountEv @ 109 NONAME
	_ZN17RCmDestinationExt23AddEmbeddedDestinationLERKS_ @ 110 NONAME
	_ZN17RCmDestinationExt23CreateConnectionMethodLEm @ 111 NONAME
	_ZN17RCmDestinationExt23DeleteConnectionMethodLER22RCmConnectionMethodExt @ 112 NONAME
	_ZN17RCmDestinationExt23RemoveConnectionMethodLE22RCmConnectionMethodExt @ 113 NONAME
	_ZN17RCmDestinationExt2IdEv @ 114 NONAME
	_ZN17RCmDestinationExt5CloseEv @ 115 NONAME
	_ZN17RCmDestinationExt5IconLEv @ 116 NONAME ABSENT
	_ZN17RCmDestinationExt6NameLCEv @ 117 NONAME
	_ZN17RCmDestinationExt7UpdateLEv @ 118 NONAME
	_ZN17RCmDestinationExt8DeleteLDEv @ 119 NONAME
	_ZN17RCmDestinationExt8IsHiddenEv @ 120 NONAME
	_ZN17RCmDestinationExt8SetIconLEm @ 121 NONAME ABSENT
	_ZN17RCmDestinationExt8SetNameLERK7TDesC16 @ 122 NONAME
	_ZN17RCmDestinationExt9ElementIdEv @ 123 NONAME
	_ZN17RCmDestinationExt9PriorityLERK22RCmConnectionMethodExt @ 124 NONAME
	_ZN17RCmDestinationExtC1ERKS_ @ 125 NONAME
	_ZN17RCmDestinationExtC2ERKS_ @ 126 NONAME
	_ZN17RCmDestinationExtD1Ev @ 127 NONAME
	_ZN17RCmDestinationExtD2Ev @ 128 NONAME
	_ZN17RCmDestinationExtaSERKS_ @ 129 NONAME
	_ZN18CCmDestinationImpl10SetHiddenLEi @ 130 NONAME ABSENT
	_ZN18CCmDestinationImpl14RemoveFromPoolEv @ 131 NONAME ABSENT
	_ZN18CCmDestinationImpl14SetProtectionLEN9CMManager16TProtectionLevelE @ 132 NONAME ABSENT
	_ZN18CCmDestinationImpl15ProtectionLevelEv @ 133 NONAME ABSENT
	_ZN18CCmDestinationImpl17ConnectionMethodLEi @ 134 NONAME ABSENT
	_ZN18CCmDestinationImpl21ConnectionMethodCountEv @ 135 NONAME ABSENT
	_ZN18CCmDestinationImpl4NewLER14CCmManagerImplRK7TDesC16 @ 136 NONAME ABSENT
	_ZN18CCmDestinationImpl4NewLER14CCmManagerImplj @ 137 NONAME ABSENT
	_ZN18CCmDestinationImpl5IconLEv @ 138 NONAME ABSENT
	_ZN18CCmDestinationImpl6NameLCEv @ 139 NONAME ABSENT
	_ZN18CCmDestinationImpl7UpdateLEv @ 140 NONAME ABSENT
	_ZN18CCmDestinationImpl8DeleteLDEv @ 141 NONAME ABSENT
	_ZN18CCmDestinationImpl8IsHiddenEv @ 142 NONAME ABSENT
	_ZN18CCmDestinationImpl8SetNameLERK7TDesC16 @ 143 NONAME ABSENT
	_ZN18CCmDestinationImpl9PriorityLER16CCmPluginBaseEng @ 144 NONAME ABSENT
	_ZN19RCmConnectionMethod5CloseEv @ 145 NONAME
	_ZN21CCmConnSettingsUiImpl23RunApplicationSettingsLER19TCmSettingSelectionjR6RArrayImE @ 146 NONAME ABSENT
	_ZN21CCmConnSettingsUiImpl4NewLEP14CCmManagerImpl @ 147 NONAME ABSENT
	_ZN21CCmTransactionHandler5CloseEv @ 148 NONAME ABSENT
	_ZN22RCmConnectionMethodExt11CreateCopyLEv @ 149 NONAME
	_ZN22RCmConnectionMethodExt16SetIntAttributeLEmm @ 150 NONAME
	_ZN22RCmConnectionMethodExt17SetBoolAttributeLEmi @ 151 NONAME
	_ZN22RCmConnectionMethodExt19SetStringAttributeLEmRK7TDesC16 @ 152 NONAME
	_ZN22RCmConnectionMethodExt20SetString8AttributeLEmRK6TDesC8 @ 153 NONAME
	_ZN22RCmConnectionMethodExt5CloseEv @ 154 NONAME
	_ZN22RCmConnectionMethodExt7DeleteLEv @ 155 NONAME
	_ZN22RCmConnectionMethodExt7UpdateLEv @ 156 NONAME
	_ZN23CmPluginBaseSettingsDlg10InitTextsLEv @ 157 NONAME ABSENT
	_ZN23CmPluginBaseSettingsDlg10SelectItemEi @ 158 NONAME ABSENT
	_ZN23CmPluginBaseSettingsDlg13LoadResourceLERK7TDesC16 @ 159 NONAME ABSENT
	_ZN23CmPluginBaseSettingsDlg15GetIPv6DNSTypeLEmm @ 160 NONAME ABSENT
	_ZN23CmPluginBaseSettingsDlg15ProcessCommandLEi @ 161 NONAME ABSENT
	_ZN23CmPluginBaseSettingsDlg16DynInitMenuPaneLEiP12CEikMenuPane @ 162 NONAME ABSENT
	_ZN23CmPluginBaseSettingsDlg17ConstructAndRunLDEv @ 163 NONAME ABSENT
	_ZN23CmPluginBaseSettingsDlg17PreLayoutDynInitLEv @ 164 NONAME ABSENT
	_ZN23CmPluginBaseSettingsDlg19AppendSettingTextsLER12CDesC16ArrayiPK7HBufC16 @ 165 NONAME ABSENT
	_ZN23CmPluginBaseSettingsDlg19AppendSettingTextsLER12CDesC16Arrayii @ 166 NONAME ABSENT
	_ZN23CmPluginBaseSettingsDlg19HandleListBoxEventLEP11CEikListBoxN19MEikListBoxObserver13TListBoxEventE @ 167 NONAME ABSENT
	_ZN23CmPluginBaseSettingsDlg21ShowPopupSettingPageLEmi @ 168 NONAME ABSENT
	_ZN23CmPluginBaseSettingsDlg21UpdateListBoxContentLEv @ 169 NONAME ABSENT
	_ZN23CmPluginBaseSettingsDlg23ShowPopupIPv4DNSEditorLEmmmm @ 170 NONAME ABSENT
	_ZN23CmPluginBaseSettingsDlg23ShowPopupIPv6DNSEditorLEPKmmmm @ 171 NONAME ABSENT
	_ZN23CmPluginBaseSettingsDlg23ShowPopupIpSettingPageLEmm @ 172 NONAME ABSENT
	_ZN23CmPluginBaseSettingsDlg24HandleListboxDataChangeLEv @ 173 NONAME ABSENT
	_ZN23CmPluginBaseSettingsDlg25ShowPopupTextSettingPageLEmm @ 174 NONAME ABSENT
	_ZN23CmPluginBaseSettingsDlg27ShowRadioButtonSettingPageLEPKmRim @ 175 NONAME ABSENT
	_ZN23CmPluginBaseSettingsDlg27ShowRadioButtonSettingPageLER16CDesC16ArrayFlatRim @ 176 NONAME ABSENT
	_ZN23CmPluginBaseSettingsDlg27StringAttributeWithDefaultLEmm @ 177 NONAME ABSENT
	_ZN23CmPluginBaseSettingsDlg28ShowPopupPortNumSettingPageLEmm @ 178 NONAME ABSENT
	_ZN23CmPluginBaseSettingsDlg29ShowPopupPasswordSettingPageLEmm @ 179 NONAME ABSENT
	_ZN23CmPluginBaseSettingsDlg9OkToExitLEi @ 180 NONAME ABSENT
	_ZN23CmPluginBaseSettingsDlgC2ER16CCmPluginBaseEng @ 181 NONAME ABSENT
	_ZN23CmPluginBaseSettingsDlgD0Ev @ 182 NONAME ABSENT
	_ZN23CmPluginBaseSettingsDlgD1Ev @ 183 NONAME ABSENT
	_ZN23CmPluginBaseSettingsDlgD2Ev @ 184 NONAME ABSENT
	_ZN24CCmApplicationSettingsUi23RunApplicationSettingsLER19TCmSettingSelection @ 185 NONAME
	_ZN24CCmApplicationSettingsUi23RunApplicationSettingsLER19TCmSettingSelectionjR6RArrayImE @ 186 NONAME
	_ZN24CCmApplicationSettingsUi4NewLEv @ 187 NONAME
	_ZN24CCmApplicationSettingsUi5NewLCEv @ 188 NONAME
	_ZN24CCmApplicationSettingsUiD0Ev @ 189 NONAME
	_ZN24CCmApplicationSettingsUiD1Ev @ 190 NONAME
	_ZN24CCmApplicationSettingsUiD2Ev @ 191 NONAME
	_ZN24CCmPluginMultiLineDialog4NewLER6TDes16S1_N15CAknQueryDialog5TToneE @ 192 NONAME ABSENT
	_ZN25CmPluginBaseSettingsDlgIp16DynInitMenuPaneLEiP12CEikMenuPane @ 193 NONAME ABSENT
	_ZN25CmPluginBaseSettingsDlgIp20RunAdvancedSettingsLEv @ 194 NONAME ABSENT
	_ZN25CmPluginBaseSettingsDlgIp21UpdateListBoxContentLEv @ 195 NONAME ABSENT
	_ZN25CmPluginBaseSettingsDlgIpC1ER16CCmPluginBaseEng @ 196 NONAME ABSENT
	_ZN25CmPluginBaseSettingsDlgIpC2ER16CCmPluginBaseEng @ 197 NONAME ABSENT
	_ZN25CmPluginBaseSettingsDlgIpD0Ev @ 198 NONAME ABSENT
	_ZN25CmPluginBaseSettingsDlgIpD1Ev @ 199 NONAME ABSENT
	_ZN25CmPluginBaseSettingsDlgIpD2Ev @ 200 NONAME ABSENT
	_ZN26CmPluginBaseSettingsDlgAdv16DynInitMenuPaneLEiP12CEikMenuPane @ 201 NONAME ABSENT
	_ZN26CmPluginBaseSettingsDlgAdv20RunAdvancedSettingsLEv @ 202 NONAME ABSENT
	_ZN26CmPluginBaseSettingsDlgAdv21ShowPopupSettingPageLEii @ 203 NONAME ABSENT
	_ZN26CmPluginBaseSettingsDlgAdv21UpdateListBoxContentLEv @ 204 NONAME ABSENT
	_ZN26CmPluginBaseSettingsDlgAdvC1ER16CCmPluginBaseEng @ 205 NONAME ABSENT
	_ZN26CmPluginBaseSettingsDlgAdvC2ER16CCmPluginBaseEng @ 206 NONAME ABSENT
	_ZN26CmPluginBaseSettingsDlgAdvD0Ev @ 207 NONAME ABSENT
	_ZN26CmPluginBaseSettingsDlgAdvD1Ev @ 208 NONAME ABSENT
	_ZN26CmPluginBaseSettingsDlgAdvD2Ev @ 209 NONAME ABSENT
	_ZN28CCmApplicationSettingsUiImpl23RunApplicationSettingsLER19TCmSettingSelection @ 210 NONAME ABSENT
	_ZN28CCmApplicationSettingsUiImpl4NewLEv @ 211 NONAME ABSENT
	_ZNK10RCmManager11EasyWlanIdLEv @ 212 NONAME
	_ZNK10RCmManager12DestinationLEm @ 213 NONAME
	_ZNK10RCmManager16AllDestinationsLER6RArrayImE @ 214 NONAME
	_ZNK10RCmManager17ConnectionMethodLER6RArrayImEiii @ 215 NONAME
	_ZNK10RCmManager17ConnectionMethodLEm @ 216 NONAME
	_ZNK10RCmManager17GetBearerInfoIntLEmm @ 217 NONAME
	_ZNK10RCmManager18GetBearerInfoBoolLEmm @ 218 NONAME
	_ZNK10RCmManager20BearerPriorityArrayLER6RArrayI15TBearerPriorityE @ 219 NONAME
	_ZNK10RCmManager20GetBearerInfoStringLEmm @ 220 NONAME
	_ZNK10RCmManager21GetBearerInfoString8LEmm @ 221 NONAME
	_ZNK10RCmManager26CleanupGlobalPriorityArrayER6RArrayI15TBearerPriorityE @ 222 NONAME
	_ZNK10RCmManager27GetConnectionMethodInfoIntLEmm @ 223 NONAME
	_ZNK10RCmManager28GetConnectionMethodInfoBoolLEmm @ 224 NONAME
	_ZNK10RCmManager30GetConnectionMethodInfoStringLEmm @ 225 NONAME
	_ZNK10RCmManager31GetConnectionMethodInfoString8LEmm @ 226 NONAME
	_ZNK13RCmManagerExt17GetBearerInfoIntLEmm @ 227 NONAME
	_ZNK13RCmManagerExt17SupportedBearersLER6RArrayImE @ 228 NONAME
	_ZNK13RCmManagerExt18GetBearerInfoBoolLEmm @ 229 NONAME
	_ZNK13RCmManagerExt18UncategorizedIconLEv @ 230 NONAME ABSENT
	_ZNK13RCmManagerExt20BearerPriorityArrayLER6RArrayI15TBearerPriorityE @ 231 NONAME
	_ZNK13RCmManagerExt20GetBearerInfoStringLEmm @ 232 NONAME
	_ZNK13RCmManagerExt21GetBearerInfoString8LEmm @ 233 NONAME
	_ZNK13RCmManagerExt26CleanupGlobalPriorityArrayER6RArrayI15TBearerPriorityE @ 234 NONAME
	_ZNK13RCmManagerExt27GetConnectionMethodInfoIntLEmm @ 235 NONAME
	_ZNK13RCmManagerExt28GetConnectionMethodInfoBoolLEmm @ 236 NONAME
	_ZNK13RCmManagerExt30GetConnectionMethodInfoStringLEmm @ 237 NONAME
	_ZNK13RCmManagerExt31GetConnectionMethodInfoString8LEmm @ 238 NONAME
	_ZNK14CCmManagerImpl17GetBearerInfoIntLEmm @ 239 NONAME ABSENT
	_ZNK14CCmManagerImpl18GetBearerInfoBoolLEmm @ 240 NONAME ABSENT
	_ZNK14CCmManagerImpl20GetBearerInfoStringLEmm @ 241 NONAME ABSENT
	_ZNK14CCmManagerImpl21GetBearerInfoString8LEmm @ 242 NONAME ABSENT
	_ZNK14CCmManagerImpl27GetConnectionMethodInfoIntLEmm @ 243 NONAME ABSENT
	_ZNK14CCmManagerImpl28GetConnectionMethodInfoBoolLEmm @ 244 NONAME ABSENT
	_ZNK14CCmManagerImpl30GetConnectionMethodInfoStringLEmm @ 245 NONAME ABSENT
	_ZNK14CCmManagerImpl31GetConnectionMethodInfoString8LEmm @ 246 NONAME ABSENT
	_ZNK14RCmDestination12IsConnectedLEv @ 247 NONAME
	_ZNK14RCmDestination15ProtectionLevelEv @ 248 NONAME
	_ZNK14RCmDestination17ConnectionMethodLEi @ 249 NONAME
	_ZNK14RCmDestination21ConnectionMethodByIDLEi @ 250 NONAME
	_ZNK14RCmDestination21ConnectionMethodCountEv @ 251 NONAME
	_ZNK14RCmDestination2IdEv @ 252 NONAME
	_ZNK14RCmDestination5IconLEv @ 253 NONAME ABSENT
	_ZNK14RCmDestination6NameLCEv @ 254 NONAME
	_ZNK14RCmDestination8IsHiddenEv @ 255 NONAME
	_ZNK14RCmDestination9ElementIdEv @ 256 NONAME
	_ZNK14RCmDestination9MetadataLEN9CMManager18TSnapMetadataFieldE @ 257 NONAME
	_ZNK14RCmDestination9PriorityLERK19RCmConnectionMethod @ 258 NONAME
	_ZNK16CCmPluginBaseEng10AllocReadLEi @ 259 NONAME ABSENT
	_ZNK16CCmPluginBaseEng11CreateCopyLEv @ 260 NONAME ABSENT
	_ZNK16CCmPluginBaseEng11DestinationEv @ 261 NONAME ABSENT
	_ZNK16CCmPluginBaseEng16GetIntAttributeLEm @ 262 NONAME ABSENT
	_ZNK16CCmPluginBaseEng17GetBoolAttributeLEm @ 263 NONAME ABSENT
	_ZNK16CCmPluginBaseEng19GetStringAttributeLEm @ 264 NONAME ABSENT
	_ZNK16CCmPluginBaseEng20CheckIfNameModifiedLEPN8CommsDat13CCDRecordBaseE @ 265 NONAME ABSENT
	_ZNK16CCmPluginBaseEng20GetString8AttributeLEm @ 266 NONAME ABSENT
	_ZNK16CCmPluginBaseEng20GlobalBearerPriorityERK7TDesC16 @ 267 NONAME ABSENT
	_ZNK16CCmPluginBaseEng22GlobalUiBearerPriorityERK7TDesC16 @ 268 NONAME ABSENT
	_ZNK16CCmPluginBaseEng23CheckIfAlreadyConnectedEv @ 269 NONAME ABSENT
	_ZNK16CCmPluginBaseEng7SessionEv @ 270 NONAME ABSENT
	_ZNK16CCmPluginLanBase13ServiceRecordEv @ 271 NONAME ABSENT
	_ZNK17RCmDestinationExt12IsConnectedLEv @ 272 NONAME
	_ZNK17RCmDestinationExt9MetadataLEN9CMManager18TSnapMetadataFieldE @ 273 NONAME
	_ZNK18CCmDestinationImpl12IsConnectedLEv @ 274 NONAME ABSENT
	_ZNK19RCmConnectionMethod12DestinationLEv @ 275 NONAME
	_ZNK19RCmConnectionMethod16GetIntAttributeLEm @ 276 NONAME
	_ZNK19RCmConnectionMethod17GetBoolAttributeLEm @ 277 NONAME
	_ZNK19RCmConnectionMethod19GetStringAttributeLEm @ 278 NONAME
	_ZNK19RCmConnectionMethod20GetString8AttributeLEm @ 279 NONAME
	_ZNK22RCmConnectionMethodExt12DestinationLEv @ 280 NONAME
	_ZNK22RCmConnectionMethodExt16GetIntAttributeLEm @ 281 NONAME
	_ZNK22RCmConnectionMethodExt17GetBoolAttributeLEm @ 282 NONAME
	_ZNK22RCmConnectionMethodExt19GetStringAttributeLEm @ 283 NONAME
	_ZNK22RCmConnectionMethodExt20GetString8AttributeLEm @ 284 NONAME
	_ZNK23CmPluginBaseSettingsDlg14GetHelpContextER15TCoeHelpContext @ 285 NONAME ABSENT
	_ZNK23CmPluginBaseSettingsDlg19AppendSettingTextsLER12CDesC16ArrayiiRK7TDesC16i @ 286 NONAME ABSENT
	_ZNK23CmPluginBaseSettingsDlg19AppendSettingTextsLER12CDesC16Arrayiiii @ 287 NONAME ABSENT
	_ZTI16CCmPluginBaseEng @ 288 NONAME ABSENT ; #<TI>#
	_ZTI16CCmPluginLanBase @ 289 NONAME ABSENT ; #<TI>#
	_ZTI23CmPluginBaseSettingsDlg @ 290 NONAME ABSENT ; #<TI>#
	_ZTI25CmPluginBaseSettingsDlgIp @ 291 NONAME ABSENT ; #<TI>#
	_ZTI26CmPluginBaseSettingsDlgAdv @ 292 NONAME ABSENT ; #<TI>#
	_ZTIN11TCmCommonUi12CCmDesCArrayE @ 293 NONAME ABSENT ; #<TI>#
	_ZTV16CCmPluginBaseEng @ 294 NONAME ABSENT ; #<VT>#
	_ZTV16CCmPluginLanBase @ 295 NONAME ABSENT ; #<VT>#
	_ZTV23CmPluginBaseSettingsDlg @ 296 NONAME ABSENT ; #<VT>#
	_ZTV25CmPluginBaseSettingsDlgIp @ 297 NONAME ABSENT ; #<VT>#
	_ZTV26CmPluginBaseSettingsDlgAdv @ 298 NONAME ABSENT ; #<VT>#
	_ZTVN11TCmCommonUi12CCmDesCArrayE @ 299 NONAME ABSENT ; #<VT>#
	_ZThn156_N23CmPluginBaseSettingsDlg15ProcessCommandLEi @ 300 NONAME ABSENT ; #<thunk>#
	_ZThn156_N23CmPluginBaseSettingsDlg16DynInitMenuPaneLEiP12CEikMenuPane @ 301 NONAME ABSENT ; #<thunk>#
	_ZThn156_N25CmPluginBaseSettingsDlgIp16DynInitMenuPaneLEiP12CEikMenuPane @ 302 NONAME ABSENT ; #<thunk>#
	_ZThn156_N26CmPluginBaseSettingsDlgAdv16DynInitMenuPaneLEiP12CEikMenuPane @ 303 NONAME ABSENT ; #<thunk>#
	_ZThn176_N23CmPluginBaseSettingsDlg19HandleListBoxEventLEP11CEikListBoxN19MEikListBoxObserver13TListBoxEventE @ 304 NONAME ABSENT ; #<thunk>#
	_ZN14RCmDestinationC1Ev @ 305 NONAME
	_ZN14RCmDestinationC2Ev @ 306 NONAME
	_ZN17RCmDestinationExtC1Ev @ 307 NONAME
	_ZN17RCmDestinationExtC2Ev @ 308 NONAME
	_ZNK14RCmDestinationeqERKS_ @ 309 NONAME
	_ZNK14RCmDestinationneERKS_ @ 310 NONAME
	_ZNK17RCmDestinationExteqERKS_ @ 311 NONAME
	_ZNK17RCmDestinationExtneERKS_ @ 312 NONAME
	_ZN13CCmPluginBase10ConstructLEv @ 313 NONAME ABSENT
	_ZN13CCmPluginBase10CreateNewLEv @ 314 NONAME ABSENT
	_ZN13CCmPluginBase12EnableProxyLEi @ 315 NONAME ABSENT
	_ZN13CCmPluginBase15EnableLocationLEi @ 316 NONAME ABSENT
	_ZN13CCmPluginBase16AddResourceFileLERK7TDesC16 @ 317 NONAME ABSENT
	_ZN13CCmPluginBase16SetIntAttributeLEmm @ 318 NONAME ABSENT
	_ZN13CCmPluginBase17EnableChargeCardLEi @ 319 NONAME ABSENT
	_ZN13CCmPluginBase17RestoreAttributeLEm @ 320 NONAME ABSENT
	_ZN13CCmPluginBase17SetBoolAttributeLEmi @ 321 NONAME ABSENT
	_ZN13CCmPluginBase18RemoveResourceFileERK7TDesC16 @ 322 NONAME ABSENT
	_ZN13CCmPluginBase18UpdateProxyRecordLEv @ 323 NONAME ABSENT
	_ZN13CCmPluginBase19LoadServiceSettingLEv @ 324 NONAME ABSENT
	_ZN13CCmPluginBase19SetStringAttributeLEmRK7TDesC16 @ 325 NONAME ABSENT
	_ZN13CCmPluginBase20SetString8AttributeLEmRK6TDesC8 @ 326 NONAME ABSENT
	_ZN13CCmPluginBase20UpdateServiceRecordLEv @ 327 NONAME ABSENT
	_ZN13CCmPluginBase21PrepareToLoadRecordsLEv @ 328 NONAME ABSENT
	_ZN13CCmPluginBase23PrepareToUpdateRecordsLEv @ 329 NONAME ABSENT
	_ZN13CCmPluginBase26NumOfConnMethodReferencesLEv @ 330 NONAME ABSENT
	_ZN13CCmPluginBase5LoadLEm @ 331 NONAME ABSENT
	_ZN13CCmPluginBase7DeleteLEii @ 332 NONAME ABSENT
	_ZN13CCmPluginBase7UpdateLEv @ 333 NONAME ABSENT
	_ZN13CCmPluginBaseC1EP16CCmPluginBaseEng @ 334 NONAME ABSENT
	_ZN13CCmPluginBaseC2EP16CCmPluginBaseEng @ 335 NONAME ABSENT
	_ZN13CCmPluginBaseD0Ev @ 336 NONAME ABSENT
	_ZN13CCmPluginBaseD1Ev @ 337 NONAME ABSENT
	_ZN13CCmPluginBaseD2Ev @ 338 NONAME ABSENT
	_ZN14CCmManagerImpl20GetConnectionMethodLEm @ 339 NONAME ABSENT
	_ZN18CCmDestinationImpl20GetConnectionMethodLEi @ 340 NONAME ABSENT
	_ZNK13CCmPluginBase10AllocReadLEi @ 341 NONAME ABSENT
	_ZNK13CCmPluginBase11CreateCopyLEv @ 342 NONAME ABSENT
	_ZNK13CCmPluginBase11DestinationEv @ 343 NONAME ABSENT
	_ZNK13CCmPluginBase16GetIntAttributeLEm @ 344 NONAME ABSENT
	_ZNK13CCmPluginBase17GetBoolAttributeLEm @ 345 NONAME ABSENT
	_ZNK13CCmPluginBase17ParentDestinationEv @ 346 NONAME ABSENT
	_ZNK13CCmPluginBase19GetStringAttributeLEm @ 347 NONAME ABSENT
	_ZNK13CCmPluginBase20GetString8AttributeLEm @ 348 NONAME ABSENT
	_ZNK13CCmPluginBase5CmMgrEv @ 349 NONAME ABSENT
	_ZNK13CCmPluginBase6PluginEv @ 350 NONAME ABSENT
	_ZNK13CCmPluginBase7SessionEv @ 351 NONAME ABSENT
	_ZTI13CCmPluginBase @ 352 NONAME ABSENT ; #<TI>#
	_ZTV13CCmPluginBase @ 353 NONAME ABSENT ; #<VT>#
	_ZN19RCmConnectionMethodC1Ev @ 354 NONAME
	_ZN19RCmConnectionMethodC2Ev @ 355 NONAME
	_ZN19RCmConnectionMethodaSERKS_ @ 356 NONAME
	_ZN22RCmConnectionMethodExtC1Ev @ 357 NONAME
	_ZN22RCmConnectionMethodExtC2Ev @ 358 NONAME
	_ZN22RCmConnectionMethodExtaSERKS_ @ 359 NONAME
	_ZNK19RCmConnectionMethodeqERS_ @ 360 NONAME
	_ZNK19RCmConnectionMethodneERS_ @ 361 NONAME
	_ZNK22RCmConnectionMethodExteqERS_ @ 362 NONAME
	_ZNK22RCmConnectionMethodExtneERS_ @ 363 NONAME
	_ZN19RCmConnectionMethodD1Ev @ 364 NONAME
	_ZN19RCmConnectionMethodD2Ev @ 365 NONAME
	_ZN22RCmConnectionMethodExtD1Ev @ 366 NONAME
	_ZN22RCmConnectionMethodExtD2Ev @ 367 NONAME
	_ZN21CCmConnSettingsUiImpl25SetDestinationArrayToUseLE6RArrayImE @ 368 NONAME ABSENT
	_ZN21CCmConnSettingsUiImpl26ClearDestinationArrayToUseEv @ 369 NONAME ABSENT
	_ZN13CCmPluginBase17GetAdditionalUidsER6RArrayImE @ 370 NONAME ABSENT
	_ZN14CCmManagerImpl13WrapCmManagerER13RCmManagerExt @ 371 NONAME ABSENT
	_ZN16CCmPluginBaseEng17GetAdditionalUidsER6RArrayImE @ 372 NONAME ABSENT
	_ZN14CCmManagerImpl17CreateFlatCMListLEmR13RPointerArrayI13CCmPluginBaseE @ 373 NONAME ABSENT
	_ZN14CCmManagerImpl18FilterOutVirtualsLER13RPointerArrayI13CCmPluginBaseE @ 374 NONAME ABSENT
	_ZN14CCmManagerImpl30CombineArraysForPriorityOrderLER13RPointerArrayI13CCmPluginBaseES3_ @ 375 NONAME ABSENT
	_ZN14CCmManagerImpl18CreateFlatCMListLCEmR13RPointerArrayI13CCmPluginBaseE @ 376 NONAME ABSENT
	_ZN19RCmConnectionMethodC1ERKS_ @ 377 NONAME
	_ZN19RCmConnectionMethodC2ERKS_ @ 378 NONAME
	_ZN22RCmConnectionMethodExtC1ERKS_ @ 379 NONAME
	_ZN22RCmConnectionMethodExtC2ERKS_ @ 380 NONAME
	_ZN13CCmPluginBase13IsLinkedToIapEm @ 381 NONAME ABSENT
	_ZN13CCmPluginBase14IsLinkedToSnapEm @ 382 NONAME ABSENT
	_ZNK16CCmPluginBaseEng17ParentDestinationEv @ 383 NONAME ABSENT
	_ZN13RCmManagerExt20CreateTablesAndOpenLEv @ 384 NONAME
	_ZN13RCmManagerExt18CreateDestinationLERK7TDesC16m @ 385 NONAME
	_ZN13RCmManagerExt23CreateConnectionMethodLEmm @ 386 NONAME
	_ZN16CCmPluginBaseEng15SetPreDefinedIdEm @ 387 NONAME ABSENT
	_ZN17RCmDestinationExt23CreateConnectionMethodLEmm @ 388 NONAME
	_ZN23CmPluginBaseSettingsDlg20HandleResourceChangeEi @ 389 NONAME ABSENT
	_ZN23CmPluginBaseSettingsDlg7ExecuteEv @ 390 NONAME ABSENT
	_ZThn180_N23CmPluginBaseSettingsDlg7ExecuteEv @ 391 NONAME ABSENT ; #<thunk>#
	_ZN23CmPluginBaseSettingsDlg16HandleLeaveErrorEi @ 392 NONAME ABSENT
	_ZThn180_N23CmPluginBaseSettingsDlg16HandleLeaveErrorEi @ 393 NONAME ABSENT ; #<thunk>#
	_ZN10RCmManager13WriteDefConnLERK15TCmDefConnValue @ 394 NONAME
	_ZN10RCmManager18CreateDestinationLERK7TDesC16 @ 395 NONAME
	_ZN10RCmManager18CreateDestinationLERK7TDesC16m @ 396 NONAME
	_ZN10RCmManager20CreateTablesAndOpenLEv @ 397 NONAME
	_ZN10RCmManager20RemoveAllReferencesLER19RCmConnectionMethod @ 398 NONAME
	_ZN10RCmManager21CopyConnectionMethodLER14RCmDestinationR19RCmConnectionMethod @ 399 NONAME
	_ZN10RCmManager21MoveConnectionMethodLER14RCmDestinationS1_R19RCmConnectionMethod @ 400 NONAME
	_ZN10RCmManager23CreateConnectionMethodLEm @ 401 NONAME
	_ZN10RCmManager23CreateConnectionMethodLEmm @ 402 NONAME
	_ZN10RCmManager23RemoveConnectionMethodLER14RCmDestinationR19RCmConnectionMethod @ 403 NONAME
	_ZN10RCmManager26UpdateBearerPriorityArrayLERK6RArrayI15TBearerPriorityE @ 404 NONAME
	_ZN14RCmDestination10SetHiddenLEi @ 405 NONAME
	_ZN14RCmDestination12SetMetadataLEN9CMManager18TSnapMetadataFieldEm @ 406 NONAME
	_ZN14RCmDestination14SetProtectionLEN9CMManager16TProtectionLevelE @ 407 NONAME
	_ZN14RCmDestination15ModifyPriorityLER19RCmConnectionMethodj @ 408 NONAME
	_ZN14RCmDestination20AddConnectionMethodLE19RCmConnectionMethod @ 409 NONAME
	_ZN14RCmDestination23AddEmbeddedDestinationLERKS_ @ 410 NONAME
	_ZN14RCmDestination23CreateConnectionMethodLEm @ 411 NONAME
	_ZN14RCmDestination23CreateConnectionMethodLEmm @ 412 NONAME
	_ZN14RCmDestination23DeleteConnectionMethodLER19RCmConnectionMethod @ 413 NONAME
	_ZN14RCmDestination23RemoveConnectionMethodLE19RCmConnectionMethod @ 414 NONAME
	_ZN14RCmDestination7UpdateLEv @ 415 NONAME
	_ZN14RCmDestination8DeleteLDEv @ 416 NONAME
	_ZN14RCmDestination8SetIconLEm @ 417 NONAME ABSENT
	_ZN14RCmDestination8SetNameLERK7TDesC16 @ 418 NONAME
	_ZN19RCmConnectionMethod11CreateCopyLEv @ 419 NONAME
	_ZN19RCmConnectionMethod16SetIntAttributeLEmm @ 420 NONAME
	_ZN19RCmConnectionMethod17SetBoolAttributeLEmi @ 421 NONAME
	_ZN19RCmConnectionMethod19SetStringAttributeLEmRK7TDesC16 @ 422 NONAME
	_ZN19RCmConnectionMethod20SetString8AttributeLEmRK6TDesC8 @ 423 NONAME
	_ZN19RCmConnectionMethod7DeleteLEv @ 424 NONAME
	_ZN19RCmConnectionMethod7UpdateLEv @ 425 NONAME
	_ZNK10RCmManager17SupportedBearersLER6RArrayImE @ 426 NONAME
	_ZNK10RCmManager18UncategorizedIconLEv @ 427 NONAME ABSENT
	_ZN10RCmManager20ReadGenConnSettingsLER18TCmGenConnSettings @ 428 NONAME
	_ZN10RCmManager21WriteGenConnSettingsLERK18TCmGenConnSettings @ 429 NONAME
	_ZN14CCmManagerImpl16IapStillExistedLERK16CCmPluginBaseEng @ 430 NONAME ABSENT
	_ZN14CCmManagerImpl16WatcherRegisterLEP18MCmCommsDatWatcher @ 431 NONAME ABSENT
	_ZN14CCmManagerImpl17IsIapStillInDestLEP18CCmDestinationImplRK16CCmPluginBaseEng @ 432 NONAME ABSENT
	_ZN14CCmManagerImpl17WatcherUnRegisterEv @ 433 NONAME ABSENT
	_ZN14CCmManagerImpl18RemoveDestFromPoolEP18CCmDestinationImpl @ 434 NONAME ABSENT
	_ZN14CCmManagerImpl24DestinationStillExistedLEP18CCmDestinationImpl @ 435 NONAME ABSENT
	_ZN23CmPluginBaseSettingsDlg14OfferKeyEventLERK9TKeyEvent10TEventCode @ 436 NONAME ABSENT
	_ZN14RCmDestination8SetIconLERK7TDesC16 @ 437 NONAME
	_ZN19RCmConnectionMethod8SetIconLERK7TDesC16 @ 438 NONAME
	_ZNK10RCmManager21GetUncategorizedIconLEv @ 439 NONAME
	_ZNK14RCmDestination8GetIconLEv @ 440 NONAME
	_ZNK19RCmConnectionMethod8GetIconLEv @ 441 NONAME
	_ZN14RCmDestination8RefreshLEv @ 442 NONAME
	_ZN19RCmConnectionMethod8RefreshLEv @ 443 NONAME

