EXPORTS
	??0CUPnPAbstractBrowsingSessionObserver@@QAE@XZ @ 1 NONAME ; CUPnPAbstractBrowsingSessionObserver::CUPnPAbstractBrowsingSessionObserver(void)
	??0CUPnPAbstractRenderingSessionObserver@@QAE@XZ @ 2 NONAME ; CUPnPAbstractRenderingSessionObserver::CUPnPAbstractRenderingSessionObserver(void)
	??1CUPnPAbstractBrowsingSessionObserver@@UAE@XZ @ 3 NONAME ; CUPnPAbstractBrowsingSessionObserver::~CUPnPAbstractBrowsingSessionObserver(void)
	??1CUPnPAbstractRenderingSessionObserver@@UAE@XZ @ 4 NONAME ; CUPnPAbstractRenderingSessionObserver::~CUPnPAbstractRenderingSessionObserver(void)
	?BelongsToClass@UPnPItemUtility@@SAHABVCUpnpObject@@ABVTDesC8@@@Z @ 5 NONAME ; int UPnPItemUtility::BelongsToClass(class CUpnpObject const &, class TDesC8 const &)
	?DisableSessionObserver@CUPnPAbstractBrowsingSessionObserver@@QAEXXZ @ 6 NONAME ; void CUPnPAbstractBrowsingSessionObserver::DisableSessionObserver(void)
	?DisableSessionObserver@CUPnPAbstractRenderingSessionObserver@@QAEXXZ @ 7 NONAME ; void CUPnPAbstractRenderingSessionObserver::DisableSessionObserver(void)
	?EnableSessionObserver@CUPnPAbstractBrowsingSessionObserver@@QAEXXZ @ 8 NONAME ; void CUPnPAbstractBrowsingSessionObserver::EnableSessionObserver(void)
	?EnableSessionObserver@CUPnPAbstractRenderingSessionObserver@@QAEXXZ @ 9 NONAME ; void CUPnPAbstractRenderingSessionObserver::EnableSessionObserver(void)
	?FindAttributeByName@UPnPItemUtility@@SAPBVCUpnpAttribute@@ABVCUpnpElement@@ABVTDesC8@@@Z @ 10 NONAME ; class CUpnpAttribute const * UPnPItemUtility::FindAttributeByName(class CUpnpElement const &, class TDesC8 const &)
	?FindAttributeByNameL@UPnPItemUtility@@SAABVCUpnpAttribute@@ABVCUpnpElement@@ABVTDesC8@@@Z @ 11 NONAME ; class CUpnpAttribute const & UPnPItemUtility::FindAttributeByNameL(class CUpnpElement const &, class TDesC8 const &)
	?FindElementByName@UPnPItemUtility@@SAPBVCUpnpElement@@ABVCUpnpObject@@ABVTDesC8@@@Z @ 12 NONAME ; class CUpnpElement const * UPnPItemUtility::FindElementByName(class CUpnpObject const &, class TDesC8 const &)
	?FindElementByNameL@UPnPItemUtility@@SAABVCUpnpElement@@ABVCUpnpObject@@ABVTDesC8@@@Z @ 13 NONAME ; class CUpnpElement const & UPnPItemUtility::FindElementByNameL(class CUpnpObject const &, class TDesC8 const &)
	?FitsInMemory@UPnPFileUtility@@SAHABVCUpnpElement@@@Z @ 14 NONAME ; int UPnPFileUtility::FitsInMemory(class CUpnpElement const &)
	?GetResElements@UPnPItemUtility@@SAXABVCUpnpObject@@AAV?$RPointerArray@VCUpnpElement@@@@@Z @ 15 NONAME ; void UPnPItemUtility::GetResElements(class CUpnpObject const &, class RPointerArray<class CUpnpElement> &)
	?GetSupportedProfilesL@UPnPDlnaUtility@@SAAAVCDesC8Array@@W4TDlnaMode@1@@Z @ 16 NONAME ; class CDesC8Array & UPnPDlnaUtility::GetSupportedProfilesL(enum UPnPDlnaUtility::TDlnaMode)
	?IsFileProtectedL@UPnPFileUtility@@SAHABVTDesC16@@@Z @ 17 NONAME ; int UPnPFileUtility::IsFileProtectedL(class TDesC16 const &)
	?IsSessionObserverEnabled@CUPnPAbstractBrowsingSessionObserver@@QAEHXZ @ 18 NONAME ; int CUPnPAbstractBrowsingSessionObserver::IsSessionObserverEnabled(void)
	?IsSessionObserverEnabled@CUPnPAbstractRenderingSessionObserver@@QAEHXZ @ 19 NONAME ; int CUPnPAbstractRenderingSessionObserver::IsSessionObserverEnabled(void)
	?IsSupportedDlnaProfile@UPnPDlnaUtility@@SAHABVTDesC8@@@Z @ 20 NONAME ; int UPnPDlnaUtility::IsSupportedDlnaProfile(class TDesC8 const &)
	?IsSupportedMimeType@UPnPDlnaUtility@@SAHABVTDesC8@@@Z @ 21 NONAME ; int UPnPDlnaUtility::IsSupportedMimeType(class TDesC8 const &)
	?NewDownloadItemResolverL@UPnPItemResolverFactory@@SAPAVMUPnPItemResolver@@ABVTDesC8@@AAVMUPnPAVController@@AAVMUPnPAVBrowsingSession@@AAVMUPnPResourceSelector@@0H@Z @ 22 NONAME ; class MUPnPItemResolver * UPnPItemResolverFactory::NewDownloadItemResolverL(class TDesC8 const &, class MUPnPAVController &, class MUPnPAVBrowsingSession &, class MUPnPResourceSelector &, class TDesC8 const &, int)
	?NewLocalItemResolverL@UPnPItemResolverFactory@@SAPAVMUPnPItemResolver@@ABVTDesC16@@AAVMUPnPAVController@@AAVMUPnPResourceSelector@@H@Z @ 23 NONAME ; class MUPnPItemResolver * UPnPItemResolverFactory::NewLocalItemResolverL(class TDesC16 const &, class MUPnPAVController &, class MUPnPResourceSelector &, int)
	?NewRemoteItemResolverL@UPnPItemResolverFactory@@SAPAVMUPnPItemResolver@@ABVTDesC8@@AAVMUPnPAVBrowsingSession@@AAVMUPnPResourceSelector@@0H@Z @ 24 NONAME ; class MUPnPItemResolver * UPnPItemResolverFactory::NewRemoteItemResolverL(class TDesC8 const &, class MUPnPAVBrowsingSession &, class MUPnPResourceSelector &, class TDesC8 const &, int)
	?ResourceFromItemL@UPnPItemUtility@@SAABVCUpnpElement@@ABVCUpnpItem@@@Z @ 25 NONAME ; class CUpnpElement const & UPnPItemUtility::ResourceFromItemL(class CUpnpItem const &)
	?SelectResourceL@TUPnPSelectDefaultResource@@UAEABVCUpnpElement@@ABVCUpnpItem@@@Z @ 26 NONAME ; class CUpnpElement const & TUPnPSelectDefaultResource::SelectResourceL(class CUpnpItem const &)
	?SelectResourceL@TUPnPSelectFirstResource@@UAEABVCUpnpElement@@ABVCUpnpItem@@@Z @ 27 NONAME ; class CUpnpElement const & TUPnPSelectFirstResource::SelectResourceL(class CUpnpItem const &)
	?SetSession@CUPnPAbstractBrowsingSessionObserver@@QAEXAAVMUPnPAVBrowsingSession@@@Z @ 28 NONAME ; void CUPnPAbstractBrowsingSessionObserver::SetSession(class MUPnPAVBrowsingSession &)
	?SetSession@CUPnPAbstractRenderingSessionObserver@@QAEXAAVMUPnPAVRenderingSession@@@Z @ 29 NONAME ; void CUPnPAbstractRenderingSessionObserver::SetSession(class MUPnPAVRenderingSession &)
	?UPnPDateAsTTime@UPnPItemUtility@@SAHABVTDesC8@@AAVTTime@@@Z @ 30 NONAME ; int UPnPItemUtility::UPnPDateAsTTime(class TDesC8 const &, class TTime &)
	?UPnPDurationAsMilliseconds@UPnPItemUtility@@SAHABVTDesC8@@AAH@Z @ 31 NONAME ; int UPnPItemUtility::UPnPDurationAsMilliseconds(class TDesC8 const &, int &)
	?DeleteTempDownloadFilesL@CUPnPDownloadItemResolver@@SAXXZ @ 32 NONAME ; void CUPnPDownloadItemResolver::DeleteTempDownloadFilesL(void)
	?CreateTmpFileNameL@UPnPInternalFileUtility@@SAPAVHBufC16@@ABVCUpnpItem@@@Z @ 33 NONAME ; class HBufC16 * UPnPInternalFileUtility::CreateTmpFileNameL(class CUpnpItem const &)
	?GetSelectedDownloadLocationL@UPnPInternalFileUtility@@SAPAVHBufC16@@XZ @ 34 NONAME ; class HBufC16 * UPnPInternalFileUtility::GetSelectedDownloadLocationL(void)

