EXPORTS
	?IncrementShrinkTimeL@CCmDmMain@@QAEHHH@Z @ 1 NONAME ; int CCmDmMain::IncrementShrinkTimeL(int, int)
	?QueryFillFileListL@CCmDmMain@@QAEHAAV?$RPointerArray@VCCmBaseListItem@@@@ABVTDesC8@@I@Z @ 2 NONAME ; int CCmDmMain::QueryFillFileListL(class RPointerArray<class CCmBaseListItem> &, class TDesC8 const &, unsigned int)
	?UpdateFillTransferStatus@CCmDmMain@@QAEXIPAVCCmFillListItem@@@Z @ 3 NONAME ; void CCmDmMain::UpdateFillTransferStatus(unsigned int, class CCmFillListItem *)
	?GetFillFileCount@CCmDmMain@@QAEHABVTDesC8@@IAAH@Z @ 4 NONAME ; int CCmDmMain::GetFillFileCount(class TDesC8 const &, unsigned int, int &)
	?NewLC@CCmDmMain@@SAPAV1@XZ @ 5 NONAME ; class CCmDmMain * CCmDmMain::NewLC(void)
	?SetMediaServersL@CCmDmMain@@QAEHAAV?$RPointerArray@VCCmMediaServerFull@@@@@Z @ 6 NONAME ; int CCmDmMain::SetMediaServersL(class RPointerArray<class CCmMediaServerFull> &)
	?UpdateTransferInfo@CCmDmMain@@QAEHW4TCmService@@HH@Z @ 7 NONAME ; int CCmDmMain::UpdateTransferInfo(enum TCmService, int, int)
	?QueryMediaServerL@CCmDmMain@@QAEHPAVCCmMediaServerFull@@@Z @ 8 NONAME ; int CCmDmMain::QueryMediaServerL(class CCmMediaServerFull *)
	?UpdateFillListDriveStatusesL@CCmDmMain@@QAEXPAVCCmDriveInfo@@0H@Z @ 9 NONAME ; void CCmDmMain::UpdateFillListDriveStatusesL(class CCmDriveInfo *, class CCmDriveInfo *, int)
	?SetDrivesL@CCmDmMain@@QAEXAAV?$RPointerArray@VCCmDriveInfo@@@@@Z @ 10 NONAME ; void CCmDmMain::SetDrivesL(class RPointerArray<class CCmDriveInfo> &)
	?UpdateDownloadHistory@CCmDmMain@@QAEHIAA_J0@Z @ 11 NONAME ; int CCmDmMain::UpdateDownloadHistory(unsigned int, long long &, long long &)
	?QueryFillRuleL@CCmDmMain@@QAEHPAVCCmFillRule@@@Z @ 12 NONAME ; int CCmDmMain::QueryFillRuleL(class CCmFillRule *)
	??1CCmDmMain@@UAE@XZ @ 13 NONAME ; CCmDmMain::~CCmDmMain(void)
	?SetFillListRealCountAndSizeL@CCmDmMain@@QAEX_J00@Z @ 14 NONAME ; void CCmDmMain::SetFillListRealCountAndSizeL(long long, long long, long long)
	?AddMediaServerL@CCmDmMain@@QAEHPAVCCmMediaServerFull@@@Z @ 15 NONAME ; int CCmDmMain::AddMediaServerL(class CCmMediaServerFull *)
	?KBytesToBeFilled@CCmDmMain@@QAE_JEI@Z @ 16 NONAME ; long long CCmDmMain::KBytesToBeFilled(unsigned char, unsigned int)
	?UpdateFillRuleSelected@CCmDmMain@@QAEHABVTDesC8@@H@Z @ 17 NONAME ; int CCmDmMain::UpdateFillRuleSelected(class TDesC8 const &, int)
	?SetProgressInfo@CCmDmMain@@QAEHHH@Z @ 18 NONAME ; int CCmDmMain::SetProgressInfo(int, int)
	?BytesFilled@CCmDmMain@@QAE_JI@Z @ 19 NONAME ; long long CCmDmMain::BytesFilled(unsigned int)
	?FillFileCount@CCmDmMain@@QAEHI@Z @ 20 NONAME ; int CCmDmMain::FillFileCount(unsigned int)
	?QuerySelectedFillRuleNamesL@CCmDmMain@@QAEXAAV?$RPointerArray@VHBufC8@@@@H@Z @ 21 NONAME ; void CCmDmMain::QuerySelectedFillRuleNamesL(class RPointerArray<class HBufC8> &, int)
	?QueryHashValuesL@CCmDmMain@@QAEHHAAV?$RPointerArray@VCCmSearchResponseHash@@@@@Z @ 22 NONAME ; int CCmDmMain::QueryHashValuesL(int, class RPointerArray<class CCmSearchResponseHash> &)
	?NewL@CCmDmMain@@SAPAV1@XZ @ 23 NONAME ; class CCmDmMain * CCmDmMain::NewL(void)
	?AddStoredL@CCmDmMain@@QAEHABVTDesC16@@ABVTDesC8@@VTTime@@@Z @ 24 NONAME ; int CCmDmMain::AddStoredL(class TDesC16 const &, class TDesC8 const &, class TTime)
	?DeleteAllStoreRules@CCmDmMain@@QAEHXZ @ 25 NONAME ; int CCmDmMain::DeleteAllStoreRules(void)
	?DeleteStoreFiles@CCmDmMain@@QAEHXZ @ 26 NONAME ; int CCmDmMain::DeleteStoreFiles(void)
	?GetSyncTime@CCmDmMain@@QAEHAAVTTime@@@Z @ 27 NONAME ; int CCmDmMain::GetSyncTime(class TTime &)
	?QueryAllStoreFilesL@CCmDmMain@@QAEHAAV?$RPointerArray@VCCmStoreListItem@@@@@Z @ 28 NONAME ; int CCmDmMain::QueryAllStoreFilesL(class RPointerArray<class CCmStoreListItem> &)
	?QueryStoreRuleL@CCmDmMain@@QAEHPAVCCmStoreRule@@@Z @ 29 NONAME ; int CCmDmMain::QueryStoreRuleL(class CCmStoreRule *)
	?DeleteFillFiles@CCmDmMain@@QAEHXZ @ 30 NONAME ; int CCmDmMain::DeleteFillFiles(void)
	?QueryMediaServerId@CCmDmMain@@QAE_JABVTDesC8@@@Z @ 31 NONAME ; long long CCmDmMain::QueryMediaServerId(class TDesC8 const &)
	?GetStoreFileCountNoDuplicatesL@CCmDmMain@@QAEXAAHI@Z @ 32 NONAME ; void CCmDmMain::GetStoreFileCountNoDuplicatesL(int &, unsigned int)
	?QuerySelectedStoreRuleNamesL@CCmDmMain@@QAEXAAV?$RPointerArray@VHBufC8@@@@H@Z @ 33 NONAME ; void CCmDmMain::QuerySelectedStoreRuleNamesL(class RPointerArray<class HBufC8> &, int)
	?AddHashValue@CCmDmMain@@QAEH_JPAVCCmSearchResponseHash@@@Z @ 34 NONAME ; int CCmDmMain::AddHashValue(long long, class CCmSearchResponseHash *)
	?QueryStoredRowL@CCmDmMain@@QAEXAAV?$RPointerArray@VHBufC16@@@@ABVTDesC8@@H@Z @ 35 NONAME ; void CCmDmMain::QueryStoredRowL(class RPointerArray<class HBufC16> &, class TDesC8 const &, int)
	?PrepareQueryCmdL@CCmDmMain@@QAEXW4TCMQueryCmdType@@@Z @ 36 NONAME ; void CCmDmMain::PrepareQueryCmdL(enum TCMQueryCmdType)
	?DeleteItemsByFillListId@CCmDmMain@@QAEHH@Z @ 37 NONAME ; int CCmDmMain::DeleteItemsByFillListId(int)
	?QueryStoreRuleNamesL@CCmDmMain@@QAEXAAV?$RPointerArray@VHBufC8@@@@@Z @ 38 NONAME ; void CCmDmMain::QueryStoreRuleNamesL(class RPointerArray<class HBufC8> &)
	?UpdateFillListItemPriority@CCmDmMain@@QAEHPAVCCmFillRuleContainer@@@Z @ 39 NONAME ; int CCmDmMain::UpdateFillListItemPriority(class CCmFillRuleContainer *)
	?GetLowPriorityFilledFilesL@CCmDmMain@@QAEHHAAV?$RPointerArray@VCCmFillListItem@@@@@Z @ 40 NONAME ; int CCmDmMain::GetLowPriorityFilledFilesL(int, class RPointerArray<class CCmFillListItem> &)
	?DeleteAllFillRules@CCmDmMain@@QAEHXZ @ 41 NONAME ; int CCmDmMain::DeleteAllFillRules(void)
	?NewLC@CCmDmSqlDbMaintenance@@SAPAV1@XZ @ 42 NONAME ; class CCmDmSqlDbMaintenance * CCmDmSqlDbMaintenance::NewLC(void)
	?UpdateFillRuleGroupInfo@CCmDmMain@@QAEHXZ @ 43 NONAME ; int CCmDmMain::UpdateFillRuleGroupInfo(void)
	?QueryDeletedItemsListsL@CCmDmMain@@QAEXAAV?$RPointerArray@VCCmBaseListItem@@@@I@Z @ 44 NONAME ; void CCmDmMain::QueryDeletedItemsListsL(class RPointerArray<class CCmBaseListItem> &, unsigned int)
	?ListSize@CCmDmMain@@QAE_JW4TCmRuleType@@ABVTDesC8@@I@Z @ 45 NONAME ; long long CCmDmMain::ListSize(enum TCmRuleType, class TDesC8 const &, unsigned int)
	?GetTransferInfo@CCmDmMain@@QAEHW4TCmService@@AAH1@Z @ 46 NONAME ; int CCmDmMain::GetTransferInfo(enum TCmService, int &, int &)
	?QueryDrivesL@CCmDmMain@@QAEXAAV?$RPointerArray@VCCmDriveInfo@@@@@Z @ 47 NONAME ; void CCmDmMain::QueryDrivesL(class RPointerArray<class CCmDriveInfo> &)
	?SetStoreFilesL@CCmDmMain@@QAEHAAV?$RPointerArray@VCCmStoreListItem@@@@@Z @ 48 NONAME ; int CCmDmMain::SetStoreFilesL(class RPointerArray<class CCmStoreListItem> &)
	?GetMediaServersL@CCmDmMain@@QAEXAAV?$RPointerArray@VCCmMediaServerFull@@@@@Z @ 49 NONAME ; void CCmDmMain::GetMediaServersL(class RPointerArray<class CCmMediaServerFull> &)
	?QueryAllFillFilesL@CCmDmMain@@QAEHAAV?$RPointerArray@VCCmFillListItem@@@@@Z @ 50 NONAME ; int CCmDmMain::QueryAllFillFilesL(class RPointerArray<class CCmFillListItem> &)
	?QueryStoreFileListL@CCmDmMain@@QAEHAAV?$RPointerArray@VCCmBaseListItem@@@@ABVTDesC8@@I@Z @ 51 NONAME ; int CCmDmMain::QueryStoreFileListL(class RPointerArray<class CCmBaseListItem> &, class TDesC8 const &, unsigned int)
	?UpdateMediaServerInfo@CCmDmMain@@QAEHPAVCCmMediaServerFull@@@Z @ 52 NONAME ; int CCmDmMain::UpdateMediaServerInfo(class CCmMediaServerFull *)
	?DeleteMediaServer@CCmDmMain@@QAEHABVTDesC8@@@Z @ 53 NONAME ; int CCmDmMain::DeleteMediaServer(class TDesC8 const &)
	?UpdateUploadHistory@CCmDmMain@@QAEHIAA_J0@Z @ 54 NONAME ; int CCmDmMain::UpdateUploadHistory(unsigned int, long long &, long long &)
	?AddStoreFile@CCmDmMain@@QAEHAAVCCmStoreListItem@@@Z @ 55 NONAME ; int CCmDmMain::AddStoreFile(class CCmStoreListItem &)
	?GetAllStoreFilesL@CCmDmMain@@QAEHAAV?$RPointerArray@VCCmStoreListItem@@@@I@Z @ 56 NONAME ; int CCmDmMain::GetAllStoreFilesL(class RPointerArray<class CCmStoreListItem> &, unsigned int)
	?SetFillListStateL@CCmDmMain@@QAEXIW4TCmFillRuleStatus@@@Z @ 57 NONAME ; void CCmDmMain::SetFillListStateL(unsigned int, enum TCmFillRuleStatus)
	?DeleteHashValuesL@CCmDmMain@@QAEXHH@Z @ 58 NONAME ; void CCmDmMain::DeleteHashValuesL(int, int)
	?DeleteDeletedMediaServersL@CCmDmMain@@QAEXXZ @ 59 NONAME ; void CCmDmMain::DeleteDeletedMediaServersL(void)
	?GetProgressInfo@CCmDmMain@@QAEHAAH0@Z @ 60 NONAME ; int CCmDmMain::GetProgressInfo(int &, int &)
	?StoreFileCount@CCmDmMain@@QAEHI@Z @ 61 NONAME ; int CCmDmMain::StoreFileCount(unsigned int)
	?GetFillListNameL@CCmDmMain@@QAEXAAPAVHBufC8@@_J@Z @ 62 NONAME ; void CCmDmMain::GetFillListNameL(class HBufC8 * &, long long)
	?QueryAllMediaServersL@CCmDmMain@@QAEHPAVCCmMediaServerFull@@@Z @ 63 NONAME ; int CCmDmMain::QueryAllMediaServersL(class CCmMediaServerFull *)
	?DeleteDeletedItemsL@CCmDmMain@@QAEXXZ @ 64 NONAME ; void CCmDmMain::DeleteDeletedItemsL(void)
	?QueryFillRuleNamesL@CCmDmMain@@QAEXAAV?$RPointerArray@VHBufC8@@@@@Z @ 65 NONAME ; void CCmDmMain::QueryFillRuleNamesL(class RPointerArray<class HBufC8> &)
	?UpdateStoreTransferStatus@CCmDmMain@@QAEXI_J0@Z @ 66 NONAME ; void CCmDmMain::UpdateStoreTransferStatus(unsigned int, long long, long long)
	?GetStoreFileCount@CCmDmMain@@QAEHABVTDesC8@@IAAH@Z @ 67 NONAME ; int CCmDmMain::GetStoreFileCount(class TDesC8 const &, unsigned int, int &)
	?DeleteFillRuleByName@CCmDmMain@@QAEHABVTDesC8@@@Z @ 68 NONAME ; int CCmDmMain::DeleteFillRuleByName(class TDesC8 const &)
	?SetSyncTime@CCmDmMain@@QAEHXZ @ 69 NONAME ; int CCmDmMain::SetSyncTime(void)
	?AddStoreRuleL@CCmDmMain@@QAEHPAVCCmStoreRule@@@Z @ 70 NONAME ; int CCmDmMain::AddStoreRuleL(class CCmStoreRule *)
	?GetAvgImageShrinkTime@CCmDmMain@@QAEHXZ @ 71 NONAME ; int CCmDmMain::GetAvgImageShrinkTime(void)
	?KBytesToBeStored@CCmDmMain@@QAE_JEI@Z @ 72 NONAME ; long long CCmDmMain::KBytesToBeStored(unsigned char, unsigned int)
	?NewL@CCmDmSqlDbMaintenance@@SAPAV1@XZ @ 73 NONAME ; class CCmDmSqlDbMaintenance * CCmDmSqlDbMaintenance::NewL(void)
	?QueryMediaServerUdn@CCmDmMain@@QAEHAAPAVHBufC8@@J@Z @ 74 NONAME ; int CCmDmMain::QueryMediaServerUdn(class HBufC8 * &, long)
	?RestoreFileStatusesL@CCmDmMain@@QAEXABV?$RPointerArray@VCCmFillListItem@@@@ABVTDesC8@@@Z @ 75 NONAME ; void CCmDmMain::RestoreFileStatusesL(class RPointerArray<class CCmFillListItem> const &, class TDesC8 const &)
	?SetFillFiles@CCmDmMain@@QAEHAAV?$RPointerArray@VCCmFillListItem@@@@@Z @ 76 NONAME ; int CCmDmMain::SetFillFiles(class RPointerArray<class CCmFillListItem> &)
	?UpdateStatusValues@CCmDmMain@@QAEHAAV?$RPointerArray@VCCmBaseListItem@@@@@Z @ 77 NONAME ; int CCmDmMain::UpdateStatusValues(class RPointerArray<class CCmBaseListItem> &)
	?GetAllFillFilesL@CCmDmMain@@QAEHAAV?$RPointerArray@VCCmFillListItem@@@@I@Z @ 78 NONAME ; int CCmDmMain::GetAllFillFilesL(class RPointerArray<class CCmFillListItem> &, unsigned int)
	?StoreFileCountNoDuplicates@CCmDmMain@@QAEHXZ @ 79 NONAME ; int CCmDmMain::StoreFileCountNoDuplicates(void)
	?AddFillRuleL@CCmDmMain@@QAEHPAVCCmFillRule@@@Z @ 80 NONAME ; int CCmDmMain::AddFillRuleL(class CCmFillRule *)
	?QueryTransferHistory@CCmDmMain@@QAEXABVTDesC8@@AA_J111@Z @ 81 NONAME ; void CCmDmMain::QueryTransferHistory(class TDesC8 const &, long long &, long long &, long long &, long long &)

