EXPORTS
	?SetCancelObserver@CWmDrmDlaUiNotifier@@QAEXPAVMWmDrmDlaCancelObserver@@@Z @ 1 NONAME ; void CWmDrmDlaUiNotifier::SetCancelObserver(class MWmDrmDlaCancelObserver *)
	?ProcessMeteringCertificate@CWmDrmDlaHandler@@QAEXABVTDesC8@@AAVTRequestStatus@@@Z @ 2 NONAME ; void CWmDrmDlaHandler::ProcessMeteringCertificate(class TDesC8 const &, class TRequestStatus &)
	?NewLC@CWmDrmDlaHandler@@SAPAV1@XZ @ 3 NONAME ; class CWmDrmDlaHandler * CWmDrmDlaHandler::NewLC(void)
	?NewL@CWmDrmDlaHandler@@SAPAV1@XZ @ 4 NONAME ; class CWmDrmDlaHandler * CWmDrmDlaHandler::NewL(void)
	?HandleErrorL@CWmDrmDlaUiNotifier@@QAEXH@Z @ 5 NONAME ; void CWmDrmDlaUiNotifier::HandleErrorL(int)
	?CancelLicenseAcquisition@CWmDrmDlaHandler@@QAEXXZ @ 6 NONAME ; void CWmDrmDlaHandler::CancelLicenseAcquisition(void)
	?AcquireLicense@CWmDrmDlaHandler@@QAEXABVRFile@@AAPAVHBufC16@@1AAVTRequestStatus@@@Z @ 7 NONAME ; void CWmDrmDlaHandler::AcquireLicense(class RFile const &, class HBufC16 * &, class HBufC16 * &, class TRequestStatus &)
	?SetSilent@CWmDrmDlaUiNotifier@@QAEXH@Z @ 8 NONAME ; void CWmDrmDlaUiNotifier::SetSilent(int)
	?InitializeL@CWmDrmDlaUiNotifier@@QAEXVTUid@@@Z @ 9 NONAME ; void CWmDrmDlaUiNotifier::InitializeL(class TUid)
	?SilentL@CWmDrmDlaHandler@@QAEHABVRFile@@@Z @ 10 NONAME ; int CWmDrmDlaHandler::SilentL(class RFile const &)
	?CancelMetering@CWmDrmDlaHandler@@QAEXXZ @ 11 NONAME ; void CWmDrmDlaHandler::CancelMetering(void)
	?AcquireLicenseFromDrmHeaderL@CWmDrmDlaHandler@@QAEXABVTDesC8@@PAVHBufC16@@AAPAV3@2@Z @ 12 NONAME ; void CWmDrmDlaHandler::AcquireLicenseFromDrmHeaderL(class TDesC8 const &, class HBufC16 *, class HBufC16 * &, class HBufC16 * &)
	?AcquireLicenseFromDrmHeader@CWmDrmDlaHandler@@QAEXABVTDesC8@@PAVHBufC16@@AAPAV3@2AAVTRequestStatus@@@Z @ 13 NONAME ; void CWmDrmDlaHandler::AcquireLicenseFromDrmHeader(class TDesC8 const &, class HBufC16 *, class HBufC16 * &, class HBufC16 * &, class TRequestStatus &)
	?SetIapId@CWmDrmDlaHandler@@QAEXH@Z @ 14 NONAME ; void CWmDrmDlaHandler::SetIapId(int)
	?AcquireLicenseL@CWmDrmDlaHandler@@QAEXABVRFile@@AAPAVHBufC16@@1@Z @ 15 NONAME ; void CWmDrmDlaHandler::AcquireLicenseL(class RFile const &, class HBufC16 * &, class HBufC16 * &)
	?NewL@CWmDrmDlaUiNotifier@@SAPAV1@XZ @ 16 NONAME ; class CWmDrmDlaUiNotifier * CWmDrmDlaUiNotifier::NewL(void)
	?InitializeL@CWmDrmDlaUiNotifier@@QAEXAAVTDesC8@@@Z @ 17 NONAME ; void CWmDrmDlaUiNotifier::InitializeL(class TDesC8 &)
	?SetProgress@CWmDrmDlaUiNotifier@@QAEXH@Z @ 18 NONAME ; void CWmDrmDlaUiNotifier::SetProgress(int)
	?ProcessMeteringCertificateL@CWmDrmDlaHandler@@QAEXABVTDesC8@@@Z @ 19 NONAME ; void CWmDrmDlaHandler::ProcessMeteringCertificateL(class TDesC8 const &)
	?NewLC@CWmDrmDlaUiNotifier@@SAPAV1@XZ @ 20 NONAME ; class CWmDrmDlaUiNotifier * CWmDrmDlaUiNotifier::NewLC(void)

