EXPORTS
	??0CApAccessPointItem@@IAE@XZ @ 1 NONAME ; CApAccessPointItem::CApAccessPointItem(void)
	??0CApDataHandler@@IAE@XZ @ 2 NONAME ; CApDataHandler::CApDataHandler(void)
	??0CApListItem@@IAE@XZ @ 3 NONAME ; CApListItem::CApListItem(void)
	??0CApListItemList@@QAE@XZ @ 4 NONAME ; CApListItemList::CApListItemList(void)
	??0CApNetworkItem@@AAE@XZ @ 5 NONAME ; CApNetworkItem::CApNetworkItem(void)
	??0CApNetworkItemList@@QAE@XZ @ 6 NONAME ; CApNetworkItemList::CApNetworkItemList(void)
	??0CApNetworks@@AAE@XZ @ 7 NONAME ; CApNetworks::CApNetworks(void)
	??0CApSelect@@IAE@XZ @ 8 NONAME ; CApSelect::CApSelect(void)
	??0CApUtils@@IAE@XZ @ 9 NONAME ; CApUtils::CApUtils(void)
	??0CVpnApEngine@@AAE@XZ @ 10 NONAME ; CVpnApEngine::CVpnApEngine(void)
	??0CVpnApItem@@AAE@XZ @ 11 NONAME ; CVpnApItem::CVpnApItem(void)
	??1CActiveApDb@@UAE@XZ @ 12 NONAME ; CActiveApDb::~CActiveApDb(void)
	??1CApAccessPointItem@@UAE@XZ @ 13 NONAME ; CApAccessPointItem::~CApAccessPointItem(void)
	??1CApDataHandler@@UAE@XZ @ 14 NONAME ; CApDataHandler::~CApDataHandler(void)
	??1CApListItem@@UAE@XZ @ 15 NONAME ; CApListItem::~CApListItem(void)
	??1CApListItemList@@UAE@XZ @ 16 NONAME ; CApListItemList::~CApListItemList(void)
	??1CApNetworkItem@@UAE@XZ @ 17 NONAME ; CApNetworkItem::~CApNetworkItem(void)
	??1CApNetworkItemList@@UAE@XZ @ 18 NONAME ; CApNetworkItemList::~CApNetworkItemList(void)
	??1CApNetworks@@UAE@XZ @ 19 NONAME ; CApNetworks::~CApNetworks(void)
	??1CApSelect@@UAE@XZ @ 20 NONAME ; CApSelect::~CApSelect(void)
	??1CApUtils@@UAE@XZ @ 21 NONAME ; CApUtils::~CApUtils(void)
	??1CVpnApEngine@@UAE@XZ @ 22 NONAME ; CVpnApEngine::~CVpnApEngine(void)
	??1CVpnApItem@@UAE@XZ @ 23 NONAME ; CVpnApItem::~CVpnApItem(void)
	??8CApAccessPointItem@@QBEHABV0@@Z @ 24 NONAME ; int CApAccessPointItem::operator==(class CApAccessPointItem const &) const
	??8CVpnApItem@@QBEHABV0@@Z @ 25 NONAME ; int CVpnApItem::operator==(class CVpnApItem const &) const
	??9CApAccessPointItem@@QBEHABV0@@Z @ 26 NONAME ; int CApAccessPointItem::operator!=(class CApAccessPointItem const &) const
	??9CVpnApItem@@QBEHABV0@@Z @ 27 NONAME ; int CVpnApItem::operator!=(class CVpnApItem const &) const
	?AccessPointDataL@CApDataHandler@@QAEXKAAVCApAccessPointItem@@@Z @ 28 NONAME ; void CApDataHandler::AccessPointDataL(unsigned long, class CApAccessPointItem &)
	?AddObserverL@CActiveApDb@@QAEXPAVMActiveApDbObserver@@@Z @ 29 NONAME ; void CActiveApDb::AddObserverL(class MActiveApDbObserver *)
	?AllListItemDataL@CApNetworks@@QAEHAAVCApNetworkItemList@@@Z @ 30 NONAME ; int CApNetworks::AllListItemDataL(class CApNetworkItemList &)
	?AllListItemDataL@CApSelect@@QAEHAAVCApListItemList@@@Z @ 31 NONAME ; int CApSelect::AllListItemDataL(class CApListItemList &)
	?BearerFilter@CApSelect@@QAEHXZ @ 32 NONAME ; int CApSelect::BearerFilter(void)
	?BearerType@CApListItem@@QAE?AW4TApBearerType@@XZ @ 33 NONAME ; enum TApBearerType CApListItem::BearerType(void)
	?BearerType@CApSelect@@QAE?AW4TApBearerType@@XZ @ 34 NONAME ; enum TApBearerType CApSelect::BearerType(void)
	?BearerTypeL@CApAccessPointItem@@QAE?AW4TApBearerType@@XZ @ 35 NONAME ; enum TApBearerType CApAccessPointItem::BearerTypeL(void)
	?BearerTypeL@CApUtils@@QAE?AW4TApBearerType@@K@Z @ 36 NONAME ; enum TApBearerType CApUtils::BearerTypeL(unsigned long)
	?ConnectionName@CApAccessPointItem@@QBEABVTDesC16@@XZ @ 37 NONAME ; class TDesC16 const & CApAccessPointItem::ConnectionName(void) const
	?ConstructL@CApAccessPointItem@@IAEXXZ @ 38 NONAME ; void CApAccessPointItem::ConstructL(void)
	?ConstructL@CApDataHandler@@IAEXAAVCCommsDatabase@@@Z @ 39 NONAME ; void CApDataHandler::ConstructL(class CCommsDatabase &)
	?ConstructL@CApListItem@@IAEXW4TCommsDbIspType@@KABVTDesC16@@W4TApBearerType@@1@Z @ 40 NONAME ; void CApListItem::ConstructL(enum TCommsDbIspType, unsigned long, class TDesC16 const &, enum TApBearerType, class TDesC16 const &)
	?ConstructL@CApListItem@@IAEXW4TCommsDbIspType@@KABVTDesC16@@W4TApBearerType@@@Z @ 41 NONAME ; void CApListItem::ConstructL(enum TCommsDbIspType, unsigned long, class TDesC16 const &, enum TApBearerType)
	?ConstructL@CApListItem@@IAEXXZ @ 42 NONAME ; void CApListItem::ConstructL(void)
	?ConstructL@CApNetworkItem@@AAEXKABVTDesC16@@@Z @ 43 NONAME ; void CApNetworkItem::ConstructL(unsigned long, class TDesC16 const &)
	?ConstructL@CApNetworkItem@@AAEXXZ @ 44 NONAME ; void CApNetworkItem::ConstructL(void)
	?ConstructL@CApNetworks@@AAEXAAVCCommsDatabase@@@Z @ 45 NONAME ; void CApNetworks::ConstructL(class CCommsDatabase &)
	?ConstructL@CApSelect@@IAEXAAVCCommsDatabase@@HHH@Z @ 46 NONAME ; void CApSelect::ConstructL(class CCommsDatabase &, int, int, int)
	?ConstructL@CApSelect@@IAEXAAVCCommsDatabase@@HHHH@Z @ 47 NONAME ; void CApSelect::ConstructL(class CCommsDatabase &, int, int, int, int)
	?ConstructL@CApSelect@@IAEXAAVCCommsDatabase@@HHHHW4TVpnFilterType@@@Z @ 48 NONAME ; void CApSelect::ConstructL(class CCommsDatabase &, int, int, int, int, enum TVpnFilterType)
	?ConstructL@CApUtils@@IAEXAAVCCommsDatabase@@@Z @ 49 NONAME ; void CApUtils::ConstructL(class CCommsDatabase &)
	?ConstructL@CVpnApEngine@@IAEXPAVCCommsDatabase@@@Z @ 50 NONAME ; void CVpnApEngine::ConstructL(class CCommsDatabase *)
	?ConstructL@CVpnApItem@@IAEXXZ @ 51 NONAME ; void CVpnApItem::ConstructL(void)
	?CopyFromL@CApAccessPointItem@@QAEXABV1@@Z @ 52 NONAME ; void CApAccessPointItem::CopyFromL(class CApAccessPointItem const &)
	?CopyFromL@CApListItem@@QAEXABV1@@Z @ 53 NONAME ; void CApListItem::CopyFromL(class CApListItem const &)
	?CopyFromL@CApNetworkItem@@QAEXABV1@@Z @ 54 NONAME ; void CApNetworkItem::CopyFromL(class CApNetworkItem const &)
	?CopyFromL@CVpnApItem@@QAEXABV1@@Z @ 55 NONAME ; void CVpnApItem::CopyFromL(class CVpnApItem const &)
	?Count@CApNetworks@@QBEKXZ @ 56 NONAME ; unsigned long CApNetworks::Count(void) const
	?Count@CApSelect@@QAEKXZ @ 57 NONAME ; unsigned long CApSelect::Count(void)
	?CreateCopyFromL@CApDataHandler@@QAEKK@Z @ 58 NONAME ; unsigned long CApDataHandler::CreateCopyFromL(unsigned long)
	?CreateFromDataL@CApDataHandler@@QAEKAAVCApAccessPointItem@@@Z @ 59 NONAME ; unsigned long CApDataHandler::CreateFromDataL(class CApAccessPointItem &)
	?CreateNetworkL@CApDataHandler@@QAEXAAVCApNetworkItem@@@Z @ 60 NONAME ; void CApDataHandler::CreateNetworkL(class CApNetworkItem &)
	?CreateVpnApL@CVpnApEngine@@QAEKAAVCVpnApItem@@@Z @ 61 NONAME ; unsigned long CVpnApEngine::CreateVpnApL(class CVpnApItem &)
	?CreateVpnApL@CVpnApEngine@@QAEKAAVTDesC16@@K0PAV2@K@Z @ 62 NONAME ; unsigned long CVpnApEngine::CreateVpnApL(class TDesC16 &, unsigned long, class TDesC16 &, class TDesC16 *, unsigned long)
	?Cvt@CVpnApEngine@@SAHXZ @ 63 NONAME ; int CVpnApEngine::Cvt(void)
	?Database@CActiveApDb@@QAEPAVCCommsDatabase@@XZ @ 64 NONAME ; class CCommsDatabase * CActiveApDb::Database(void)
	?DefaultL@CApDataHandler@@QBEKH@Z @ 65 NONAME ; unsigned long CApDataHandler::DefaultL(int) const
	?DefaultL@CApDataHandler@@QBEKHAAH@Z @ 66 NONAME ; unsigned long CApDataHandler::DefaultL(int, int &) const
	?DeleteVpnL@CVpnApEngine@@QAEXK@Z @ 67 NONAME ; void CVpnApEngine::DeleteVpnL(unsigned long)
	?DoHasMandatoryFieldsFilledL@CApUtils@@QAEHKPAVCCommsDbTableView@@W4TApBearerType@@@Z @ 68 NONAME ; int CApUtils::DoHasMandatoryFieldsFilledL(unsigned long, class CCommsDbTableView *, enum TApBearerType)
	?GetPreferredIfDbIapTypeL@CApDataHandler@@QAEXKW4TCommDbConnectionDirection@@AAK11@Z @ 69 NONAME ; void CApDataHandler::GetPreferredIfDbIapTypeL(unsigned long, enum TCommDbConnectionDirection, unsigned long &, unsigned long &, unsigned long &)
	?GetPreferredIfDbIspTypeL@CApDataHandler@@QAEABVTDesC16@@KW4TCommDbConnectionDirection@@AAK111@Z @ 70 NONAME ; class TDesC16 const & CApDataHandler::GetPreferredIfDbIspTypeL(unsigned long, enum TCommDbConnectionDirection, unsigned long &, unsigned long &, unsigned long &, unsigned long &)
	?HasMandatoryFieldsFilledL@CApUtils@@QAEHK@Z @ 71 NONAME ; int CApUtils::HasMandatoryFieldsFilledL(unsigned long)
	?HasSameIspAndBearerL@CApAccessPointItem@@QAEHAAV1@@Z @ 72 NONAME ; int CApAccessPointItem::HasSameIspAndBearerL(class CApAccessPointItem &)
	?IAPExistsL@CApUtils@@QAEHK@Z @ 73 NONAME ; int CApUtils::IAPExistsL(unsigned long)
	?ISPTypeL@CApUtils@@QAEXKAAW4TCommsDbIspType@@@Z @ 74 NONAME ; void CApUtils::ISPTypeL(unsigned long, enum TCommsDbIspType &)
	?IapIdFromWapIdL@CApUtils@@QAEKK@Z @ 75 NONAME ; unsigned long CApUtils::IapIdFromWapIdL(unsigned long)
	?IsAPInUseL@CApUtils@@QAEHK@Z @ 76 NONAME ; int CApUtils::IsAPInUseL(unsigned long)
	?IsApProtectedL@CApProtHandler@@SAHPAVCCommsDatabase@@K@Z @ 77 NONAME ; int CApProtHandler::IsApProtectedL(class CCommsDatabase *, unsigned long)
	?IsPreferencesProtectedL@CApProtHandler@@SAHPAVCCommsDatabase@@@Z @ 78 NONAME ; int CApProtHandler::IsPreferencesProtectedL(class CCommsDatabase *)
	?IsReadOnly@CApAccessPointItem@@QBEHXZ @ 79 NONAME ; int CApAccessPointItem::IsReadOnly(void) const
	?IsReadOnly@CApListItem@@QBEHXZ @ 80 NONAME ; int CApListItem::IsReadOnly(void) const
	?IsReadOnly@CApSelect@@QBEHXZ @ 81 NONAME ; int CApSelect::IsReadOnly(void) const
	?IsReadOnlyL@CApUtils@@QAEHK@Z @ 82 NONAME ; int CApUtils::IsReadOnlyL(unsigned long)
	?IsTableProtectedL@CApProtHandler@@SAHPAVCCommsDatabase@@@Z @ 83 NONAME ; int CApProtHandler::IsTableProtectedL(class CCommsDatabase *)
	?IsValidNameL@CApUtils@@QAEHABVTDesC16@@@Z @ 84 NONAME ; int CApUtils::IsValidNameL(class TDesC16 const &)
	?IsValidNameL@CApUtils@@QAEHABVTDesC16@@K@Z @ 85 NONAME ; int CApUtils::IsValidNameL(class TDesC16 const &, unsigned long)
	?IsVpnApL@CVpnApEngine@@QAEHK@Z @ 86 NONAME ; int CVpnApEngine::IsVpnApL(unsigned long)
	?IspTypeFilter@CApSelect@@QAEHXZ @ 87 NONAME ; int CApSelect::IspTypeFilter(void)
	?ItemForUid@CApListItemList@@QBEPAVCApListItem@@K@Z @ 88 NONAME ; class CApListItem * CApListItemList::ItemForUid(unsigned long) const
	?ItemForUid@CApNetworkItemList@@QBEPBVCApNetworkItem@@K@Z @ 89 NONAME ; class CApNetworkItem const * CApNetworkItemList::ItemForUid(unsigned long) const
	?MakeValidNameL@CApUtils@@QAEHAAVTDes16@@@Z @ 90 NONAME ; int CApUtils::MakeValidNameL(class TDes16 &)
	?MoveLast@CApSelect@@QAEHXZ @ 91 NONAME ; int CApSelect::MoveLast(void)
	?MoveNext@CApSelect@@QAEHXZ @ 92 NONAME ; int CApSelect::MoveNext(void)
	?MovePrev@CApSelect@@QAEHXZ @ 93 NONAME ; int CApSelect::MovePrev(void)
	?MoveToFirst@CApSelect@@QAEHXZ @ 94 NONAME ; int CApSelect::MoveToFirst(void)
	?Name@CApListItem@@QAEABVTDesC16@@XZ @ 95 NONAME ; class TDesC16 const & CApListItem::Name(void)
	?Name@CApNetworkItem@@QBEABVTDesC16@@XZ @ 96 NONAME ; class TDesC16 const & CApNetworkItem::Name(void) const
	?Name@CApSelect@@QAEABVTDesC16@@XZ @ 97 NONAME ; class TDesC16 const & CApSelect::Name(void)
	?Name@CVpnApItem@@QBEABVTDesC16@@XZ @ 98 NONAME ; class TDesC16 const & CVpnApItem::Name(void) const
	?NameL@CApNetworks@@QBEABVTDesC16@@K@Z @ 99 NONAME ; class TDesC16 const & CApNetworks::NameL(unsigned long) const
	?NameL@CApUtils@@QAEXKAAVTDes16@@@Z @ 100 NONAME ; void CApUtils::NameL(unsigned long, class TDes16 &)
	?NewL@CActiveApDb@@SAPAV1@W4TCommDbDatabaseType@@@Z @ 101 NONAME ; class CActiveApDb * CActiveApDb::NewL(enum TCommDbDatabaseType)
	?NewLC@CApAccessPointItem@@SAPAV1@XZ @ 102 NONAME ; class CApAccessPointItem * CApAccessPointItem::NewLC(void)
	?NewLC@CApDataHandler@@SAPAV1@AAVCCommsDatabase@@@Z @ 103 NONAME ; class CApDataHandler * CApDataHandler::NewLC(class CCommsDatabase &)
	?NewLC@CApListItem@@SAPAV1@PAV1@@Z @ 104 NONAME ; class CApListItem * CApListItem::NewLC(class CApListItem *)
	?NewLC@CApListItem@@SAPAV1@W4TCommsDbIspType@@KABVTDesC16@@W4TApBearerType@@1H@Z @ 105 NONAME ; class CApListItem * CApListItem::NewLC(enum TCommsDbIspType, unsigned long, class TDesC16 const &, enum TApBearerType, class TDesC16 const &, int)
	?NewLC@CApListItem@@SAPAV1@W4TCommsDbIspType@@KABVTDesC16@@W4TApBearerType@@@Z @ 106 NONAME ; class CApListItem * CApListItem::NewLC(enum TCommsDbIspType, unsigned long, class TDesC16 const &, enum TApBearerType)
	?NewLC@CApListItem@@SAPAV1@XZ @ 107 NONAME ; class CApListItem * CApListItem::NewLC(void)
	?NewLC@CApNetworkItem@@SAPAV1@PAV1@@Z @ 108 NONAME ; class CApNetworkItem * CApNetworkItem::NewLC(class CApNetworkItem *)
	?NewLC@CApNetworkItem@@SAPAV1@XZ @ 109 NONAME ; class CApNetworkItem * CApNetworkItem::NewLC(void)
	?NewLC@CApNetworks@@SAPAV1@AAVCCommsDatabase@@@Z @ 110 NONAME ; class CApNetworks * CApNetworks::NewLC(class CCommsDatabase &)
	?NewLC@CApSelect@@SAPAV1@AAVCCommsDatabase@@HHH@Z @ 111 NONAME ; class CApSelect * CApSelect::NewLC(class CCommsDatabase &, int, int, int)
	?NewLC@CApSelect@@SAPAV1@AAVCCommsDatabase@@HHHH@Z @ 112 NONAME ; class CApSelect * CApSelect::NewLC(class CCommsDatabase &, int, int, int, int)
	?NewLC@CApSelect@@SAPAV1@AAVCCommsDatabase@@HHHHW4TVpnFilterType@@@Z @ 113 NONAME ; class CApSelect * CApSelect::NewLC(class CCommsDatabase &, int, int, int, int, enum TVpnFilterType)
	?NewLC@CApUtils@@SAPAV1@AAVCCommsDatabase@@@Z @ 114 NONAME ; class CApUtils * CApUtils::NewLC(class CCommsDatabase &)
	?NewLC@CVpnApEngine@@SAPAV1@PAVCCommsDatabase@@@Z @ 115 NONAME ; class CVpnApEngine * CVpnApEngine::NewLC(class CCommsDatabase *)
	?NewLC@CVpnApItem@@SAPAV1@XZ @ 116 NONAME ; class CVpnApItem * CVpnApItem::NewLC(void)
	?ProtectItemL@CApProtHandler@@SAXPAVCCommsDatabase@@K@Z @ 117 NONAME ; void CApProtHandler::ProtectItemL(class CCommsDatabase *, unsigned long)
	?ProtectPreferencesL@CApProtHandler@@SAXPAVCCommsDatabase@@@Z @ 118 NONAME ; void CApProtHandler::ProtectPreferencesL(class CCommsDatabase *)
	?ProtectTableL@CApProtHandler@@SAXPAVCCommsDatabase@@@Z @ 119 NONAME ; void CApProtHandler::ProtectTableL(class CCommsDatabase *)
	?ReadBool@CApAccessPointItem@@QAEHW4TApMember@@AAH@Z @ 120 NONAME ; int CApAccessPointItem::ReadBool(enum TApMember, int &)
	?ReadBool@CVpnApItem@@QAEHW4TVpnApMember@@AAH@Z @ 121 NONAME ; int CVpnApItem::ReadBool(enum TVpnApMember, int &)
	?ReadConstLongTextL@CApAccessPointItem@@QAEPBVHBufC16@@W4TApMember@@@Z @ 122 NONAME ; class HBufC16 const * CApAccessPointItem::ReadConstLongTextL(enum TApMember)
	?ReadConstLongTextL@CVpnApItem@@QAEPBVHBufC16@@W4TVpnApMember@@@Z @ 123 NONAME ; class HBufC16 const * CVpnApItem::ReadConstLongTextL(enum TVpnApMember)
	?ReadLongTextL@CApAccessPointItem@@QAEPAVHBufC16@@W4TApMember@@@Z @ 124 NONAME ; class HBufC16 * CApAccessPointItem::ReadLongTextL(enum TApMember)
	?ReadNetworkL@CApDataHandler@@QAEXKAAVCApNetworkItem@@@Z @ 125 NONAME ; void CApDataHandler::ReadNetworkL(unsigned long, class CApNetworkItem &)
	?ReadNetworkPartL@CApDataHandler@@QAEXAAVCApAccessPointItem@@@Z @ 126 NONAME ; void CApDataHandler::ReadNetworkPartL(class CApAccessPointItem &)
	?ReadTextL@CApAccessPointItem@@QAEXW4TApMember@@AAVTDes16@@@Z @ 127 NONAME ; void CApAccessPointItem::ReadTextL(enum TApMember, class TDes16 &)
	?ReadTextL@CApAccessPointItem@@QAEXW4TApMember@@AAVTDes8@@@Z @ 128 NONAME ; void CApAccessPointItem::ReadTextL(enum TApMember, class TDes8 &)
	?ReadTextL@CVpnApItem@@QAEXW4TVpnApMember@@AAVTDes16@@@Z @ 129 NONAME ; void CVpnApItem::ReadTextL(enum TVpnApMember, class TDes16 &)
	?ReadTextLengthL@CApAccessPointItem@@QAEKW4TApMember@@@Z @ 130 NONAME ; unsigned long CApAccessPointItem::ReadTextLengthL(enum TApMember)
	?ReadUint@CApAccessPointItem@@QAEHW4TApMember@@AAK@Z @ 131 NONAME ; int CApAccessPointItem::ReadUint(enum TApMember, unsigned long &)
	?ReadUint@CVpnApItem@@QAEHW4TVpnApMember@@AAK@Z @ 132 NONAME ; int CVpnApItem::ReadUint(enum TVpnApMember, unsigned long &)
	?RemoveAPL@CApDataHandler@@QAEXK@Z @ 133 NONAME ; void CApDataHandler::RemoveAPL(unsigned long)
	?RemoveNetworkL@CApDataHandler@@QAEXK@Z @ 134 NONAME ; void CApDataHandler::RemoveNetworkL(unsigned long)
	?RemoveObserver@CActiveApDb@@QAEXPAVMActiveApDbObserver@@@Z @ 135 NONAME ; void CActiveApDb::RemoveObserver(class MActiveApDbObserver *)
	?RemoveProtectedAccessPointsL@CApProtHandler@@SAXPAVCCommsDatabase@@@Z @ 136 NONAME ; void CApProtHandler::RemoveProtectedAccessPointsL(class CCommsDatabase *)
	?SanityCheckOk@CApAccessPointItem@@QAEHXZ @ 137 NONAME ; int CApAccessPointItem::SanityCheckOk(void)
	?SetAsDefaultL@CApDataHandler@@QAEXKW4TCommsDbIspType@@@Z @ 138 NONAME ; void CApDataHandler::SetAsDefaultL(unsigned long, enum TCommsDbIspType)
	?SetBearerTypeL@CApAccessPointItem@@QAEXW4TApBearerType@@@Z @ 139 NONAME ; void CApAccessPointItem::SetBearerTypeL(enum TApBearerType)
	?SetFiltersL@CApSelect@@QAEXHHH@Z @ 140 NONAME ; void CApSelect::SetFiltersL(int, int, int)
	?SetISPTypeL@CApUtils@@QAEXKW4TCommsDbIspType@@@Z @ 141 NONAME ; void CApUtils::SetISPTypeL(unsigned long, enum TCommsDbIspType)
	?SetItemL@CApListItem@@QAEXW4TCommsDbIspType@@KABVTDesC16@@W4TApBearerType@@1@Z @ 142 NONAME ; void CApListItem::SetItemL(enum TCommsDbIspType, unsigned long, class TDesC16 const &, enum TApBearerType, class TDesC16 const &)
	?SetItemL@CApListItem@@QAEXW4TCommsDbIspType@@KABVTDesC16@@W4TApBearerType@@@Z @ 143 NONAME ; void CApListItem::SetItemL(enum TCommsDbIspType, unsigned long, class TDesC16 const &, enum TApBearerType)
	?SetNameL@CApNetworkItem@@QAEXABVTDesC16@@@Z @ 144 NONAME ; void CApNetworkItem::SetNameL(class TDesC16 const &)
	?SetNameL@CApUtils@@QAEXAAVTDes16@@K@Z @ 145 NONAME ; void CApUtils::SetNameL(class TDes16 &, unsigned long)
	?SetNamesL@CApAccessPointItem@@QAEXABVTDesC16@@@Z @ 146 NONAME ; void CApAccessPointItem::SetNamesL(class TDesC16 const &)
	?SetPreferredIfDbIapTypeL@CApDataHandler@@QAEXKW4TCommDbConnectionDirection@@KW4TCommDbDialogPref@@KH@Z @ 147 NONAME ; void CApDataHandler::SetPreferredIfDbIapTypeL(unsigned long, enum TCommDbConnectionDirection, unsigned long, enum TCommDbDialogPref, unsigned long, int)
	?SetPreferredIfDbIspTypeL@CApDataHandler@@QAEXKW4TCommDbConnectionDirection@@KW4TCommDbDialogPref@@KKABVTDesC16@@H@Z @ 148 NONAME ; void CApDataHandler::SetPreferredIfDbIspTypeL(unsigned long, enum TCommDbConnectionDirection, unsigned long, enum TCommDbDialogPref, unsigned long, unsigned long, class TDesC16 const &, int)
	?SetUid@CApNetworkItem@@QAEXK@Z @ 149 NONAME ; void CApNetworkItem::SetUid(unsigned long)
	?SortOrder@CApSelect@@QAEHXZ @ 150 NONAME ; int CApSelect::SortOrder(void)
	?StartPage@CApListItem@@QBEABVTDesC16@@XZ @ 151 NONAME ; class TDesC16 const & CApListItem::StartPage(void) const
	?Type@CApListItem@@QAE?AW4TCommsDbIspType@@XZ @ 152 NONAME ; enum TCommsDbIspType CApListItem::Type(void)
	?Type@CApSelect@@QAE?AW4TCommsDbIspType@@XZ @ 153 NONAME ; enum TCommsDbIspType CApSelect::Type(void)
	?Uid@CApListItem@@QAEKXZ @ 154 NONAME ; unsigned long CApListItem::Uid(void)
	?Uid@CApNetworkItem@@QBEKXZ @ 155 NONAME ; unsigned long CApNetworkItem::Uid(void) const
	?Uid@CApSelect@@QAEKXZ @ 156 NONAME ; unsigned long CApSelect::Uid(void)
	?UnprotectItemL@CApProtHandler@@SAXPAVCCommsDatabase@@K@Z @ 157 NONAME ; void CApProtHandler::UnprotectItemL(class CCommsDatabase *, unsigned long)
	?UnprotectPreferencesL@CApProtHandler@@SAXPAVCCommsDatabase@@@Z @ 158 NONAME ; void CApProtHandler::UnprotectPreferencesL(class CCommsDatabase *)
	?UnprotectTableL@CApProtHandler@@SAXPAVCCommsDatabase@@@Z @ 159 NONAME ; void CApProtHandler::UnprotectTableL(class CCommsDatabase *)
	?UpdateAccessPointDataL@CApDataHandler@@QAEXAAVCApAccessPointItem@@AAH@Z @ 160 NONAME ; void CApDataHandler::UpdateAccessPointDataL(class CApAccessPointItem &, int &)
	?UpdateVpnDataL@CVpnApEngine@@QAEXAAVCVpnApItem@@@Z @ 161 NONAME ; void CVpnApEngine::UpdateVpnDataL(class CVpnApItem &)
	?VpnDataL@CVpnApEngine@@QAEXKAAVCVpnApItem@@@Z @ 162 NONAME ; void CVpnApEngine::VpnDataL(unsigned long, class CVpnApItem &)
	?WapApExistsL@CApUtils@@QAEHK@Z @ 163 NONAME ; int CApUtils::WapApExistsL(unsigned long)
	?WapBearer@CApAccessPointItem@@QBEABVTDesC16@@XZ @ 164 NONAME ; class TDesC16 const & CApAccessPointItem::WapBearer(void) const
	?WapBearerTypeL@CApUtils@@QAEXKAAVTDes16@@@Z @ 165 NONAME ; void CApUtils::WapBearerTypeL(unsigned long, class TDes16 &)
	?WapIdFromIapIdL@CApUtils@@QAEKK@Z @ 166 NONAME ; unsigned long CApUtils::WapIdFromIapIdL(unsigned long)
	?WapUid@CApAccessPointItem@@QBEKXZ @ 167 NONAME ; unsigned long CApAccessPointItem::WapUid(void) const
	?WapUid@CVpnApItem@@QBEKXZ @ 168 NONAME ; unsigned long CVpnApItem::WapUid(void) const
	?WriteBool@CApAccessPointItem@@QAEHW4TApMember@@ABH@Z @ 169 NONAME ; int CApAccessPointItem::WriteBool(enum TApMember, int const &)
	?WriteBool@CVpnApItem@@QAEHW4TVpnApMember@@ABH@Z @ 170 NONAME ; int CVpnApItem::WriteBool(enum TVpnApMember, int const &)
	?WriteLongTextL@CApAccessPointItem@@QAEHW4TApMember@@ABVTDesC16@@@Z @ 171 NONAME ; int CApAccessPointItem::WriteLongTextL(enum TApMember, class TDesC16 const &)
	?WriteLongTextL@CVpnApItem@@QAEHW4TVpnApMember@@ABVTDesC16@@@Z @ 172 NONAME ; int CVpnApItem::WriteLongTextL(enum TVpnApMember, class TDesC16 const &)
	?WriteTextL@CApAccessPointItem@@QAEHW4TApMember@@ABVTDesC16@@@Z @ 173 NONAME ; int CApAccessPointItem::WriteTextL(enum TApMember, class TDesC16 const &)
	?WriteTextL@CApAccessPointItem@@QAEHW4TApMember@@ABVTDesC8@@@Z @ 174 NONAME ; int CApAccessPointItem::WriteTextL(enum TApMember, class TDesC8 const &)
	?WriteTextL@CVpnApItem@@QAEHW4TVpnApMember@@ABVTDesC16@@@Z @ 175 NONAME ; int CVpnApItem::WriteTextL(enum TVpnApMember, class TDesC16 const &)
	?WriteUint@CApAccessPointItem@@QAEHW4TApMember@@ABK@Z @ 176 NONAME ; int CApAccessPointItem::WriteUint(enum TApMember, unsigned long const &)
	?WriteUint@CVpnApItem@@QAEHW4TVpnApMember@@ABK@Z @ 177 NONAME ; int CVpnApItem::WriteUint(enum TVpnApMember, unsigned long const &)
	?ConstructL@CApSelect@@IAEXAAVCCommsDatabase@@HHHHW4TVpnFilterType@@H@Z @ 178 NONAME ; void CApSelect::ConstructL(class CCommsDatabase &, int, int, int, int, enum TVpnFilterType, int)
	?NewLC@CApSelect@@SAPAV1@AAVCCommsDatabase@@HHHHW4TVpnFilterType@@H@Z @ 179 NONAME ; class CApSelect * CApSelect::NewLC(class CCommsDatabase &, int, int, int, int, enum TVpnFilterType, int)

