EXPORTS
	??1CUPnPBrowsePlaylistFiller@@UAE@XZ @ 1 NONAME ; CUPnPBrowsePlaylistFiller::~CUPnPBrowsePlaylistFiller(void)
	??1CUPnPMusicAdapter@@UAE@XZ @ 2 NONAME ; CUPnPMusicAdapter::~CUPnPMusicAdapter(void)
	??1CUPnPPlayListFiller@@UAE@XZ @ 3 NONAME ; CUPnPPlayListFiller::~CUPnPPlayListFiller(void)
	??1CUPnPPlaylistServices@@UAE@XZ @ 4 NONAME ; CUPnPPlaylistServices::~CUPnPPlaylistServices(void)
	?AddMediaToPlaylistL@CUPnPPlaylistServices@@QAEXABVTDesC16@@0@Z @ 5 NONAME ; void CUPnPPlaylistServices::AddMediaToPlaylistL(class TDesC16 const &, class TDesC16 const &)
	?CreatePlaylistL@CUPnPPlaylistServices@@QAEXABVTDesC16@@ABVMDesC16Array@@PAVTDes16@@@Z @ 6 NONAME ; void CUPnPPlaylistServices::CreatePlaylistL(class TDesC16 const &, class MDesC16Array const &, class TDes16 *)
	?CreateTrackL@CUPnPPlaylistServices@@QAEXABVTDesC16@@ABVCUpnpItem@@@Z @ 7 NONAME ; void CUPnPPlaylistServices::CreateTrackL(class TDesC16 const &, class CUpnpItem const &)
	?DeletePlaylistL@CUPnPPlaylistServices@@QAEXABVTDesC16@@@Z @ 8 NONAME ; void CUPnPPlaylistServices::DeletePlaylistL(class TDesC16 const &)
	?DeleteTrackL@CUPnPPlaylistServices@@QAEXABVTDesC16@@@Z @ 9 NONAME ; void CUPnPPlaylistServices::DeleteTrackL(class TDesC16 const &)
	?Dismiss@CUPnPMusicAdapter@@QAEXH@Z @ 10 NONAME ; void CUPnPMusicAdapter::Dismiss(int)
	?ExecuteMusicInLocalL@CUPnPMusicAdapter@@QAEHPAVCEikAppUi@@PAVCUPnPPlayListFiller@@@Z @ 11 NONAME ; int CUPnPMusicAdapter::ExecuteMusicInLocalL(class CEikAppUi *, class CUPnPPlayListFiller *)
	?ExecuteMusicInRemoteL@CUPnPMusicAdapter@@QAEHPAVCEikAppUi@@PAVCUPnPPlayListFiller@@ABVCUpnpAVDevice@@@Z @ 12 NONAME ; int CUPnPMusicAdapter::ExecuteMusicInRemoteL(class CEikAppUi *, class CUPnPPlayListFiller *, class CUpnpAVDevice const &)
	?InsertObjectL@CUPnPPlayListFiller@@QAEXABVCUpnpAVDevice@@ABVCUpnpObject@@@Z @ 13 NONAME ; void CUPnPPlayListFiller::InsertObjectL(class CUpnpAVDevice const &, class CUpnpObject const &)
	?IsValidPlaylistL@CUPnPPlaylistServices@@QAEHABVTDesC16@@@Z @ 14 NONAME ; int CUPnPPlaylistServices::IsValidPlaylistL(class TDesC16 const &)
	?IsValidTrackL@CUPnPPlaylistServices@@QAEHABVTDesC16@@@Z @ 15 NONAME ; int CUPnPPlaylistServices::IsValidTrackL(class TDesC16 const &)
	?ListPlaylistsL@CUPnPPlaylistServices@@QAEXAAVCDesC16Array@@0@Z @ 16 NONAME ; void CUPnPPlaylistServices::ListPlaylistsL(class CDesC16Array &, class CDesC16Array &)
	?NewL@CUPnPBrowsePlaylistFiller@@SAPAV1@ABVTDesC8@@HH@Z @ 17 NONAME ; class CUPnPBrowsePlaylistFiller * CUPnPBrowsePlaylistFiller::NewL(class TDesC8 const &, int, int)
	?NewL@CUPnPMusicAdapter@@SAPAV1@AAVMUPnPAVController@@@Z @ 18 NONAME ; class CUPnPMusicAdapter * CUPnPMusicAdapter::NewL(class MUPnPAVController &)
	?NewL@CUPnPPlayListFiller@@SAPAV1@XZ @ 19 NONAME ; class CUPnPPlayListFiller * CUPnPPlayListFiller::NewL(void)
	?NewL@CUPnPPlaylistServices@@SAPAV1@XZ @ 20 NONAME ; class CUPnPPlaylistServices * CUPnPPlaylistServices::NewL(void)
	?OpenPlaylistL@CUPnPPlaylistServices@@QAEXABVTDesC16@@AAVCDesC16Array@@@Z @ 21 NONAME ; void CUPnPPlaylistServices::OpenPlaylistL(class TDesC16 const &, class CDesC16Array &)
	?SetSelectedIndex@CUPnPPlayListFiller@@QAEXH@Z @ 22 NONAME ; void CUPnPPlayListFiller::SetSelectedIndex(int)
	??1CUPnPAlbumServices@@UAE@XZ @ 23 NONAME ; CUPnPAlbumServices::~CUPnPAlbumServices(void)
	?IsValidAlbumL@CUPnPAlbumServices@@QAEHABVTDesC16@@@Z @ 24 NONAME ; int CUPnPAlbumServices::IsValidAlbumL(class TDesC16 const &)
	?ListAlbumsL@CUPnPAlbumServices@@QAEXAAVCDesC16Array@@0@Z @ 25 NONAME ; void CUPnPAlbumServices::ListAlbumsL(class CDesC16Array &, class CDesC16Array &)
	?NewL@CUPnPAlbumServices@@SAPAV1@XZ @ 26 NONAME ; class CUPnPAlbumServices * CUPnPAlbumServices::NewL(void)
	?OpenAlbumL@CUPnPAlbumServices@@QAEXABVTDesC16@@AAVCDesC16Array@@@Z @ 27 NONAME ; void CUPnPAlbumServices::OpenAlbumL(class TDesC16 const &, class CDesC16Array &)
	??1CUPnPLiteFiller@@UAE@XZ @ 28 NONAME ; CUPnPLiteFiller::~CUPnPLiteFiller(void)
	??1CUPnPLiteSelectionFiller@@UAE@XZ @ 29 NONAME ; CUPnPLiteSelectionFiller::~CUPnPLiteSelectionFiller(void)
	?ExecuteMusicLiteInLocalL@CUPnPMusicAdapter@@QAEHPAVCEikAppUi@@PAVMUPnPPlaylistFiller@@@Z @ 30 NONAME ; int CUPnPMusicAdapter::ExecuteMusicLiteInLocalL(class CEikAppUi *, class MUPnPPlaylistFiller *)
	?ExecuteMusicLiteInRemoteL@CUPnPMusicAdapter@@QAEHPAVCEikAppUi@@PAVMUPnPPlaylistFiller@@ABVCUpnpAVDevice@@@Z @ 31 NONAME ; int CUPnPMusicAdapter::ExecuteMusicLiteInRemoteL(class CEikAppUi *, class MUPnPPlaylistFiller *, class CUpnpAVDevice const &)
	?NewL@CUPnPLiteSelectionFiller@@SAPAV1@ABV?$RPointerArray@VCUpnpObjectLite@@@@ABVCUpnpAVDevice@@@Z @ 32 NONAME ; class CUPnPLiteSelectionFiller * CUPnPLiteSelectionFiller::NewL(class RPointerArray<class CUpnpObjectLite> const &, class CUpnpAVDevice const &)
	?SetSelectedIndex@CUPnPLiteFiller@@QAEXH@Z @ 33 NONAME ; void CUPnPLiteFiller::SetSelectedIndex(int)

