EXPORTS
	??0COperationAddPresentityGroupMember@@QAE@XZ @ 1 NONAME ; COperationAddPresentityGroupMember::COperationAddPresentityGroupMember(void)
	??0COperationBlockPresenceForPresentity@@QAE@XZ @ 2 NONAME ; COperationBlockPresenceForPresentity::COperationBlockPresenceForPresentity(void)
	??0COperationCancelPresenceBlockFromPresentity@@QAE@XZ @ 3 NONAME ; COperationCancelPresenceBlockFromPresentity::COperationCancelPresenceBlockFromPresentity(void)
	??0COperationCreatePresentityGroup@@QAE@XZ @ 4 NONAME ; COperationCreatePresentityGroup::COperationCreatePresentityGroup(void)
	??0COperationDeletePresentityGroup@@QAE@XZ @ 5 NONAME ; COperationDeletePresentityGroup::COperationDeletePresentityGroup(void)
	??0COperationGrantPresenceToEveryone@@QAE@XZ @ 6 NONAME ; COperationGrantPresenceToEveryone::COperationGrantPresenceToEveryone(void)
	??0COperationGrantPresenceToPresentity@@QAE@XZ @ 7 NONAME ; COperationGrantPresenceToPresentity::COperationGrantPresenceToPresentity(void)
	??0COperationGrantPresenceToPresentityGroupMembers@@QAE@XZ @ 8 NONAME ; COperationGrantPresenceToPresentityGroupMembers::COperationGrantPresenceToPresentityGroupMembers(void)
	??0COperationHandleOwnPresence@@QAE@XZ @ 9 NONAME ; COperationHandleOwnPresence::COperationHandleOwnPresence(void)
	??0COperationHandlePresenceBlocking@@QAE@H@Z @ 10 NONAME ; COperationHandlePresenceBlocking::COperationHandlePresenceBlocking(int)
	??0COperationHandlePresenceGrantRequests@@QAE@H@Z @ 11 NONAME ; COperationHandlePresenceGrantRequests::COperationHandlePresenceGrantRequests(int)
	??0COperationHandlePresenceWatcherList@@QAE@XZ @ 12 NONAME ; COperationHandlePresenceWatcherList::COperationHandlePresenceWatcherList(void)
	??0COperationHandlePresentityGroupContent@@QAE@XZ @ 13 NONAME ; COperationHandlePresentityGroupContent::COperationHandlePresentityGroupContent(void)
	??0COperationHandlePresentityGroupMemberAdded@@QAE@XZ @ 14 NONAME ; COperationHandlePresentityGroupMemberAdded::COperationHandlePresentityGroupMemberAdded(void)
	??0COperationHandlePresentityGroupMemberDisplayNameUpdated@@QAE@XZ @ 15 NONAME ; COperationHandlePresentityGroupMemberDisplayNameUpdated::COperationHandlePresentityGroupMemberDisplayNameUpdated(void)
	??0COperationHandlePresentityGroupMemberRemoved@@QAE@XZ @ 16 NONAME ; COperationHandlePresentityGroupMemberRemoved::COperationHandlePresentityGroupMemberRemoved(void)
	??0COperationHandlePresentityGroups@@QAE@W4TPresenceOpTypes@NPresenceOps@@@Z @ 17 NONAME ; COperationHandlePresentityGroups::COperationHandlePresentityGroups(enum NPresenceOps::TPresenceOpTypes)
	??0COperationHandlePresentityPresence@@QAE@H@Z @ 18 NONAME ; COperationHandlePresentityPresence::COperationHandlePresentityPresence(int)
	??0COperationLaunchCleaner@@QAE@XZ @ 19 NONAME ; COperationLaunchCleaner::COperationLaunchCleaner(void)
	??0COperationPublishOwnPresence@@QAE@XZ @ 20 NONAME ; COperationPublishOwnPresence::COperationPublishOwnPresence(void)
	??0COperationRemovePresentityGroupMember@@QAE@XZ @ 21 NONAME ; COperationRemovePresentityGroupMember::COperationRemovePresentityGroupMember(void)
	??0COperationSetSubscriptionData@@QAE@W4TPresenceOpTypes@NPresenceOps@@@Z @ 22 NONAME ; COperationSetSubscriptionData::COperationSetSubscriptionData(enum NPresenceOps::TPresenceOpTypes)
	??0COperationSubscribeBlockList@@QAE@XZ @ 23 NONAME ; COperationSubscribeBlockList::COperationSubscribeBlockList(void)
	??0COperationSubscribeGrantRequestList@@QAE@XZ @ 24 NONAME ; COperationSubscribeGrantRequestList::COperationSubscribeGrantRequestList(void)
	??0COperationSubscribeGroupContent@@QAE@XZ @ 25 NONAME ; COperationSubscribeGroupContent::COperationSubscribeGroupContent(void)
	??0COperationSubscribeGroupList@@QAE@XZ @ 26 NONAME ; COperationSubscribeGroupList::COperationSubscribeGroupList(void)
	??0COperationSubscribeOwnPresence@@QAE@XZ @ 27 NONAME ; COperationSubscribeOwnPresence::COperationSubscribeOwnPresence(void)
	??0COperationSubscribePresentityGroupMembersPresence@@QAE@XZ @ 28 NONAME ; COperationSubscribePresentityGroupMembersPresence::COperationSubscribePresentityGroupMembersPresence(void)
	??0COperationSubscribePresentityPresence@@QAE@XZ @ 29 NONAME ; COperationSubscribePresentityPresence::COperationSubscribePresentityPresence(void)
	??0COperationSubscribeWatcherList@@QAE@XZ @ 30 NONAME ; COperationSubscribeWatcherList::COperationSubscribeWatcherList(void)
	??0COperationSynthesiseSubscriptionEvent@@QAE@W4TSubscriptionType@0@H@Z @ 31 NONAME ; COperationSynthesiseSubscriptionEvent::COperationSynthesiseSubscriptionEvent(enum COperationSynthesiseSubscriptionEvent::TSubscriptionType, int)
	??0COperationUnsubscribeBlockList@@QAE@XZ @ 32 NONAME ; COperationUnsubscribeBlockList::COperationUnsubscribeBlockList(void)
	??0COperationUnsubscribeGrantRequestList@@QAE@XZ @ 33 NONAME ; COperationUnsubscribeGrantRequestList::COperationUnsubscribeGrantRequestList(void)
	??0COperationUnsubscribeGroupContent@@QAE@XZ @ 34 NONAME ; COperationUnsubscribeGroupContent::COperationUnsubscribeGroupContent(void)
	??0COperationUnsubscribeGroupList@@QAE@XZ @ 35 NONAME ; COperationUnsubscribeGroupList::COperationUnsubscribeGroupList(void)
	??0COperationUnsubscribeOwnPresence@@QAE@XZ @ 36 NONAME ; COperationUnsubscribeOwnPresence::COperationUnsubscribeOwnPresence(void)
	??0COperationUnsubscribePresentityGroupMembersPresence@@QAE@XZ @ 37 NONAME ; COperationUnsubscribePresentityGroupMembersPresence::COperationUnsubscribePresentityGroupMembersPresence(void)
	??0COperationUnsubscribePresentityPresence@@QAE@XZ @ 38 NONAME ; COperationUnsubscribePresentityPresence::COperationUnsubscribePresentityPresence(void)
	??0COperationUnsubscribeWatcherList@@QAE@XZ @ 39 NONAME ; COperationUnsubscribeWatcherList::COperationUnsubscribeWatcherList(void)
	??0COperationUpdatePresentityGroupDisplayName@@QAE@XZ @ 40 NONAME ; COperationUpdatePresentityGroupDisplayName::COperationUpdatePresentityGroupDisplayName(void)
	??0COperationUpdatePresentityGroupMemberDisplayName@@QAE@XZ @ 41 NONAME ; COperationUpdatePresentityGroupMemberDisplayName::COperationUpdatePresentityGroupMemberDisplayName(void)
	??0COperationWithdrawPresenceFromEveryone@@QAE@XZ @ 42 NONAME ; COperationWithdrawPresenceFromEveryone::COperationWithdrawPresenceFromEveryone(void)
	??0COperationWithdrawPresenceFromPresentity@@QAE@XZ @ 43 NONAME ; COperationWithdrawPresenceFromPresentity::COperationWithdrawPresenceFromPresentity(void)
	??0COperationWithdrawPresenceFromPresentityGroupMembers@@QAE@XZ @ 44 NONAME ; COperationWithdrawPresenceFromPresentityGroupMembers::COperationWithdrawPresenceFromPresentityGroupMembers(void)
	?NewL@CPresenceOperationFactory@@SAPAV1@XZ @ 45 NONAME ; class CPresenceOperationFactory * CPresenceOperationFactory::NewL(void)

