EXPORTS
	??8CPresenceInfoFilterImp@@QAEHAAV0@@Z @ 1 NONAME ; int CPresenceInfoFilterImp::operator==(class CPresenceInfoFilterImp &)
	??9CPresenceInfoFilterImp@@QAEHAAV0@@Z @ 2 NONAME ; int CPresenceInfoFilterImp::operator!=(class CPresenceInfoFilterImp &)
	?AddConfiguratorL@CGroupMembersPresenceConfigurationItem@@QAEXPAVMXIMPPscContext@@@Z @ 3 NONAME ; void CGroupMembersPresenceConfigurationItem::AddConfiguratorL(class MXIMPPscContext *)
	?AddOrRenewSubscriberL@CGroupContentSubscriptionItem@@QAEXPAVMXIMPPscContext@@@Z @ 4 NONAME ; void CGroupContentSubscriptionItem::AddOrRenewSubscriberL(class MXIMPPscContext *)
	?AddSubscriberL@CPresentityGroupMembersPresenceSubscriptionItem@@QAEXPAVMXIMPPscContext@@@Z @ 5 NONAME ; void CPresentityGroupMembersPresenceSubscriptionItem::AddSubscriberL(class MXIMPPscContext *)
	?AssociateL@CPresenceFilterStore@@QAEXABVCXIMPIdentityImp@@PAVCPresenceInfoFilterImp@@@Z @ 6 NONAME ; void CPresenceFilterStore::AssociateL(class CXIMPIdentityImp const &, class CPresenceInfoFilterImp *)
	?BlindAddL@CPresenceBuddyInfoListImp@@QAEHPAVMPresenceBuddyInfo@@@Z @ 7 NONAME ; int CPresenceBuddyInfoListImp::BlindAddL(class MPresenceBuddyInfo *)
	?BlockListSubscriptionItemLC@CPresenceDataCache@@QAEAAVCBlockListSubscriptionItem@@XZ @ 8 NONAME ; class CBlockListSubscriptionItem & CPresenceDataCache::BlockListSubscriptionItemLC(void)
	?Clean@CBlockListSubscriptionItem@@QAEXXZ @ 9 NONAME ; void CBlockListSubscriptionItem::Clean(void)
	?Clean@CGrantRequestListSubscriptionItem@@QAEXXZ @ 10 NONAME ; void CGrantRequestListSubscriptionItem::Clean(void)
	?Clean@CGroupContentSubscriptionItem@@QAEXXZ @ 11 NONAME ; void CGroupContentSubscriptionItem::Clean(void)
	?Clean@CGroupListSubscriptionItem@@QAEXXZ @ 12 NONAME ; void CGroupListSubscriptionItem::Clean(void)
	?Clean@CWatcherListSubscriptionItem@@QAEXXZ @ 13 NONAME ; void CWatcherListSubscriptionItem::Clean(void)
	?CleanExpired@CPresenceDataCache@@QAEXXZ @ 14 NONAME ; void CPresenceDataCache::CleanExpired(void)
	?CleanResources@CPresenceDataCache@@QAEXAAVMXIMPPscContext@@@Z @ 15 NONAME ; void CPresenceDataCache::CleanResources(class MXIMPPscContext &)
	?CollectConfigurationPifWithoutCtxL@CGroupMembersPresenceConfigurationItem@@QAEPAVCPresenceInfoFilterImp@@PAVMXIMPPscContext@@@Z @ 16 NONAME ; class CPresenceInfoFilterImp * CGroupMembersPresenceConfigurationItem::CollectConfigurationPifWithoutCtxL(class MXIMPPscContext *)
	?CollectConfigurationPifWithoutCtxL@CPresenceConfigurationItem@@QAEPAVCPresenceInfoFilterImp@@PAVMXIMPPscContext@@@Z @ 17 NONAME ; class CPresenceInfoFilterImp * CPresenceConfigurationItem::CollectConfigurationPifWithoutCtxL(class MXIMPPscContext *)
	?CollectConfigurationPifWithoutCtxL@CPresenceToEveryoneConfigurationItem@@QAEPAVCPresenceInfoFilterImp@@PAVMXIMPPscContext@@@Z @ 18 NONAME ; class CPresenceInfoFilterImp * CPresenceToEveryoneConfigurationItem::CollectConfigurationPifWithoutCtxL(class MXIMPPscContext *)
	?CollectFilteredPresenceInfoLC@DocumentUtils@@SAPAVCPresenceInfoImp@@ABVCPresenceInfoFilterImp@@ABV2@@Z @ 19 NONAME ; class CPresenceInfoImp * DocumentUtils::CollectFilteredPresenceInfoLC(class CPresenceInfoFilterImp const &, class CPresenceInfoImp const &)
	?CollectSubscriptionPifWithoutCtxL@COwnPresenceSubscriptionItem@@QAEPAVCPresenceInfoFilterImp@@PAVMXIMPPscContext@@@Z @ 20 NONAME ; class CPresenceInfoFilterImp * COwnPresenceSubscriptionItem::CollectSubscriptionPifWithoutCtxL(class MXIMPPscContext *)
	?CollectSubscriptionPifWithoutCtxL@CPresentityGroupMembersPresenceSubscriptionItem@@QAEPAVCPresenceInfoFilterImp@@PAVMXIMPPscContext@@@Z @ 21 NONAME ; class CPresenceInfoFilterImp * CPresentityGroupMembersPresenceSubscriptionItem::CollectSubscriptionPifWithoutCtxL(class MXIMPPscContext *)
	?CollectSubscriptionPifWithoutCtxL@CPresentityPresenceSubscriptionItem@@QAEPAVCPresenceInfoFilterImp@@PAVMXIMPPscContext@@@Z @ 22 NONAME ; class CPresenceInfoFilterImp * CPresentityPresenceSubscriptionItem::CollectSubscriptionPifWithoutCtxL(class MXIMPPscContext *)
	?ConfigurationPif@CGroupMembersPresenceConfigurationItem@@QAEAAVCPresenceInfoFilterImp@@XZ @ 23 NONAME ; class CPresenceInfoFilterImp & CGroupMembersPresenceConfigurationItem::ConfigurationPif(void)
	?ConfigurationPif@CPresenceConfigurationItem@@QAEAAVCPresenceInfoFilterImp@@XZ @ 24 NONAME ; class CPresenceInfoFilterImp & CPresenceConfigurationItem::ConfigurationPif(void)
	?ConfigurationPif@CPresenceToEveryoneConfigurationItem@@QAEAAVCPresenceInfoFilterImp@@XZ @ 25 NONAME ; class CPresenceInfoFilterImp & CPresenceToEveryoneConfigurationItem::ConfigurationPif(void)
	?Contains@CPresenceInfoFilterImp@@QAEHAAV1@@Z @ 26 NONAME ; int CPresenceInfoFilterImp::Contains(class CPresenceInfoFilterImp &)
	?Disassociate@CPresenceFilterStore@@QAEXABVCXIMPIdentityImp@@@Z @ 27 NONAME ; void CPresenceFilterStore::Disassociate(class CXIMPIdentityImp const &)
	?EqualsIdentity@CPresenceBuddyInfoImp@@UBEHPBVMPresenceBuddyInfo@@@Z @ 28 NONAME ; int CPresenceBuddyInfoImp::EqualsIdentity(class MPresenceBuddyInfo const *) const
	?ExternalizeL@CPresenceBlockInfoImp@@UBEXAAVRWriteStream@@@Z @ 29 NONAME ; void CPresenceBlockInfoImp::ExternalizeL(class RWriteStream &) const
	?ExternalizeL@CPresenceBuddyInfoImp@@UBEXAAVRWriteStream@@@Z @ 30 NONAME ; void CPresenceBuddyInfoImp::ExternalizeL(class RWriteStream &) const
	?ExternalizeL@CPresenceBuddyInfoListImp@@UBEXAAVRWriteStream@@@Z @ 31 NONAME ; void CPresenceBuddyInfoListImp::ExternalizeL(class RWriteStream &) const
	?ExternalizeL@CPresenceInfoFilterImp@@UBEXAAVRWriteStream@@@Z @ 32 NONAME ; void CPresenceInfoFilterImp::ExternalizeL(class RWriteStream &) const
	?ExternalizeL@CPresenceInfoImp@@UBEXAAVRWriteStream@@@Z @ 33 NONAME ; void CPresenceInfoImp::ExternalizeL(class RWriteStream &) const
	?FilterForIdentity@CPresenceFilterStore@@QAEPAVCPresenceInfoFilterImp@@ABVCXIMPIdentityImp@@@Z @ 34 NONAME ; class CPresenceInfoFilterImp * CPresenceFilterStore::FilterForIdentity(class CXIMPIdentityImp const &)
	?FilteredInfoLC@CPresenceInfoImp@@QBEPAV1@ABVCPresenceInfoFilterImp@@@Z @ 35 NONAME ; class CPresenceInfoImp * CPresenceInfoImp::FilteredInfoLC(class CPresenceInfoFilterImp const &) const
	?GrantRequestListSubscriptionItemLC@CPresenceDataCache@@QAEAAVCGrantRequestListSubscriptionItem@@XZ @ 36 NONAME ; class CGrantRequestListSubscriptionItem & CPresenceDataCache::GrantRequestListSubscriptionItemLC(void)
	?GroupContentSubscriptionItemExists@CPresenceDataCache@@QAEHABVCXIMPIdentityImp@@@Z @ 37 NONAME ; int CPresenceDataCache::GroupContentSubscriptionItemExists(class CXIMPIdentityImp const &)
	?GroupContentSubscriptionItemLC@CPresenceDataCache@@QAEAAVCGroupContentSubscriptionItem@@ABVCXIMPIdentityImp@@@Z @ 38 NONAME ; class CGroupContentSubscriptionItem & CPresenceDataCache::GroupContentSubscriptionItemLC(class CXIMPIdentityImp const &)
	?GroupId@CGroupContentSubscriptionItem@@QBEABVCXIMPIdentityImp@@XZ @ 39 NONAME ; class CXIMPIdentityImp const & CGroupContentSubscriptionItem::GroupId(void) const
	?GroupIdLinearOrder@CPresentityGroupInfoImp@@SAHABV1@0@Z @ 40 NONAME ; int CPresentityGroupInfoImp::GroupIdLinearOrder(class CPresentityGroupInfoImp const &, class CPresentityGroupInfoImp const &)
	?GroupIdLinearOrder@CPresentityGroupMemberInfoImp@@SAHABV1@0@Z @ 41 NONAME ; int CPresentityGroupMemberInfoImp::GroupIdLinearOrder(class CPresentityGroupMemberInfoImp const &, class CPresentityGroupMemberInfoImp const &)
	?GroupIdentity@CPresentityPresenceSubscriptionItem@@QBEPBVMXIMPIdentity@@XZ @ 42 NONAME ; class MXIMPIdentity const * CPresentityPresenceSubscriptionItem::GroupIdentity(void) const
	?GroupListSubscriptionItemLC@CPresenceDataCache@@QAEAAVCGroupListSubscriptionItem@@XZ @ 43 NONAME ; class CGroupListSubscriptionItem & CPresenceDataCache::GroupListSubscriptionItemLC(void)
	?GroupMemberExistsL@CGroupContentSubscriptionItem@@QBEHAAVCPresentityGroupMemberInfoImp@@@Z @ 44 NONAME ; int CGroupContentSubscriptionItem::GroupMemberExistsL(class CPresentityGroupMemberInfoImp &) const
	?GroupMembersPresenceConfigurationItemLC@CPresenceDataCache@@QAEAAVCGroupMembersPresenceConfigurationItem@@ABVCXIMPIdentityImp@@@Z @ 45 NONAME ; class CGroupMembersPresenceConfigurationItem & CPresenceDataCache::GroupMembersPresenceConfigurationItemLC(class CXIMPIdentityImp const &)
	?IdLinearOrder@CPresenceBlockInfoImp@@SAHABV1@0@Z @ 46 NONAME ; int CPresenceBlockInfoImp::IdLinearOrder(class CPresenceBlockInfoImp const &, class CPresenceBlockInfoImp const &)
	?IdLinearOrder@CPresenceGrantRequestInfoImp@@SAHABV1@0@Z @ 47 NONAME ; int CPresenceGrantRequestInfoImp::IdLinearOrder(class CPresenceGrantRequestInfoImp const &, class CPresenceGrantRequestInfoImp const &)
	?IdLinearOrder@CPresenceWatcherInfoImp@@SAHABV1@0@Z @ 48 NONAME ; int CPresenceWatcherInfoImp::IdLinearOrder(class CPresenceWatcherInfoImp const &, class CPresenceWatcherInfoImp const &)
	?Identity@CGroupMembersPresenceConfigurationItem@@QBEABVMXIMPIdentity@@XZ @ 49 NONAME ; class MXIMPIdentity const & CGroupMembersPresenceConfigurationItem::Identity(void) const
	?Identity@CPresenceConfigurationItem@@QBEABVMXIMPIdentity@@XZ @ 50 NONAME ; class MXIMPIdentity const & CPresenceConfigurationItem::Identity(void) const
	?Identity@CPresentityGroupInfoImp@@QBEABVCXIMPIdentityImp@@XZ @ 51 NONAME ; class CXIMPIdentityImp const & CPresentityGroupInfoImp::Identity(void) const
	?Identity@CPresentityGroupMembersPresenceSubscriptionItem@@QBEABVMXIMPIdentity@@XZ @ 52 NONAME ; class MXIMPIdentity const & CPresentityGroupMembersPresenceSubscriptionItem::Identity(void) const
	?Identity@CPresentityPresenceSubscriptionItem@@QBEABVMXIMPIdentity@@XZ @ 53 NONAME ; class MXIMPIdentity const & CPresentityPresenceSubscriptionItem::Identity(void) const
	?IdentityImp@CPresenceBlockInfoImp@@QBEABVCXIMPIdentityImp@@XZ @ 54 NONAME ; class CXIMPIdentityImp const & CPresenceBlockInfoImp::IdentityImp(void) const
	?IdentityImp@CPresenceGrantRequestInfoImp@@QBEABVCXIMPIdentityImp@@XZ @ 55 NONAME ; class CXIMPIdentityImp const & CPresenceGrantRequestInfoImp::IdentityImp(void) const
	?IdentityImp@CPresenceWatcherInfoImp@@QBEABVCXIMPIdentityImp@@XZ @ 56 NONAME ; class CXIMPIdentityImp const & CPresenceWatcherInfoImp::IdentityImp(void) const
	?IdentityImp@CPresentityGroupMemberInfoImp@@QBEABVCXIMPIdentityImp@@XZ @ 57 NONAME ; class CXIMPIdentityImp const & CPresentityGroupMemberInfoImp::IdentityImp(void) const
	?IdentityOrder@CGroupContentSubscriptionItem@@SAHPBVCXIMPIdentityImp@@ABV1@@Z @ 58 NONAME ; int CGroupContentSubscriptionItem::IdentityOrder(class CXIMPIdentityImp const *, class CGroupContentSubscriptionItem const &)
	?IdentityOrder@CGroupMembersPresenceConfigurationItem@@SAHPBVCXIMPIdentityImp@@ABV1@@Z @ 59 NONAME ; int CGroupMembersPresenceConfigurationItem::IdentityOrder(class CXIMPIdentityImp const *, class CGroupMembersPresenceConfigurationItem const &)
	?IdentityOrder@CPresenceConfigurationItem@@SAHPBVCXIMPIdentityImp@@ABV1@@Z @ 60 NONAME ; int CPresenceConfigurationItem::IdentityOrder(class CXIMPIdentityImp const *, class CPresenceConfigurationItem const &)
	?IdentityOrder@CPresentityGroupMembersPresenceSubscriptionItem@@SAHPBVCXIMPIdentityImp@@ABV1@@Z @ 61 NONAME ; int CPresentityGroupMembersPresenceSubscriptionItem::IdentityOrder(class CXIMPIdentityImp const *, class CPresentityGroupMembersPresenceSubscriptionItem const &)
	?IdentityOrder@CPresentityPresenceSubscriptionItem@@SAHPBVCXIMPIdentityImp@@ABV1@@Z @ 62 NONAME ; int CPresentityPresenceSubscriptionItem::IdentityOrder(class CXIMPIdentityImp const *, class CPresentityPresenceSubscriptionItem const &)
	?InfoFilterUnionL@DocumentUtils@@SAPAVCPresenceInfoFilterImp@@AAV2@0@Z @ 63 NONAME ; class CPresenceInfoFilterImp * DocumentUtils::InfoFilterUnionL(class CPresenceInfoFilterImp &, class CPresenceInfoFilterImp &)
	?InfoFilterUnionL@DocumentUtils@@SAPAVCPresenceInfoFilterImp@@ABV?$RPointerArray@VCPresenceInfoFilterImp@@@@@Z @ 64 NONAME ; class CPresenceInfoFilterImp * DocumentUtils::InfoFilterUnionL(class RPointerArray<class CPresenceInfoFilterImp> const &)
	?InternalizeL@CDevicePresenceInfoImp@@QAEXAAVRReadStream@@@Z @ 65 NONAME ; void CDevicePresenceInfoImp::InternalizeL(class RReadStream &)
	?InternalizeL@CPersonPresenceInfoImp@@QAEXAAVRReadStream@@@Z @ 66 NONAME ; void CPersonPresenceInfoImp::InternalizeL(class RReadStream &)
	?InternalizeL@CPresenceBlockInfoImp@@QAEXAAVRReadStream@@@Z @ 67 NONAME ; void CPresenceBlockInfoImp::InternalizeL(class RReadStream &)
	?InternalizeL@CPresenceBuddyInfoImp@@QAEXAAVRReadStream@@@Z @ 68 NONAME ; void CPresenceBuddyInfoImp::InternalizeL(class RReadStream &)
	?InternalizeL@CPresenceBuddyInfoListImp@@QAEXAAVRReadStream@@@Z @ 69 NONAME ; void CPresenceBuddyInfoListImp::InternalizeL(class RReadStream &)
	?InternalizeL@CPresenceGrantRequestInfoImp@@QAEXAAVRReadStream@@@Z @ 70 NONAME ; void CPresenceGrantRequestInfoImp::InternalizeL(class RReadStream &)
	?InternalizeL@CPresenceInfoFieldCollectionImp@@QAEXAAVRReadStream@@@Z @ 71 NONAME ; void CPresenceInfoFieldCollectionImp::InternalizeL(class RReadStream &)
	?InternalizeL@CPresenceInfoFieldImp@@QAEXAAVRReadStream@@@Z @ 72 NONAME ; void CPresenceInfoFieldImp::InternalizeL(class RReadStream &)
	?InternalizeL@CPresenceInfoFieldValueBinaryImp@@QAEXAAVRReadStream@@@Z @ 73 NONAME ; void CPresenceInfoFieldValueBinaryImp::InternalizeL(class RReadStream &)
	?InternalizeL@CPresenceInfoFieldValueEnumImp@@QAEXAAVRReadStream@@@Z @ 74 NONAME ; void CPresenceInfoFieldValueEnumImp::InternalizeL(class RReadStream &)
	?InternalizeL@CPresenceInfoFieldValueTextImp@@QAEXAAVRReadStream@@@Z @ 75 NONAME ; void CPresenceInfoFieldValueTextImp::InternalizeL(class RReadStream &)
	?InternalizeL@CPresenceInfoFilterImp@@QAEXAAVRReadStream@@@Z @ 76 NONAME ; void CPresenceInfoFilterImp::InternalizeL(class RReadStream &)
	?InternalizeL@CPresenceInfoImp@@QAEXAAVRReadStream@@@Z @ 77 NONAME ; void CPresenceInfoImp::InternalizeL(class RReadStream &)
	?InternalizeL@CPresenceWatcherInfoImp@@QAEXAAVRReadStream@@@Z @ 78 NONAME ; void CPresenceWatcherInfoImp::InternalizeL(class RReadStream &)
	?InternalizeL@CPresentityGroupInfoImp@@QAEXAAVRReadStream@@@Z @ 79 NONAME ; void CPresentityGroupInfoImp::InternalizeL(class RReadStream &)
	?InternalizeL@CPresentityGroupMemberInfoImp@@QAEXAAVRReadStream@@@Z @ 80 NONAME ; void CPresentityGroupMemberInfoImp::InternalizeL(class RReadStream &)
	?InternalizeL@CServicePresenceInfoImp@@QAEXAAVRReadStream@@@Z @ 81 NONAME ; void CServicePresenceInfoImp::InternalizeL(class RReadStream &)
	?IsGroupMemberUpdatedL@CGroupContentSubscriptionItem@@QBEHAAVCPresentityGroupMemberInfoImp@@@Z @ 82 NONAME ; int CGroupContentSubscriptionItem::IsGroupMemberUpdatedL(class CPresentityGroupMemberInfoImp &) const
	?NewFromStreamLC@CDevicePresenceInfoImp@@SAPAVCXIMPApiDataObjBase@@AAVRReadStream@@@Z @ 83 NONAME ; class CXIMPApiDataObjBase * CDevicePresenceInfoImp::NewFromStreamLC(class RReadStream &)
	?NewFromStreamLC@CPersonPresenceInfoImp@@SAPAVCXIMPApiDataObjBase@@AAVRReadStream@@@Z @ 84 NONAME ; class CXIMPApiDataObjBase * CPersonPresenceInfoImp::NewFromStreamLC(class RReadStream &)
	?NewFromStreamLC@CPresenceBlockInfoImp@@SAPAVCXIMPApiDataObjBase@@AAVRReadStream@@@Z @ 85 NONAME ; class CXIMPApiDataObjBase * CPresenceBlockInfoImp::NewFromStreamLC(class RReadStream &)
	?NewFromStreamLC@CPresenceBuddyInfoImp@@SAPAVCXIMPApiDataObjBase@@AAVRReadStream@@@Z @ 86 NONAME ; class CXIMPApiDataObjBase * CPresenceBuddyInfoImp::NewFromStreamLC(class RReadStream &)
	?NewFromStreamLC@CPresenceBuddyInfoListImp@@SAPAVCXIMPApiDataObjBase@@AAVRReadStream@@@Z @ 87 NONAME ; class CXIMPApiDataObjBase * CPresenceBuddyInfoListImp::NewFromStreamLC(class RReadStream &)
	?NewFromStreamLC@CPresenceGrantRequestInfoImp@@SAPAVCXIMPApiDataObjBase@@AAVRReadStream@@@Z @ 88 NONAME ; class CXIMPApiDataObjBase * CPresenceGrantRequestInfoImp::NewFromStreamLC(class RReadStream &)
	?NewFromStreamLC@CPresenceInfoFieldCollectionImp@@SAPAVCXIMPApiDataObjBase@@AAVRReadStream@@@Z @ 89 NONAME ; class CXIMPApiDataObjBase * CPresenceInfoFieldCollectionImp::NewFromStreamLC(class RReadStream &)
	?NewFromStreamLC@CPresenceInfoFieldImp@@SAPAVCXIMPApiDataObjBase@@AAVRReadStream@@@Z @ 90 NONAME ; class CXIMPApiDataObjBase * CPresenceInfoFieldImp::NewFromStreamLC(class RReadStream &)
	?NewFromStreamLC@CPresenceInfoFieldValueBinaryImp@@SAPAVCXIMPApiDataObjBase@@AAVRReadStream@@@Z @ 91 NONAME ; class CXIMPApiDataObjBase * CPresenceInfoFieldValueBinaryImp::NewFromStreamLC(class RReadStream &)
	?NewFromStreamLC@CPresenceInfoFieldValueEnumImp@@SAPAVCXIMPApiDataObjBase@@AAVRReadStream@@@Z @ 92 NONAME ; class CXIMPApiDataObjBase * CPresenceInfoFieldValueEnumImp::NewFromStreamLC(class RReadStream &)
	?NewFromStreamLC@CPresenceInfoFieldValueTextImp@@SAPAVCXIMPApiDataObjBase@@AAVRReadStream@@@Z @ 93 NONAME ; class CXIMPApiDataObjBase * CPresenceInfoFieldValueTextImp::NewFromStreamLC(class RReadStream &)
	?NewFromStreamLC@CPresenceInfoFilterImp@@SAPAVCXIMPApiDataObjBase@@AAVRReadStream@@@Z @ 94 NONAME ; class CXIMPApiDataObjBase * CPresenceInfoFilterImp::NewFromStreamLC(class RReadStream &)
	?NewFromStreamLC@CPresenceInfoImp@@SAPAVCXIMPApiDataObjBase@@AAVRReadStream@@@Z @ 95 NONAME ; class CXIMPApiDataObjBase * CPresenceInfoImp::NewFromStreamLC(class RReadStream &)
	?NewFromStreamLC@CPresenceWatcherInfoImp@@SAPAVCXIMPApiDataObjBase@@AAVRReadStream@@@Z @ 96 NONAME ; class CXIMPApiDataObjBase * CPresenceWatcherInfoImp::NewFromStreamLC(class RReadStream &)
	?NewFromStreamLC@CPresentityGroupInfoImp@@SAPAVCXIMPApiDataObjBase@@AAVRReadStream@@@Z @ 97 NONAME ; class CXIMPApiDataObjBase * CPresentityGroupInfoImp::NewFromStreamLC(class RReadStream &)
	?NewFromStreamLC@CPresentityGroupMemberInfoImp@@SAPAVCXIMPApiDataObjBase@@AAVRReadStream@@@Z @ 98 NONAME ; class CXIMPApiDataObjBase * CPresentityGroupMemberInfoImp::NewFromStreamLC(class RReadStream &)
	?NewFromStreamLC@CServicePresenceInfoImp@@SAPAVCXIMPApiDataObjBase@@AAVRReadStream@@@Z @ 99 NONAME ; class CXIMPApiDataObjBase * CServicePresenceInfoImp::NewFromStreamLC(class RReadStream &)
	?NewL@COwnPresenceEventImp@@SAPAV1@PAVCXIMPDataSubscriptionStateImp@@@Z @ 100 NONAME ; class COwnPresenceEventImp * COwnPresenceEventImp::NewL(class CXIMPDataSubscriptionStateImp *)
	?NewL@CPresenceApiDataObjFactoryAccessor@@SAPAV1@XZ @ 101 NONAME ; class CPresenceApiDataObjFactoryAccessor * CPresenceApiDataObjFactoryAccessor::NewL(void)
	?NewL@CPresenceBlockInfoImp@@SAPAV1@XZ @ 102 NONAME ; class CPresenceBlockInfoImp * CPresenceBlockInfoImp::NewL(void)
	?NewL@CPresenceBuddyInfoImp@@SAPAV1@XZ @ 103 NONAME ; class CPresenceBuddyInfoImp * CPresenceBuddyInfoImp::NewL(void)
	?NewL@CPresenceBuddyInfoListImp@@SAPAV1@ABVTDesC16@@@Z @ 104 NONAME ; class CPresenceBuddyInfoListImp * CPresenceBuddyInfoListImp::NewL(class TDesC16 const &)
	?NewL@CPresenceDataCache@@SAPAV1@AAVMXIMPHost@@@Z @ 105 NONAME ; class CPresenceDataCache * CPresenceDataCache::NewL(class MXIMPHost &)
	?NewL@CPresenceFilterStore@@SAPAV1@XZ @ 106 NONAME ; class CPresenceFilterStore * CPresenceFilterStore::NewL(void)
	?NewL@CPresenceGrantRequestInfoImp@@SAPAV1@XZ @ 107 NONAME ; class CPresenceGrantRequestInfoImp * CPresenceGrantRequestInfoImp::NewL(void)
	?NewL@CPresenceInfoFilterImp@@SAPAV1@XZ @ 108 NONAME ; class CPresenceInfoFilterImp * CPresenceInfoFilterImp::NewL(void)
	?NewL@CPresenceInfoImp@@SAPAV1@XZ @ 109 NONAME ; class CPresenceInfoImp * CPresenceInfoImp::NewL(void)
	?NewL@CPresenceObjectFactoryImp@@SAPAV1@XZ @ 110 NONAME ; class CPresenceObjectFactoryImp * CPresenceObjectFactoryImp::NewL(void)
	?NewL@CPresenceWatcherInfoImp@@SAPAV1@XZ @ 111 NONAME ; class CPresenceWatcherInfoImp * CPresenceWatcherInfoImp::NewL(void)
	?NewL@CPresentityGroupContentEventImp@@SAPAV1@AAVCXIMPIdentityImp@@PAV?$RXIMPObjOwningPtrArray@VCPresentityGroupMemberInfoImp@@@@111PAVCXIMPDataSubscriptionStateImp@@@Z @ 112 NONAME ; class CPresentityGroupContentEventImp * CPresentityGroupContentEventImp::NewL(class CXIMPIdentityImp &, class RXIMPObjOwningPtrArray<class CPresentityGroupMemberInfoImp> *, class RXIMPObjOwningPtrArray<class CPresentityGroupMemberInfoImp> *, class RXIMPObjOwningPtrArray<class CPresentityGroupMemberInfoImp> *, class RXIMPObjOwningPtrArray<class CPresentityGroupMemberInfoImp> *, class CXIMPDataSubscriptionStateImp *)
	?NewL@CPresentityGroupInfoImp@@SAPAV1@XZ @ 113 NONAME ; class CPresentityGroupInfoImp * CPresentityGroupInfoImp::NewL(void)
	?NewL@CPresentityGroupListEventImp@@SAPAV1@PAV?$RXIMPObjOwningPtrArray@VCPresentityGroupInfoImp@@@@000PAVCXIMPDataSubscriptionStateImp@@@Z @ 114 NONAME ; class CPresentityGroupListEventImp * CPresentityGroupListEventImp::NewL(class RXIMPObjOwningPtrArray<class CPresentityGroupInfoImp> *, class RXIMPObjOwningPtrArray<class CPresentityGroupInfoImp> *, class RXIMPObjOwningPtrArray<class CPresentityGroupInfoImp> *, class RXIMPObjOwningPtrArray<class CPresentityGroupInfoImp> *, class CXIMPDataSubscriptionStateImp *)
	?NewL@CPresentityGroupMemberInfoImp@@SAPAV1@XZ @ 115 NONAME ; class CPresentityGroupMemberInfoImp * CPresentityGroupMemberInfoImp::NewL(void)
	?NewL@CPresentityPresenceEventImp@@SAPAV1@PAVCXIMPDataSubscriptionStateImp@@@Z @ 116 NONAME ; class CPresentityPresenceEventImp * CPresentityPresenceEventImp::NewL(class CXIMPDataSubscriptionStateImp *)
	?NewLC@CDevicePresenceInfoImp@@SAPAV1@XZ @ 117 NONAME ; class CDevicePresenceInfoImp * CDevicePresenceInfoImp::NewLC(void)
	?NewLC@COwnPresenceEventImp@@SAPAV1@PAVCXIMPDataSubscriptionStateImp@@@Z @ 118 NONAME ; class COwnPresenceEventImp * COwnPresenceEventImp::NewLC(class CXIMPDataSubscriptionStateImp *)
	?NewLC@CPersonPresenceInfoImp@@SAPAV1@XZ @ 119 NONAME ; class CPersonPresenceInfoImp * CPersonPresenceInfoImp::NewLC(void)
	?NewLC@CPresenceBlockInfoImp@@SAPAV1@ABVMXIMPIdentity@@ABVTDesC16@@@Z @ 120 NONAME ; class CPresenceBlockInfoImp * CPresenceBlockInfoImp::NewLC(class MXIMPIdentity const &, class TDesC16 const &)
	?NewLC@CPresenceBlockInfoImp@@SAPAV1@XZ @ 121 NONAME ; class CPresenceBlockInfoImp * CPresenceBlockInfoImp::NewLC(void)
	?NewLC@CPresenceBlockListEventImp@@SAPAV1@PAV?$RXIMPObjOwningPtrArray@VCPresenceBlockInfoImp@@@@000PAVCXIMPDataSubscriptionStateImp@@@Z @ 122 NONAME ; class CPresenceBlockListEventImp * CPresenceBlockListEventImp::NewLC(class RXIMPObjOwningPtrArray<class CPresenceBlockInfoImp> *, class RXIMPObjOwningPtrArray<class CPresenceBlockInfoImp> *, class RXIMPObjOwningPtrArray<class CPresenceBlockInfoImp> *, class RXIMPObjOwningPtrArray<class CPresenceBlockInfoImp> *, class CXIMPDataSubscriptionStateImp *)
	?NewLC@CPresenceBuddyInfoImp@@SAPAV1@XZ @ 123 NONAME ; class CPresenceBuddyInfoImp * CPresenceBuddyInfoImp::NewLC(void)
	?NewLC@CPresenceBuddyInfoListImp@@SAPAV1@ABVTDesC16@@@Z @ 124 NONAME ; class CPresenceBuddyInfoListImp * CPresenceBuddyInfoListImp::NewLC(class TDesC16 const &)
	?NewLC@CPresenceGrantRequestInfoImp@@SAPAV1@ABVMXIMPIdentity@@ABVTDesC16@@@Z @ 125 NONAME ; class CPresenceGrantRequestInfoImp * CPresenceGrantRequestInfoImp::NewLC(class MXIMPIdentity const &, class TDesC16 const &)
	?NewLC@CPresenceGrantRequestInfoImp@@SAPAV1@XZ @ 126 NONAME ; class CPresenceGrantRequestInfoImp * CPresenceGrantRequestInfoImp::NewLC(void)
	?NewLC@CPresenceGrantRequestListEventImp@@SAPAV1@PAV?$RXIMPObjOwningPtrArray@VCPresenceGrantRequestInfoImp@@@@00PAVCXIMPDataSubscriptionStateImp@@@Z @ 127 NONAME ; class CPresenceGrantRequestListEventImp * CPresenceGrantRequestListEventImp::NewLC(class RXIMPObjOwningPtrArray<class CPresenceGrantRequestInfoImp> *, class RXIMPObjOwningPtrArray<class CPresenceGrantRequestInfoImp> *, class RXIMPObjOwningPtrArray<class CPresenceGrantRequestInfoImp> *, class CXIMPDataSubscriptionStateImp *)
	?NewLC@CPresenceInfoFieldCollectionImp@@SAPAV1@XZ @ 128 NONAME ; class CPresenceInfoFieldCollectionImp * CPresenceInfoFieldCollectionImp::NewLC(void)
	?NewLC@CPresenceInfoFieldImp@@SAPAV1@ABVTDesC8@@PAVCXIMPApiDataObjBase@@@Z @ 129 NONAME ; class CPresenceInfoFieldImp * CPresenceInfoFieldImp::NewLC(class TDesC8 const &, class CXIMPApiDataObjBase *)
	?NewLC@CPresenceInfoFieldImp@@SAPAV1@XZ @ 130 NONAME ; class CPresenceInfoFieldImp * CPresenceInfoFieldImp::NewLC(void)
	?NewLC@CPresenceInfoFieldValueBinaryImp@@SAPAV1@H@Z @ 131 NONAME ; class CPresenceInfoFieldValueBinaryImp * CPresenceInfoFieldValueBinaryImp::NewLC(int)
	?NewLC@CPresenceInfoFieldValueEnumImp@@SAPAV1@XZ @ 132 NONAME ; class CPresenceInfoFieldValueEnumImp * CPresenceInfoFieldValueEnumImp::NewLC(void)
	?NewLC@CPresenceInfoFieldValueTextImp@@SAPAV1@H@Z @ 133 NONAME ; class CPresenceInfoFieldValueTextImp * CPresenceInfoFieldValueTextImp::NewLC(int)
	?NewLC@CPresenceInfoFilterImp@@SAPAV1@XZ @ 134 NONAME ; class CPresenceInfoFilterImp * CPresenceInfoFilterImp::NewLC(void)
	?NewLC@CPresenceInfoImp@@SAPAV1@XZ @ 135 NONAME ; class CPresenceInfoImp * CPresenceInfoImp::NewLC(void)
	?NewLC@CPresenceWatcherInfoImp@@SAPAV1@W4TWatcherType@MPresenceWatcherInfo@@ABVMXIMPIdentity@@ABVTDesC16@@@Z @ 136 NONAME ; class CPresenceWatcherInfoImp * CPresenceWatcherInfoImp::NewLC(enum MPresenceWatcherInfo::TWatcherType, class MXIMPIdentity const &, class TDesC16 const &)
	?NewLC@CPresenceWatcherInfoImp@@SAPAV1@XZ @ 137 NONAME ; class CPresenceWatcherInfoImp * CPresenceWatcherInfoImp::NewLC(void)
	?NewLC@CPresenceWatcherListEventImp@@SAPAV1@PAV?$RXIMPObjOwningPtrArray@VCPresenceWatcherInfoImp@@@@00PAVCXIMPDataSubscriptionStateImp@@@Z @ 138 NONAME ; class CPresenceWatcherListEventImp * CPresenceWatcherListEventImp::NewLC(class RXIMPObjOwningPtrArray<class CPresenceWatcherInfoImp> *, class RXIMPObjOwningPtrArray<class CPresenceWatcherInfoImp> *, class RXIMPObjOwningPtrArray<class CPresenceWatcherInfoImp> *, class CXIMPDataSubscriptionStateImp *)
	?NewLC@CPresentityGroupContentEventImp@@SAPAV1@AAVCXIMPIdentityImp@@PAV?$RXIMPObjOwningPtrArray@VCPresentityGroupMemberInfoImp@@@@111PAVCXIMPDataSubscriptionStateImp@@@Z @ 139 NONAME ; class CPresentityGroupContentEventImp * CPresentityGroupContentEventImp::NewLC(class CXIMPIdentityImp &, class RXIMPObjOwningPtrArray<class CPresentityGroupMemberInfoImp> *, class RXIMPObjOwningPtrArray<class CPresentityGroupMemberInfoImp> *, class RXIMPObjOwningPtrArray<class CPresentityGroupMemberInfoImp> *, class RXIMPObjOwningPtrArray<class CPresentityGroupMemberInfoImp> *, class CXIMPDataSubscriptionStateImp *)
	?NewLC@CPresentityGroupContentEventImp@@SAPAV1@AAVCXIMPIdentityImp@@PAV?$RXIMPObjOwningPtrArray@VCPresentityGroupMemberInfoImp@@@@11PAVCXIMPDataSubscriptionStateImp@@@Z @ 140 NONAME ; class CPresentityGroupContentEventImp * CPresentityGroupContentEventImp::NewLC(class CXIMPIdentityImp &, class RXIMPObjOwningPtrArray<class CPresentityGroupMemberInfoImp> *, class RXIMPObjOwningPtrArray<class CPresentityGroupMemberInfoImp> *, class RXIMPObjOwningPtrArray<class CPresentityGroupMemberInfoImp> *, class CXIMPDataSubscriptionStateImp *)
	?NewLC@CPresentityGroupInfoImp@@SAPAV1@ABVMXIMPIdentity@@ABVTDesC16@@@Z @ 141 NONAME ; class CPresentityGroupInfoImp * CPresentityGroupInfoImp::NewLC(class MXIMPIdentity const &, class TDesC16 const &)
	?NewLC@CPresentityGroupInfoImp@@SAPAV1@XZ @ 142 NONAME ; class CPresentityGroupInfoImp * CPresentityGroupInfoImp::NewLC(void)
	?NewLC@CPresentityGroupListEventImp@@SAPAV1@PAV?$RXIMPObjOwningPtrArray@VCPresentityGroupInfoImp@@@@000PAVCXIMPDataSubscriptionStateImp@@@Z @ 143 NONAME ; class CPresentityGroupListEventImp * CPresentityGroupListEventImp::NewLC(class RXIMPObjOwningPtrArray<class CPresentityGroupInfoImp> *, class RXIMPObjOwningPtrArray<class CPresentityGroupInfoImp> *, class RXIMPObjOwningPtrArray<class CPresentityGroupInfoImp> *, class RXIMPObjOwningPtrArray<class CPresentityGroupInfoImp> *, class CXIMPDataSubscriptionStateImp *)
	?NewLC@CPresentityGroupListEventImp@@SAPAV1@PAV?$RXIMPObjOwningPtrArray@VCPresentityGroupInfoImp@@@@00PAVCXIMPDataSubscriptionStateImp@@@Z @ 144 NONAME ; class CPresentityGroupListEventImp * CPresentityGroupListEventImp::NewLC(class RXIMPObjOwningPtrArray<class CPresentityGroupInfoImp> *, class RXIMPObjOwningPtrArray<class CPresentityGroupInfoImp> *, class RXIMPObjOwningPtrArray<class CPresentityGroupInfoImp> *, class CXIMPDataSubscriptionStateImp *)
	?NewLC@CPresentityGroupMemberInfoImp@@SAPAV1@ABVMXIMPIdentity@@ABVTDesC16@@@Z @ 145 NONAME ; class CPresentityGroupMemberInfoImp * CPresentityGroupMemberInfoImp::NewLC(class MXIMPIdentity const &, class TDesC16 const &)
	?NewLC@CPresentityGroupMemberInfoImp@@SAPAV1@XZ @ 146 NONAME ; class CPresentityGroupMemberInfoImp * CPresentityGroupMemberInfoImp::NewLC(void)
	?NewLC@CPresentityPresenceEventImp@@SAPAV1@PAVCXIMPDataSubscriptionStateImp@@@Z @ 147 NONAME ; class CPresentityPresenceEventImp * CPresentityPresenceEventImp::NewLC(class CXIMPDataSubscriptionStateImp *)
	?NewLC@CServicePresenceInfoImp@@SAPAV1@XZ @ 148 NONAME ; class CServicePresenceInfoImp * CServicePresenceInfoImp::NewLC(void)
	?Order@CGroupContentSubscriptionItem@@SAHABV1@0@Z @ 149 NONAME ; int CGroupContentSubscriptionItem::Order(class CGroupContentSubscriptionItem const &, class CGroupContentSubscriptionItem const &)
	?Order@CGroupMembersPresenceConfigurationItem@@SAHABV1@0@Z @ 150 NONAME ; int CGroupMembersPresenceConfigurationItem::Order(class CGroupMembersPresenceConfigurationItem const &, class CGroupMembersPresenceConfigurationItem const &)
	?Order@CPresenceConfigurationItem@@SAHABV1@0@Z @ 151 NONAME ; int CPresenceConfigurationItem::Order(class CPresenceConfigurationItem const &, class CPresenceConfigurationItem const &)
	?Order@CPresentityGroupMembersPresenceSubscriptionItem@@SAHABV1@0@Z @ 152 NONAME ; int CPresentityGroupMembersPresenceSubscriptionItem::Order(class CPresentityGroupMembersPresenceSubscriptionItem const &, class CPresentityGroupMembersPresenceSubscriptionItem const &)
	?Order@CPresentityPresenceSubscriptionItem@@SAHABV1@0@Z @ 153 NONAME ; int CPresentityPresenceSubscriptionItem::Order(class CPresentityPresenceSubscriptionItem const &, class CPresentityPresenceSubscriptionItem const &)
	?OwnPresenceDataSubscriptionState@CPresenceDataCache@@QBEABVMXIMPDataSubscriptionState@@XZ @ 154 NONAME ; class MXIMPDataSubscriptionState const & CPresenceDataCache::OwnPresenceDataSubscriptionState(void) const
	?OwnPresenceSubscriptionItemLC@CPresenceDataCache@@QAEAAVCOwnPresenceSubscriptionItem@@XZ @ 155 NONAME ; class COwnPresenceSubscriptionItem & CPresenceDataCache::OwnPresenceSubscriptionItemLC(void)
	?PresenceBlockDataSubscriptionState@CPresenceDataCache@@QBEABVMXIMPDataSubscriptionState@@XZ @ 156 NONAME ; class MXIMPDataSubscriptionState const & CPresenceDataCache::PresenceBlockDataSubscriptionState(void) const
	?PresenceConfigurationItemLC@CPresenceDataCache@@QAEAAVCPresenceConfigurationItem@@ABVCXIMPIdentityImp@@@Z @ 157 NONAME ; class CPresenceConfigurationItem & CPresenceDataCache::PresenceConfigurationItemLC(class CXIMPIdentityImp const &)
	?PresenceGrantRequestDataSubscriptionState@CPresenceDataCache@@QBEABVMXIMPDataSubscriptionState@@XZ @ 158 NONAME ; class MXIMPDataSubscriptionState const & CPresenceDataCache::PresenceGrantRequestDataSubscriptionState(void) const
	?PresenceToEveryoneConfigurationItemLC@CPresenceDataCache@@QAEAAVCPresenceToEveryoneConfigurationItem@@XZ @ 159 NONAME ; class CPresenceToEveryoneConfigurationItem & CPresenceDataCache::PresenceToEveryoneConfigurationItemLC(void)
	?PresenceWatcherListDataSubscriptionState@CPresenceDataCache@@QBEABVMXIMPDataSubscriptionState@@XZ @ 160 NONAME ; class MXIMPDataSubscriptionState const & CPresenceDataCache::PresenceWatcherListDataSubscriptionState(void) const
	?PresentityGroupContentDataSubscriptionState@CPresenceDataCache@@QBEABVMXIMPDataSubscriptionState@@ABVMXIMPIdentity@@@Z @ 161 NONAME ; class MXIMPDataSubscriptionState const & CPresenceDataCache::PresentityGroupContentDataSubscriptionState(class MXIMPIdentity const &) const
	?PresentityGroupListDataSubscriptionState@CPresenceDataCache@@QBEABVMXIMPDataSubscriptionState@@XZ @ 162 NONAME ; class MXIMPDataSubscriptionState const & CPresenceDataCache::PresentityGroupListDataSubscriptionState(void) const
	?PresentityGroupMembersPresenceSubscriptionItemLC@CPresenceDataCache@@QAEAAVCPresentityGroupMembersPresenceSubscriptionItem@@ABVCXIMPIdentityImp@@@Z @ 163 NONAME ; class CPresentityGroupMembersPresenceSubscriptionItem & CPresenceDataCache::PresentityGroupMembersPresenceSubscriptionItemLC(class CXIMPIdentityImp const &)
	?PresentityPresenceDataSubscriptionState@CPresenceDataCache@@QBEABVMXIMPDataSubscriptionState@@ABVMXIMPIdentity@@@Z @ 164 NONAME ; class MXIMPDataSubscriptionState const & CPresenceDataCache::PresentityPresenceDataSubscriptionState(class MXIMPIdentity const &) const
	?PresentityPresenceSubscriptionItemLC@CPresenceDataCache@@QAEAAVCPresentityPresenceSubscriptionItem@@ABVCXIMPIdentityImp@@@Z @ 165 NONAME ; class CPresentityPresenceSubscriptionItem & CPresenceDataCache::PresentityPresenceSubscriptionItemLC(class CXIMPIdentityImp const &)
	?RemoveConfigurator@CGroupMembersPresenceConfigurationItem@@QAEXPAVMXIMPPscContext@@@Z @ 166 NONAME ; void CGroupMembersPresenceConfigurationItem::RemoveConfigurator(class MXIMPPscContext *)
	?RemoveMe@?$@VCBlockListSubscriptionItem@@@CPresenceDataCache@@CAXAAPAV1@PAV1@@Z @ 167 NONAME ; void CPresenceDataCache::RemoveMe<class CBlockListSubscriptionItem>(class CBlockListSubscriptionItem * &, class CBlockListSubscriptionItem *)
	?RemoveMe@?$@VCGrantRequestListSubscriptionItem@@@CPresenceDataCache@@CAXAAPAV1@PAV1@@Z @ 168 NONAME ; void CPresenceDataCache::RemoveMe<class CGrantRequestListSubscriptionItem>(class CGrantRequestListSubscriptionItem * &, class CGrantRequestListSubscriptionItem *)
	?RemoveMe@?$@VCGroupListSubscriptionItem@@@CPresenceDataCache@@CAXAAPAV1@PAV1@@Z @ 169 NONAME ; void CPresenceDataCache::RemoveMe<class CGroupListSubscriptionItem>(class CGroupListSubscriptionItem * &, class CGroupListSubscriptionItem *)
	?RemoveMe@?$@VCOwnPresenceSubscriptionItem@@@CPresenceDataCache@@CAXAAPAV1@PAV1@@Z @ 170 NONAME ; void CPresenceDataCache::RemoveMe<class COwnPresenceSubscriptionItem>(class COwnPresenceSubscriptionItem * &, class COwnPresenceSubscriptionItem *)
	?RemoveMe@?$@VCPresenceToEveryoneConfigurationItem@@@CPresenceDataCache@@CAXAAPAV1@PAV1@@Z @ 171 NONAME ; void CPresenceDataCache::RemoveMe<class CPresenceToEveryoneConfigurationItem>(class CPresenceToEveryoneConfigurationItem * &, class CPresenceToEveryoneConfigurationItem *)
	?RemoveMe@?$@VCWatcherListSubscriptionItem@@@CPresenceDataCache@@CAXAAPAV1@PAV1@@Z @ 172 NONAME ; void CPresenceDataCache::RemoveMe<class CWatcherListSubscriptionItem>(class CWatcherListSubscriptionItem * &, class CWatcherListSubscriptionItem *)
	?RemoveSubscriber@CPresentityGroupMembersPresenceSubscriptionItem@@QAEXPAVMXIMPPscContext@@@Z @ 173 NONAME ; void CPresentityGroupMembersPresenceSubscriptionItem::RemoveSubscriber(class MXIMPPscContext *)
	?SetAddedListL@CGroupContentSubscriptionItem@@QAEXPAV?$RXIMPObjOwningPtrArray@VCPresentityGroupMemberInfoImp@@@@@Z @ 174 NONAME ; void CGroupContentSubscriptionItem::SetAddedListL(class RXIMPObjOwningPtrArray<class CPresentityGroupMemberInfoImp> *)
	?SetBlockedL@CBlockListSubscriptionItem@@QAEXPAVCPresenceBlockInfoImp@@@Z @ 175 NONAME ; void CBlockListSubscriptionItem::SetBlockedL(class CPresenceBlockInfoImp *)
	?SetCanceledBlockIdL@CBlockListSubscriptionItem@@QAEXPAVCXIMPIdentityImp@@@Z @ 176 NONAME ; void CBlockListSubscriptionItem::SetCanceledBlockIdL(class CXIMPIdentityImp *)
	?SetConfigurationPif@CGroupMembersPresenceConfigurationItem@@QAEXPAVCPresenceInfoFilterImp@@@Z @ 177 NONAME ; void CGroupMembersPresenceConfigurationItem::SetConfigurationPif(class CPresenceInfoFilterImp *)
	?SetConfigurationPif@CPresenceConfigurationItem@@QAEXPAVCPresenceInfoFilterImp@@@Z @ 178 NONAME ; void CPresenceConfigurationItem::SetConfigurationPif(class CPresenceInfoFilterImp *)
	?SetConfigurationPif@CPresenceToEveryoneConfigurationItem@@QAEXPAVCPresenceInfoFilterImp@@@Z @ 179 NONAME ; void CPresenceToEveryoneConfigurationItem::SetConfigurationPif(class CPresenceInfoFilterImp *)
	?SetCreatedListL@CGroupListSubscriptionItem@@QAEXPAV?$RXIMPObjOwningPtrArray@VCPresentityGroupInfoImp@@@@@Z @ 180 NONAME ; void CGroupListSubscriptionItem::SetCreatedListL(class RXIMPObjOwningPtrArray<class CPresentityGroupInfoImp> *)
	?SetDeletedListL@CGroupListSubscriptionItem@@QAEXPAV?$RXIMPObjOwningPtrArray@VCPresentityGroupInfoImp@@@@@Z @ 181 NONAME ; void CGroupListSubscriptionItem::SetDeletedListL(class RXIMPObjOwningPtrArray<class CPresentityGroupInfoImp> *)
	?SetDisplayName@CPresenceBlockInfoImp@@QAEXPAVHBufC16@@@Z @ 182 NONAME ; void CPresenceBlockInfoImp::SetDisplayName(class HBufC16 *)
	?SetDisplayName@CPresenceGrantRequestInfoImp@@QAEXPAVHBufC16@@@Z @ 183 NONAME ; void CPresenceGrantRequestInfoImp::SetDisplayName(class HBufC16 *)
	?SetDisplayName@CPresenceWatcherInfoImp@@QAEXPAVHBufC16@@@Z @ 184 NONAME ; void CPresenceWatcherInfoImp::SetDisplayName(class HBufC16 *)
	?SetGroupIdentity@CPresentityPresenceSubscriptionItem@@QAEXPAVCXIMPIdentityImp@@@Z @ 185 NONAME ; void CPresentityPresenceSubscriptionItem::SetGroupIdentity(class CXIMPIdentityImp *)
	?SetIdentity@CGroupMembersPresenceConfigurationItem@@QAEXPAVCXIMPIdentityImp@@@Z @ 186 NONAME ; void CGroupMembersPresenceConfigurationItem::SetIdentity(class CXIMPIdentityImp *)
	?SetIdentity@CPresenceBlockInfoImp@@QAEXPAVCXIMPIdentityImp@@@Z @ 187 NONAME ; void CPresenceBlockInfoImp::SetIdentity(class CXIMPIdentityImp *)
	?SetIdentity@CPresenceConfigurationItem@@QAEXPAVCXIMPIdentityImp@@@Z @ 188 NONAME ; void CPresenceConfigurationItem::SetIdentity(class CXIMPIdentityImp *)
	?SetIdentity@CPresenceGrantRequestInfoImp@@QAEXPAVCXIMPIdentityImp@@@Z @ 189 NONAME ; void CPresenceGrantRequestInfoImp::SetIdentity(class CXIMPIdentityImp *)
	?SetIdentity@CPresenceWatcherInfoImp@@QAEXPAVCXIMPIdentityImp@@@Z @ 190 NONAME ; void CPresenceWatcherInfoImp::SetIdentity(class CXIMPIdentityImp *)
	?SetIdentity@CPresentityGroupMembersPresenceSubscriptionItem@@QAEXPAVCXIMPIdentityImp@@@Z @ 191 NONAME ; void CPresentityGroupMembersPresenceSubscriptionItem::SetIdentity(class CXIMPIdentityImp *)
	?SetIdentity@CPresentityPresenceSubscriptionItem@@QAEXPAVCXIMPIdentityImp@@@Z @ 192 NONAME ; void CPresentityPresenceSubscriptionItem::SetIdentity(class CXIMPIdentityImp *)
	?SetNewListL@CBlockListSubscriptionItem@@QAEXPAV?$RXIMPObjOwningPtrArray@VCPresenceBlockInfoImp@@@@@Z @ 193 NONAME ; void CBlockListSubscriptionItem::SetNewListL(class RXIMPObjOwningPtrArray<class CPresenceBlockInfoImp> *)
	?SetNewListL@CGrantRequestListSubscriptionItem@@QAEXPAV?$RXIMPObjOwningPtrArray@VCPresenceGrantRequestInfoImp@@@@@Z @ 194 NONAME ; void CGrantRequestListSubscriptionItem::SetNewListL(class RXIMPObjOwningPtrArray<class CPresenceGrantRequestInfoImp> *)
	?SetNewListL@CGroupContentSubscriptionItem@@QAEXPAV?$RXIMPObjOwningPtrArray@VCPresentityGroupMemberInfoImp@@@@@Z @ 195 NONAME ; void CGroupContentSubscriptionItem::SetNewListL(class RXIMPObjOwningPtrArray<class CPresentityGroupMemberInfoImp> *)
	?SetNewListL@CGroupListSubscriptionItem@@QAEXPAV?$RXIMPObjOwningPtrArray@VCPresentityGroupInfoImp@@@@@Z @ 196 NONAME ; void CGroupListSubscriptionItem::SetNewListL(class RXIMPObjOwningPtrArray<class CPresentityGroupInfoImp> *)
	?SetNewListL@CWatcherListSubscriptionItem@@QAEXPAV?$RXIMPObjOwningPtrArray@VCPresenceWatcherInfoImp@@@@@Z @ 197 NONAME ; void CWatcherListSubscriptionItem::SetNewListL(class RXIMPObjOwningPtrArray<class CPresenceWatcherInfoImp> *)
	?SetObsoletedRequestL@CGrantRequestListSubscriptionItem@@QAEXPAVCXIMPIdentityImp@@@Z @ 198 NONAME ; void CGrantRequestListSubscriptionItem::SetObsoletedRequestL(class CXIMPIdentityImp *)
	?SetOwnObjects@CPresenceBuddyInfoListImp@@QAEXH@Z @ 199 NONAME ; void CPresenceBuddyInfoListImp::SetOwnObjects(int)
	?SetPresenceInfoL@COwnPresenceSubscriptionItem@@QAEXPAVCPresenceInfoImp@@@Z @ 200 NONAME ; void COwnPresenceSubscriptionItem::SetPresenceInfoL(class CPresenceInfoImp *)
	?SetPresenceInfoL@CPresentityGroupMembersPresenceSubscriptionItem@@QAEXPAVCPresenceInfoImp@@@Z @ 201 NONAME ; void CPresentityGroupMembersPresenceSubscriptionItem::SetPresenceInfoL(class CPresenceInfoImp *)
	?SetPresenceInfoL@CPresentityPresenceSubscriptionItem@@QAEXPAVCPresenceInfoImp@@@Z @ 202 NONAME ; void CPresentityPresenceSubscriptionItem::SetPresenceInfoL(class CPresenceInfoImp *)
	?SetReceivedRequestL@CGrantRequestListSubscriptionItem@@QAEXPAVCPresenceGrantRequestInfoImp@@@Z @ 203 NONAME ; void CGrantRequestListSubscriptionItem::SetReceivedRequestL(class CPresenceGrantRequestInfoImp *)
	?SetRemovedListL@CGroupContentSubscriptionItem@@QAEXPAV?$RXIMPObjOwningPtrArray@VCPresentityGroupMemberInfoImp@@@@@Z @ 204 NONAME ; void CGroupContentSubscriptionItem::SetRemovedListL(class RXIMPObjOwningPtrArray<class CPresentityGroupMemberInfoImp> *)
	?SetSubscriptionPif@COwnPresenceSubscriptionItem@@QAEXPAVCPresenceInfoFilterImp@@@Z @ 205 NONAME ; void COwnPresenceSubscriptionItem::SetSubscriptionPif(class CPresenceInfoFilterImp *)
	?SetSubscriptionPif@CPresentityGroupMembersPresenceSubscriptionItem@@QAEXPAVCPresenceInfoFilterImp@@@Z @ 206 NONAME ; void CPresentityGroupMembersPresenceSubscriptionItem::SetSubscriptionPif(class CPresenceInfoFilterImp *)
	?SetSubscriptionPif@CPresentityPresenceSubscriptionItem@@QAEXPAVCPresenceInfoFilterImp@@@Z @ 207 NONAME ; void CPresentityPresenceSubscriptionItem::SetSubscriptionPif(class CPresenceInfoFilterImp *)
	?SubscriptionPif@COwnPresenceSubscriptionItem@@QAEAAVCPresenceInfoFilterImp@@XZ @ 208 NONAME ; class CPresenceInfoFilterImp & COwnPresenceSubscriptionItem::SubscriptionPif(void)
	?SubscriptionPif@CPresentityGroupMembersPresenceSubscriptionItem@@QAEAAVCPresenceInfoFilterImp@@XZ @ 209 NONAME ; class CPresenceInfoFilterImp & CPresentityGroupMembersPresenceSubscriptionItem::SubscriptionPif(void)
	?SubscriptionPif@CPresentityPresenceSubscriptionItem@@QAEAAVCPresenceInfoFilterImp@@XZ @ 210 NONAME ; class CPresenceInfoFilterImp & CPresentityPresenceSubscriptionItem::SubscriptionPif(void)
	?UnionL@CPresenceInfoFilterImp@@SAPAV1@AAV1@0@Z @ 211 NONAME ; class CPresenceInfoFilterImp * CPresenceInfoFilterImp::UnionL(class CPresenceInfoFilterImp &, class CPresenceInfoFilterImp &)
	?WatcherListSubscriptionItemLC@CPresenceDataCache@@QAEAAVCWatcherListSubscriptionItem@@XZ @ 212 NONAME ; class CWatcherListSubscriptionItem & CPresenceDataCache::WatcherListSubscriptionItemLC(void)

