EXPORTS ??0TPrintParameters@@QAE@XZ @1 NONAME
EXPORTS ??1CHeaderFooter@@UAE@XZ @2 NONAME
EXPORTS ??1CPrintSetup@@UAE@XZ @3 NONAME
EXPORTS ?AddPrinterDriverDirL@CPrintSetup@@QAEXABVTDesC16@@@Z @4 NONAME
EXPORTS ?CharFormat@CHeaderFooter@@QBEPAVCCharFormatLayer@@XZ @5 NONAME
EXPORTS ?CreatePrinterDeviceL@CPrintSetup@@QAEXH@Z @6 NONAME
EXPORTS ?CreatePrinterDeviceL@CPrintSetup@@QAEXVTUid@@AAVRFs@@@Z @7 NONAME
EXPORTS ?CreatePrinterDriverUIL@CPrintSetup@@QAEPAVCPrinterDriverUI@@XZ @8 NONAME
EXPORTS ?CreateTextL@CHeaderFooter@@QAEXXZ @9 NONAME
EXPORTS ?EndPrint@CPrintSetup@@QAEXXZ @10 NONAME
EXPORTS ?ExternalizeL@CHeaderFooter@@QBEXAAVRWriteStream@@@Z @11 NONAME
EXPORTS ?ExternalizeL@CPrintSetup@@QBEXAAVRWriteStream@@@Z @12 NONAME
EXPORTS ?ExternalizeL@TPageMargins@@QBEXAAVRWriteStream@@@Z @13 NONAME
EXPORTS ?FreeModelList@CPrintSetup@@QAEXXZ @14 NONAME
EXPORTS ?InternalizeL@CHeaderFooter@@QAEXAAVRReadStream@@@Z @15 NONAME
EXPORTS ?InternalizeL@CPrintSetup@@QAEXAAVRReadStream@@@Z @16 NONAME
EXPORTS ?InternalizeL@TPageMargins@@QAEXAAVRReadStream@@@Z @17 NONAME
EXPORTS ?ModelNameListL@CPrintSetup@@QAEPAVCPrinterModelList@@AAVRFs@@@Z @18 NONAME
EXPORTS ?NewL@CHeaderFooter@@SAPAV1@XZ @19 NONAME
EXPORTS ?NewL@CPrintSetup@@SAPAV1@XZ @20 NONAME
EXPORTS ?ParaFormat@CHeaderFooter@@QBEPAVCParaFormatLayer@@XZ @21 NONAME
EXPORTS ?PrinterDevice@CPrintSetup@@QBEPAVCPrinterDevice@@XZ @22 NONAME
EXPORTS ?RestoreComponentsL@CHeaderFooter@@QAEXABVCStreamStore@@PAVMPictureFactory@@@Z @23 NONAME
EXPORTS ?RestoreComponentsL@CPrintSetup@@QAEXABVCStreamStore@@PBVMFieldFileNameInfo@@PBVMFieldNumPagesInfo@@PAVMPictureFactory@@@Z @24 NONAME
EXPORTS ?RestoreL@CHeaderFooter@@QAEXABVCStreamStore@@VTStreamId@@PAVMPictureFactory@@@Z @25 NONAME
EXPORTS ?RestoreL@CPrintSetup@@QAEXABVCStreamStore@@VTStreamId@@PBVMFieldFileNameInfo@@PBVMFieldNumPagesInfo@@PAVMPictureFactory@@@Z @26 NONAME
EXPORTS ?SetCharFormat@CHeaderFooter@@QAEXPAVCCharFormatLayer@@@Z @27 NONAME
EXPORTS ?SetFileNameInfo@CHeaderFooter@@QAEXABVMFieldFileNameInfo@@@Z @28 NONAME
EXPORTS ?SetFirstPageToPrintTo@CHeaderFooter@@QAEXH@Z @29 NONAME
EXPORTS ?SetNumPagesInfo@CHeaderFooter@@QAEXABVMFieldNumPagesInfo@@@Z @30 NONAME
EXPORTS ?SetParaFormat@CHeaderFooter@@QAEXPAVCParaFormatLayer@@@Z @31 NONAME
EXPORTS ?SetText@CHeaderFooter@@QAEXPAVCRichText@@@Z @32 NONAME
EXPORTS ?StartPreviewPrintL@CPrintSetup@@QAEHABVTPrintParameters@@AAVMPageRegionPrinter@@PAVMPrintProcessObserver@@AAVCGraphicsDevice@@ABVTRect@@4H@Z @33 NONAME
EXPORTS ?StartPrintL@CPrintSetup@@QAEHABVTPrintParameters@@AAVMPageRegionPrinter@@PAVCPrinterPort@@PAVMPrintProcessObserver@@@Z @34 NONAME
EXPORTS ?StoreComponentsL@CHeaderFooter@@QBEXAAVCStreamStore@@AAVCStoreMap@@@Z @35 NONAME
EXPORTS ?StoreComponentsL@CPrintSetup@@QBEXAAVCStreamStore@@AAVCStoreMap@@@Z @36 NONAME
EXPORTS ?StoreL@CHeaderFooter@@QBE?AVTStreamId@@AAVCStreamStore@@@Z @37 NONAME
EXPORTS ?StoreL@CPrintSetup@@QBE?AVTStreamId@@AAVCStreamStore@@@Z @38 NONAME
EXPORTS ?Text@CHeaderFooter@@QBEPAVCRichText@@XZ @39 NONAME
