EXPORTS
	??0CBlankWindow@@QAE@VTRgb@@@Z @ 1 NONAME ; CBlankWindow::CBlankWindow(class TRgb)
	??0CBlankWindow@@QAE@XZ @ 2 NONAME ; CBlankWindow::CBlankWindow(void)
	??0CEventWindow@@QAE@H@Z @ 3 NONAME ; CEventWindow::CEventWindow(int)
	??0CInfoDialog@@QAE@PAVCTWindowGroup@@PAVCWindowGc@@@Z @ 4 NONAME ; CInfoDialog::CInfoDialog(class CTWindowGroup *, class CWindowGc *)
	??0CTBackedUpWin@@QAE@W4TDisplayMode@@@Z @ 5 NONAME ; CTBackedUpWin::CTBackedUpWin(enum TDisplayMode)
	??0CTBaseWin@@QAE@H@Z @ 6 NONAME ; CTBaseWin::CTBaseWin(int)
	??0CTBlankWindow@@QAE@XZ @ 7 NONAME ; CTBlankWindow::CTBlankWindow(void)
	??0CTClient@@QAE@XZ @ 8 NONAME ; CTClient::CTClient(void)
	??0CTDialog@@QAE@XZ @ 9 NONAME ; CTDialog::CTDialog(void)
	??0CTDrawableWin@@QAE@H@Z @ 10 NONAME ; CTDrawableWin::CTDrawableWin(int)
	??0CTEvent@@QAE@PAVRWsSession@@@Z @ 11 NONAME ; CTEvent::CTEvent(class RWsSession *)
	??0CTEventBase@@QAE@PAVRWsSession@@H@Z @ 12 NONAME ; CTEventBase::CTEventBase(class RWsSession *, int)
	??0CTPointerCursor@@QAE@AAVRWsSession@@@Z @ 13 NONAME ; CTPointerCursor::CTPointerCursor(class RWsSession &)
	??0CTRedraw@@QAE@PAVRWsSession@@@Z @ 14 NONAME ; CTRedraw::CTRedraw(class RWsSession *)
	??0CTSprite@@QAE@AAVRWsSession@@@Z @ 15 NONAME ; CTSprite::CTSprite(class RWsSession &)
	??0CTTitledWindow@@QAE@XZ @ 16 NONAME ; CTTitledWindow::CTTitledWindow(void)
	??0CTWin@@QAE@XZ @ 17 NONAME ; CTWin::CTWin(void)
	??0CTWinBase@@QAE@H@Z @ 18 NONAME ; CTWinBase::CTWinBase(int)
	??0CTWindowGroup@@QAE@PAVCTClient@@@Z @ 19 NONAME ; CTWindowGroup::CTWindowGroup(class CTClient *)
	??0TSpriteCreateParams@@QAE@VTSize@@VTPoint@@P6AXPAVCBitmapContext@@HABV1@HPAX@Z4HW4TDrawMode@CGraphicsContext@@@Z @ 20 NONAME ; TSpriteCreateParams::TSpriteCreateParams(class TSize, class TPoint, void (*)(class CBitmapContext *, int, class TSize const &, int, void *), void *, int, enum CGraphicsContext::TDrawMode)
	??0TSpriteCreateParams@@QAE@XZ @ 21 NONAME ; TSpriteCreateParams::TSpriteCreateParams(void)
	??1CEventWindow@@UAE@XZ @ 22 NONAME ; CEventWindow::~CEventWindow(void)
	??1CTBackedUpWin@@UAE@XZ @ 23 NONAME ; CTBackedUpWin::~CTBackedUpWin(void)
	??1CTBaseWin@@UAE@XZ @ 24 NONAME ; CTBaseWin::~CTBaseWin(void)
	??1CTBlankWindow@@UAE@XZ @ 25 NONAME ; CTBlankWindow::~CTBlankWindow(void)
	??1CTClient@@UAE@XZ @ 26 NONAME ; CTClient::~CTClient(void)
	??1CTDialog@@UAE@XZ @ 27 NONAME ; CTDialog::~CTDialog(void)
	??1CTEvent@@UAE@XZ @ 28 NONAME ; CTEvent::~CTEvent(void)
	??1CTEventBase@@UAE@XZ @ 29 NONAME ; CTEventBase::~CTEventBase(void)
	??1CTPointerCursor@@UAE@XZ @ 30 NONAME ; CTPointerCursor::~CTPointerCursor(void)
	??1CTRedraw@@UAE@XZ @ 31 NONAME ; CTRedraw::~CTRedraw(void)
	??1CTSprite@@UAE@XZ @ 32 NONAME ; CTSprite::~CTSprite(void)
	??1CTTitledWindow@@UAE@XZ @ 33 NONAME ; CTTitledWindow::~CTTitledWindow(void)
	??1CTWin@@UAE@XZ @ 34 NONAME ; CTWin::~CTWin(void)
	??1CTWindowGroup@@UAE@XZ @ 35 NONAME ; CTWindowGroup::~CTWindowGroup(void)
	?Activate@CTBaseWin@@QAEXXZ @ 36 NONAME ; void CTBaseWin::Activate(void)
	?AdjustOrdinal@CTBaseWin@@UAEXH@Z @ 37 NONAME ; void CTBaseWin::AdjustOrdinal(int)
	?AdjustOrdinal@CTWinBase@@UAEXH@Z @ 38 NONAME ; void CTWinBase::AdjustOrdinal(int)
	?AdjustShadow@CTBaseWin@@UAEXH@Z @ 39 NONAME ; void CTBaseWin::AdjustShadow(int)
	?AdjustShadow@CTWinBase@@UAEXH@Z @ 40 NONAME ; void CTWinBase::AdjustShadow(int)
	?AdjustSize@CTWin@@QAEXHHH@Z @ 41 NONAME ; void CTWin::AdjustSize(int, int, int)
	?AdjustSizeL@CTBaseWin@@UAEXHHH@Z @ 42 NONAME ; void CTBaseWin::AdjustSizeL(int, int, int)
	?AssignGC@CTBaseWin@@UAEXAAVCWindowGc@@@Z @ 43 NONAME ; void CTBaseWin::AssignGC(class CWindowGc &)
	?BackedUpWin@CTBackedUpWin@@QAEPAVRBackedUpWindow@@XZ @ 44 NONAME ; class RBackedUpWindow * CTBackedUpWin::BackedUpWin(void)
	?BackedUpWin@CTBackedUpWin@@QBEPBVRBackedUpWindow@@XZ @ 45 NONAME ; class RBackedUpWindow const * CTBackedUpWin::BackedUpWin(void) const
	?BaseWin@CTBackedUpWin@@UAEPAVRWindowBase@@XZ @ 46 NONAME ; class RWindowBase * CTBackedUpWin::BaseWin(void)
	?BaseWin@CTBackedUpWin@@UBEPBVRWindowBase@@XZ @ 47 NONAME ; class RWindowBase const * CTBackedUpWin::BaseWin(void) const
	?BaseWin@CTBlankWindow@@UAEPAVRWindowBase@@XZ @ 48 NONAME ; class RWindowBase * CTBlankWindow::BaseWin(void)
	?BaseWin@CTBlankWindow@@UBEPBVRWindowBase@@XZ @ 49 NONAME ; class RWindowBase const * CTBlankWindow::BaseWin(void) const
	?BaseWin@CTWin@@UAEPAVRWindowBase@@XZ @ 50 NONAME ; class RWindowBase * CTWin::BaseWin(void)
	?BaseWin@CTWin@@UBEPBVRWindowBase@@XZ @ 51 NONAME ; class RWindowBase const * CTWin::BaseWin(void) const
	?BaseWin@TlibWsEvent@@QAEPAVCTBaseWin@@XZ @ 52 NONAME ; class CTBaseWin * TlibWsEvent::BaseWin(void)
	?ButtonPressL@CInfoDialog@@UAEXH@Z @ 53 NONAME ; void CInfoDialog::ButtonPressL(int)
	?ButtonPressL@CTDialog@@UAEXH@Z @ 54 NONAME ; void CTDialog::ButtonPressL(int)
	?CancelHandler@CTEventBase@@IAEXXZ @ 55 NONAME ; void CTEventBase::CancelHandler(void)
	?CancelRead@CTClient@@QAEXXZ @ 56 NONAME ; void CTClient::CancelRead(void)
	?CancelRedrawRead@CTClient@@QAEXXZ @ 57 NONAME ; void CTClient::CancelRedrawRead(void)
	?Check@CBlankWindow@@QAEHABVCTClient@@@Z @ 58 NONAME ; int CBlankWindow::Check(class CTClient const &)
	?CheckBlankWindow@@YAHVTRect@@VTRgb@@PBVCWsScreenDevice@@@Z @ 59 NONAME ; int CheckBlankWindow(class TRect, class TRgb, class CWsScreenDevice const *)
	?Child@CTWinBase@@QBEPAVCTBaseWin@@XZ @ 60 NONAME ; class CTBaseWin * CTWinBase::Child(void) const
	?ClearCurrentWindow@CTWindowGroup@@QAEXXZ @ 61 NONAME ; void CTWindowGroup::ClearCurrentWindow(void)
	?Client@CTWinBase@@UBEPAVCTClient@@XZ @ 62 NONAME ; class CTClient * CTWinBase::Client(void) const
	?Client@CTWindowGroup@@UBEPAVCTClient@@XZ @ 63 NONAME ; class CTClient * CTWindowGroup::Client(void) const
	?Construct@CTEventBase@@QAEXXZ @ 64 NONAME ; void CTEventBase::Construct(void)
	?ConstructEventHandlerL@CTClient@@UAEXXZ @ 65 NONAME ; void CTClient::ConstructEventHandlerL(void)
	?ConstructExtLD@CTBaseWin@@UAEXAAVCTWinBase@@ABVTPoint@@ABVTSize@@@Z @ 66 NONAME ; void CTBaseWin::ConstructExtLD(class CTWinBase &, class TPoint const &, class TSize const &)
	?ConstructL@CBlankWindow@@UAEXAAVCTWinBase@@@Z @ 67 NONAME ; void CBlankWindow::ConstructL(class CTWinBase &)
	?ConstructL@CEventWindow@@UAEXAAVCTWinBase@@@Z @ 68 NONAME ; void CEventWindow::ConstructL(class CTWinBase &)
	?ConstructL@CTBaseWin@@UAEXAAVCTWinBase@@@Z @ 69 NONAME ; void CTBaseWin::ConstructL(class CTWinBase &)
	?ConstructL@CTBlankWindow@@UAEXAAVCTWinBase@@@Z @ 70 NONAME ; void CTBlankWindow::ConstructL(class CTWinBase &)
	?ConstructL@CTClient@@UAEXXZ @ 71 NONAME ; void CTClient::ConstructL(void)
	?ConstructL@CTPointerCursor@@QAEXH@Z @ 72 NONAME ; void CTPointerCursor::ConstructL(int)
	?ConstructL@CTPointerCursor@@QAEXHPAUTSpriteCreateParams@@H@Z @ 73 NONAME ; void CTPointerCursor::ConstructL(int, struct TSpriteCreateParams *, int)
	?ConstructL@CTPointerCursor@@QAEXHPAUTSpriteCreateParams@@HAAPAVCFbsBitmap@@1@Z @ 74 NONAME ; void CTPointerCursor::ConstructL(int, struct TSpriteCreateParams *, int, class CFbsBitmap * &, class CFbsBitmap * &)
	?ConstructL@CTSprite@@QAEXAAVRWindowTreeNode@@ABVTPoint@@HPAUTSpriteCreateParams@@H@Z @ 75 NONAME ; void CTSprite::ConstructL(class RWindowTreeNode &, class TPoint const &, int, struct TSpriteCreateParams *, int)
	?ConstructL@CTTitledWindow@@UAEXAAVCTWinBase@@@Z @ 76 NONAME ; void CTTitledWindow::ConstructL(class CTWinBase &)
	?ConstructL@CTWindowGroup@@UAEXXZ @ 77 NONAME ; void CTWindowGroup::ConstructL(void)
	?ConstructLD@CInfoDialog@@QAEXXZ @ 78 NONAME ; void CInfoDialog::ConstructLD(void)
	?ConstructLD@CTDialog@@QAEXAAVCTWinBase@@AAVCWindowGc@@@Z @ 79 NONAME ; void CTDialog::ConstructLD(class CTWinBase &, class CWindowGc &)
	?ConstructWin@CTBackedUpWin@@UAEHABVCTWinBase@@@Z @ 80 NONAME ; int CTBackedUpWin::ConstructWin(class CTWinBase const &)
	?ConstructWin@CTBlankWindow@@UAEHABVCTWinBase@@@Z @ 81 NONAME ; int CTBlankWindow::ConstructWin(class CTWinBase const &)
	?ConstructWin@CTWin@@UAEHABVCTWinBase@@@Z @ 82 NONAME ; int CTWin::ConstructWin(class CTWinBase const &)
	?CurWin@CTWindowGroup@@QBEPAVCTBaseWin@@XZ @ 83 NONAME ; class CTBaseWin * CTWindowGroup::CurWin(void) const
	?Delete@CTBaseWin@@SAXPAV1@@Z @ 84 NONAME ; void CTBaseWin::Delete(class CTBaseWin *)
	?DestroyWindows@CTClient@@QAEXXZ @ 85 NONAME ; void CTClient::DestroyWindows(void)
	?Display@CTDialog@@QAEHXZ @ 86 NONAME ; int CTDialog::Display(void)
	?DisplayDialog@@YAXABV?$TBuf@$0BAA@@@ABVTDesC16@@1PBVRWindowGroup@@@Z @ 87 NONAME ; void DisplayDialog(class TBuf<256> const &, class TDesC16 const &, class TDesC16 const &, class RWindowGroup const *)
	?DisplayDialog@@YAXHABV?$TBuf@$0BAA@@@ABVTDesC16@@1PBVRWindowGroup@@@Z @ 88 NONAME ; void DisplayDialog(int, class TBuf<256> const &, class TDesC16 const &, class TDesC16 const &, class RWindowGroup const *)
	?DisplayDialog@@YAXPAVCTClient@@ABV?$TBuf@$0BAA@@@ABVTDesC16@@2@Z @ 89 NONAME ; void DisplayDialog(class CTClient *, class TBuf<256> const &, class TDesC16 const &, class TDesC16 const &)
	?DoCancel@CTEvent@@MAEXXZ @ 90 NONAME ; void CTEvent::DoCancel(void)
	?DoCancel@CTRedraw@@MAEXXZ @ 91 NONAME ; void CTRedraw::DoCancel(void)
	?DragDropL@CTBaseWin@@UAEXABUTPointerEvent@@ABVTTime@@@Z @ 92 NONAME ; void CTBaseWin::DragDropL(struct TPointerEvent const &, class TTime const &)
	?Draw@CBlankWindow@@UAEXXZ @ 93 NONAME ; void CBlankWindow::Draw(void)
	?Draw@CEventWindow@@UAEXXZ @ 94 NONAME ; void CEventWindow::Draw(void)
	?Draw@CTBaseWin@@UAEXXZ @ 95 NONAME ; void CTBaseWin::Draw(void)
	?Draw@CTDialog@@UAEXXZ @ 96 NONAME ; void CTDialog::Draw(void)
	?Draw@CTTitledWindow@@UAEXXZ @ 97 NONAME ; void CTTitledWindow::Draw(void)
	?DrawBorder@CTBaseWin@@QAEXXZ @ 98 NONAME ; void CTBaseWin::DrawBorder(void)
	?DrawNow@CBlankWindow@@QAEXAAVTRect@@@Z @ 99 NONAME ; void CBlankWindow::DrawNow(class TRect &)
	?DrawNow@CBlankWindow@@QAEXXZ @ 100 NONAME ; void CBlankWindow::DrawNow(void)
	?DrawNow@CTWin@@QAEXXZ @ 101 NONAME ; void CTWin::DrawNow(void)
	?DrawableWin@CTBackedUpWin@@UAEPAVRDrawableWindow@@XZ @ 102 NONAME ; class RDrawableWindow * CTBackedUpWin::DrawableWin(void)
	?DrawableWin@CTBackedUpWin@@UBEPBVRDrawableWindow@@XZ @ 103 NONAME ; class RDrawableWindow const * CTBackedUpWin::DrawableWin(void) const
	?DrawableWin@CTWin@@UAEPAVRDrawableWindow@@XZ @ 104 NONAME ; class RDrawableWindow * CTWin::DrawableWin(void)
	?DrawableWin@CTWin@@UBEPBVRDrawableWindow@@XZ @ 105 NONAME ; class RDrawableWindow const * CTWin::DrawableWin(void) const
	?ErrorMessage@CTWinBase@@UAEXABUTWsErrorMessage@@ABVTTime@@@Z @ 106 NONAME ; void CTWinBase::ErrorMessage(struct TWsErrorMessage const &, class TTime const &)
	?FocusChanged@CTBaseWin@@UAEXH@Z @ 107 NONAME ; void CTBaseWin::FocusChanged(int)
	?FocusChanged@CTTitledWindow@@UAEXH@Z @ 108 NONAME ; void CTTitledWindow::FocusChanged(int)
	?FocusGained@CTWindowGroup@@QAEXXZ @ 109 NONAME ; void CTWindowGroup::FocusGained(void)
	?FocusLost@CTWindowGroup@@QAEXXZ @ 110 NONAME ; void CTWindowGroup::FocusLost(void)
	?Group@CTBaseWin@@UBEPAVCTWindowGroup@@XZ @ 111 NONAME ; class CTWindowGroup * CTBaseWin::Group(void) const
	?Group@CTWindowGroup@@UBEPAV1@XZ @ 112 NONAME ; class CTWindowGroup * CTWindowGroup::Group(void) const
	?HasFocus@CTWindowGroup@@QBEHPAVCTBaseWin@@@Z @ 113 NONAME ; int CTWindowGroup::HasFocus(class CTBaseWin *) const
	?InitWin@CTBaseWin@@UAEXXZ @ 114 NONAME ; void CTBaseWin::InitWin(void)
	?Invalidate@CTWin@@QAEXABVTRect@@@Z @ 115 NONAME ; void CTWin::Invalidate(class TRect const &)
	?Invalidate@CTWin@@QAEXXZ @ 116 NONAME ; void CTWin::Invalidate(void)
	?KeyDownL@CTBaseWin@@UAEXABUTKeyEvent@@ABVTTime@@@Z @ 117 NONAME ; void CTBaseWin::KeyDownL(struct TKeyEvent const &, class TTime const &)
	?KeyDownL@CTWindowGroup@@UAEXABUTKeyEvent@@ABVTTime@@@Z @ 118 NONAME ; void CTWindowGroup::KeyDownL(struct TKeyEvent const &, class TTime const &)
	?KeyL@CTWindowGroup@@UAEXABUTKeyEvent@@ABVTTime@@@Z @ 119 NONAME ; void CTWindowGroup::KeyL(struct TKeyEvent const &, class TTime const &)
	?KeyUpL@CTBaseWin@@UAEXABUTKeyEvent@@ABVTTime@@@Z @ 120 NONAME ; void CTBaseWin::KeyUpL(struct TKeyEvent const &, class TTime const &)
	?KeyUpL@CTWindowGroup@@UAEXABUTKeyEvent@@ABVTTime@@@Z @ 121 NONAME ; void CTWindowGroup::KeyUpL(struct TKeyEvent const &, class TTime const &)
	?LogEvent@CEventWindow@@QAEXABVTWsEvent@@@Z @ 122 NONAME ; void CEventWindow::LogEvent(class TWsEvent const &)
	?LogEvent@CTEvent@@UAEXABVTWsEvent@@@Z @ 123 NONAME ; void CTEvent::LogEvent(class TWsEvent const &)
	?LogMessage@CTClient@@QAEXABV?$TBuf@$0IA@@@@Z @ 124 NONAME ; void CTClient::LogMessage(class TBuf<128> const &)
	?MessageReady@CTWindowGroup@@UAEXABVTWsEvent@@@Z @ 125 NONAME ; void CTWindowGroup::MessageReady(class TWsEvent const &)
	?ModifiersChanged@CTWinBase@@UAEXABUTModifiersChangedEvent@@ABVTTime@@@Z @ 126 NONAME ; void CTWinBase::ModifiersChanged(struct TModifiersChangedEvent const &, class TTime const &)
	?Next@CTBaseWin@@QAEPAV1@XZ @ 127 NONAME ; class CTBaseWin * CTBaseWin::Next(void)
	?NextSibling@CTWinBase@@QBEPAV1@XZ @ 128 NONAME ; class CTWinBase * CTWinBase::NextSibling(void) const
	?Parent@CTWinBase@@QBEPAV1@XZ @ 129 NONAME ; class CTWinBase * CTWinBase::Parent(void) const
	?PasswordL@CTWindowGroup@@UAEXABVTTime@@@Z @ 130 NONAME ; void CTWindowGroup::PasswordL(class TTime const &)
	?PointerBufferReady@CTWinBase@@UAEXABVTTime@@@Z @ 131 NONAME ; void CTWinBase::PointerBufferReady(class TTime const &)
	?PointerCursor@CTPointerCursor@@QAEAAVRWsPointerCursor@@XZ @ 132 NONAME ; class RWsPointerCursor & CTPointerCursor::PointerCursor(void)
	?PointerEnter@CTWinBase@@UAEXABVTTime@@@Z @ 133 NONAME ; void CTWinBase::PointerEnter(class TTime const &)
	?PointerExit@CTWinBase@@UAEXABVTTime@@@Z @ 134 NONAME ; void CTWinBase::PointerExit(class TTime const &)
	?PointerL@CTBaseWin@@UAEXABUTPointerEvent@@ABVTTime@@@Z @ 135 NONAME ; void CTBaseWin::PointerL(struct TPointerEvent const &, class TTime const &)
	?PointerL@CTDialog@@UAEXABUTPointerEvent@@ABVTTime@@@Z @ 136 NONAME ; void CTDialog::PointerL(struct TPointerEvent const &, class TTime const &)
	?Position@CTBaseWin@@UBE?AVTPoint@@XZ @ 137 NONAME ; class TPoint CTBaseWin::Position(void) const
	?Position@CTWinBase@@UBE?AVTPoint@@XZ @ 138 NONAME ; class TPoint CTWinBase::Position(void) const
	?Prev@CTBaseWin@@QAEPAV1@XZ @ 139 NONAME ; class CTBaseWin * CTBaseWin::Prev(void)
	?PrevSibling@CTWinBase@@QBEPAV1@XZ @ 140 NONAME ; class CTWinBase * CTWinBase::PrevSibling(void) const
	?QueueRead@CTClient@@QAEHXZ @ 141 NONAME ; int CTClient::QueueRead(void)
	?RealDraw@CBlankWindow@@QAEXH@Z @ 142 NONAME ; void CBlankWindow::RealDraw(int)
	?Redraw@CTWin@@QAEXXZ @ 143 NONAME ; void CTWin::Redraw(void)
	?Redraw@CTWin@@UAEXABVTRect@@@Z @ 144 NONAME ; void CTWin::Redraw(class TRect const &)
	?RedrawL@CTSpriteBase@@QAEXAAPAVCFbsBitmap@@0PAUTSpriteCreateParams@@@Z @ 145 NONAME ; void CTSpriteBase::RedrawL(class CFbsBitmap * &, class CFbsBitmap * &, struct TSpriteCreateParams *)
	?RelinquishFocus@CTBaseWin@@UAEXXZ @ 146 NONAME ; void CTBaseWin::RelinquishFocus(void)
	?RelinquishFocus@CTDialog@@UAEXXZ @ 147 NONAME ; void CTDialog::RelinquishFocus(void)
	?Request@CTEvent@@UAEXXZ @ 148 NONAME ; void CTEvent::Request(void)
	?Request@CTRedraw@@UAEXXZ @ 149 NONAME ; void CTRedraw::Request(void)
	?RequestRedraw@CTClient@@QAEXXZ @ 150 NONAME ; void CTClient::RequestRedraw(void)
	?ResetFocus@CTClient@@QAEXXZ @ 151 NONAME ; void CTClient::ResetFocus(void)
	?Resized@CTBaseWin@@UAEXABVTSize@@@Z @ 152 NONAME ; void CTBaseWin::Resized(class TSize const &)
	?Resized@CTTitledWindow@@EAEXABVTSize@@@Z @ 153 NONAME ; void CTTitledWindow::Resized(class TSize const &)
	?RunL@CTEventBase@@MAEXXZ @ 154 NONAME ; void CTEventBase::RunL(void)
	?ScreenDeviceChanged@CTWindowGroup@@UAEXXZ @ 155 NONAME ; void CTWindowGroup::ScreenDeviceChanged(void)
	?SetButtonText@CTDialog@@QAEXHABVTDesC16@@@Z @ 156 NONAME ; void CTDialog::SetButtonText(int, class TDesC16 const &)
	?SetCancelFunction@CTClient@@QAEXABVTCallBack@@@Z @ 157 NONAME ; void CTClient::SetCancelFunction(class TCallBack const &)
	?SetColor@CBlankWindow@@QAEXVTRgb@@@Z @ 158 NONAME ; void CBlankWindow::SetColor(class TRgb)
	?SetColor@CTBlankWindow@@QAEXABVTRgb@@@Z @ 159 NONAME ; void CTBlankWindow::SetColor(class TRgb const &)
	?SetColor@CTTitledWindow@@QAEXVTRgb@@@Z @ 160 NONAME ; void CTTitledWindow::SetColor(class TRgb)
	?SetCurrentWindow@CTWindowGroup@@QAEXPAVCTBaseWin@@@Z @ 161 NONAME ; void CTWindowGroup::SetCurrentWindow(class CTBaseWin *)
	?SetCurrentWindow@CTWindowGroup@@QAEXPAVCTBaseWin@@H@Z @ 162 NONAME ; void CTWindowGroup::SetCurrentWindow(class CTBaseWin *, int)
	?SetDefaultExt@CTWin@@QAEXXZ @ 163 NONAME ; void CTWin::SetDefaultExt(void)
	?SetDefaultExtL@CTBaseWin@@UAEXXZ @ 164 NONAME ; void CTBaseWin::SetDefaultExtL(void)
	?SetDragRect@CTBaseWin@@QAEXABVTRect@@@Z @ 165 NONAME ; void CTBaseWin::SetDragRect(class TRect const &)
	?SetExt@CTBlankWindow@@QAEXABVTPoint@@ABVTSize@@@Z @ 166 NONAME ; void CTBlankWindow::SetExt(class TPoint const &, class TSize const &)
	?SetExt@CTWin@@QAEXABVTPoint@@ABVTSize@@@Z @ 167 NONAME ; void CTWin::SetExt(class TPoint const &, class TSize const &)
	?SetExtL@CTBaseWin@@UAEXABVTPoint@@ABVTSize@@@Z @ 168 NONAME ; void CTBaseWin::SetExtL(class TPoint const &, class TSize const &)
	?SetFlags@CTDialog@@QAEXI@Z @ 169 NONAME ; void CTDialog::SetFlags(unsigned int)
	?SetFullScreenExtL@CTBaseWin@@UAEXXZ @ 170 NONAME ; void CTBaseWin::SetFullScreenExtL(void)
	?SetInitialPos@CTBaseWin@@QAEXABVTPoint@@@Z @ 171 NONAME ; void CTBaseWin::SetInitialPos(class TPoint const &)
	?SetLine1@CTDialog@@QAEXABVTDesC16@@@Z @ 172 NONAME ; void CTDialog::SetLine1(class TDesC16 const &)
	?SetLine2@CTDialog@@QAEXABVTDesC16@@@Z @ 173 NONAME ; void CTDialog::SetLine2(class TDesC16 const &)
	?SetNumButtons@CTDialog@@QAEXH@Z @ 174 NONAME ; void CTDialog::SetNumButtons(int)
	?SetPos@CTBaseWin@@UAEXABVTPoint@@@Z @ 175 NONAME ; void CTBaseWin::SetPos(class TPoint const &)
	?SetRedrawCancelFunction@CTClient@@QAEXABVTCallBack@@@Z @ 176 NONAME ; void CTClient::SetRedrawCancelFunction(class TCallBack const &)
	?SetSize@CTBlankWindow@@QAEXABVTSize@@@Z @ 177 NONAME ; void CTBlankWindow::SetSize(class TSize const &)
	?SetSize@CTWin@@QAEXABVTSize@@@Z @ 178 NONAME ; void CTWin::SetSize(class TSize const &)
	?SetSizeL@CTBaseWin@@UAEXABVTSize@@@Z @ 179 NONAME ; void CTBaseWin::SetSizeL(class TSize const &)
	?SetTitle@CTTitledWindow@@QAEXABV?$TBuf@$0BAA@@@@Z @ 180 NONAME ; void CTTitledWindow::SetTitle(class TBuf<256> const &)
	?SetUpL@CEventWindow@@QAEXABVTPoint@@PAVCTWinBase@@AAVCWindowGc@@@Z @ 181 NONAME ; void CEventWindow::SetUpL(class TPoint const &, class CTWinBase *, class CWindowGc &)
	?SetUpL@CTBaseWin@@QAEXVTPoint@@VTSize@@PAVCTWinBase@@AAVCWindowGc@@H@Z @ 182 NONAME ; void CTBaseWin::SetUpL(class TPoint, class TSize, class CTWinBase *, class CWindowGc &, int)
	?SetUpL@CTBaseWin@@UAEXVTPoint@@VTSize@@PAVCTWinBase@@AAVCWindowGc@@@Z @ 183 NONAME ; void CTBaseWin::SetUpL(class TPoint, class TSize, class CTWinBase *, class CWindowGc &)
	?SetUpL@CTBaseWin@@UAEXVTPoint@@VTSize@@PAVCTWinBase@@AAVCWindowGc@@PAW4TDisplayMode@@@Z @ 184 NONAME ; void CTBaseWin::SetUpL(class TPoint, class TSize, class CTWinBase *, class CWindowGc &, enum TDisplayMode *)
	?SetUpL@CTBaseWin@@UAEXVTPoint@@VTSize@@PAVCTWinBase@@AAVCWindowGc@@PAW4TDisplayMode@@H@Z @ 185 NONAME ; void CTBaseWin::SetUpL(class TPoint, class TSize, class CTWinBase *, class CWindowGc &, enum TDisplayMode *, int)
	?SetVisible@CTBaseWin@@UAEXH@Z @ 186 NONAME ; void CTBaseWin::SetVisible(int)
	?SetVisible@CTWinBase@@UAEXH@Z @ 187 NONAME ; void CTWinBase::SetVisible(int)
	?SetWindowSize@CTDialog@@QAEXXZ @ 188 NONAME ; void CTDialog::SetWindowSize(void)
	?Size@CTBaseWin@@UBE?AVTSize@@XZ @ 189 NONAME ; class TSize CTBaseWin::Size(void) const
	?Size@CTWindowGroup@@UBE?AVTSize@@XZ @ 190 NONAME ; class TSize CTWindowGroup::Size(void) const
	?Splat@CTUser@@SAXPAVCTClient@@ABVTRect@@ABVTRgb@@@Z @ 191 NONAME ; void CTUser::Splat(class CTClient *, class TRect const &, class TRgb const &)
	?Sprite@CTSprite@@QAEAAVRWsSprite@@XZ @ 192 NONAME ; class RWsSprite & CTSprite::Sprite(void)
	?SpriteBase@CTPointerCursor@@UAEAAVRWsSpriteBase@@XZ @ 193 NONAME ; class RWsSpriteBase & CTPointerCursor::SpriteBase(void)
	?SpriteBase@CTSprite@@UAEAAVRWsSpriteBase@@XZ @ 194 NONAME ; class RWsSpriteBase & CTSprite::SpriteBase(void)
	?SubType@CTWinBase@@UAEHXZ @ 195 NONAME ; int CTWinBase::SubType(void)
	?SwitchOn@CTWinBase@@UAEXABVTTime@@@Z @ 196 NONAME ; void CTWinBase::SwitchOn(class TTime const &)
	?TestLibStartUp@@YAHP6APAVCTClient@@XZ@Z @ 197 NONAME ; int TestLibStartUp(class CTClient * (*)(void))
	?TestLibStartUp@@YAHP6APAVCTClient@@XZH@Z @ 198 NONAME ; int TestLibStartUp(class CTClient * (*)(void), int)
	?TimerResults@CInfoDialog@@QAEXXZ @ 199 NONAME ; void CInfoDialog::TimerResults(void)
	?Title@CTClient@@QAEPAV?$TBuf@$0BAA@@@XZ @ 200 NONAME ; class TBuf<256> * CTClient::Title(void)
	?UpdateL@CTSpriteBase@@QAEXHPAUTSpriteCreateParams@@@Z @ 201 NONAME ; void CTSpriteBase::UpdateL(int, struct TSpriteCreateParams *)
	?UserEvent@CTWindowGroup@@UAEXH@Z @ 202 NONAME ; void CTWindowGroup::UserEvent(int)
	?WaitForRedrawsToFinish@@YAXXZ @ 203 NONAME ; void WaitForRedrawsToFinish(void)
	?WinKeyL@CEventWindow@@UAEXABUTKeyEvent@@ABVTTime@@@Z @ 204 NONAME ; void CEventWindow::WinKeyL(struct TKeyEvent const &, class TTime const &)
	?WinKeyL@CTBaseWin@@UAEXABUTKeyEvent@@ABVTTime@@@Z @ 205 NONAME ; void CTBaseWin::WinKeyL(struct TKeyEvent const &, class TTime const &)
	?WinKeyL@CTDialog@@UAEXABUTKeyEvent@@ABVTTime@@@Z @ 206 NONAME ; void CTDialog::WinKeyL(struct TKeyEvent const &, class TTime const &)
	?WinKeyL@CTWindowGroup@@UAEXABUTKeyEvent@@ABVTTime@@@Z @ 207 NONAME ; void CTWindowGroup::WinKeyL(struct TKeyEvent const &, class TTime const &)
	?WinTreeNode@CTBaseWin@@UAEPAVRWindowTreeNode@@XZ @ 208 NONAME ; class RWindowTreeNode * CTBaseWin::WinTreeNode(void)
	?WinTreeNode@CTBaseWin@@UBEPBVRWindowTreeNode@@XZ @ 209 NONAME ; class RWindowTreeNode const * CTBaseWin::WinTreeNode(void) const
	?WinTreeNode@CTWindowGroup@@UAEPAVRWindowTreeNode@@XZ @ 210 NONAME ; class RWindowTreeNode * CTWindowGroup::WinTreeNode(void)
	?WinTreeNode@CTWindowGroup@@UBEPBVRWindowTreeNode@@XZ @ 211 NONAME ; class RWindowTreeNode const * CTWindowGroup::WinTreeNode(void) const
	?WindowGroup@TlibWsEvent@@QAEPAVCTWindowGroup@@XZ @ 212 NONAME ; class CTWindowGroup * TlibWsEvent::WindowGroup(void)
	?__DbgTestInvariant@CTBaseWin@@QBEXXZ @ 213 NONAME ; void CTBaseWin::__DbgTestInvariant(void) const
	?__DbgTestInvariant@CTWinBase@@QBEXXZ @ 214 NONAME ; void CTWinBase::__DbgTestInvariant(void) const
	?doRunL@CTEvent@@MAEXXZ @ 215 NONAME ; void CTEvent::doRunL(void)
	?doRunL@CTRedraw@@MAEXXZ @ 216 NONAME ; void CTRedraw::doRunL(void)

