EXPORTS
	_ZN17CCaProgresScanner4NewLEP18IUninstallObserver @ 1 NONAME
	_ZN18CaSoftwareRegistry10m_instanceE @ 2 NONAME DATA 8
	_ZN18CaSoftwareRegistry11qt_metacallEN11QMetaObject4CallEiPPv @ 3 NONAME
	_ZN18CaSoftwareRegistry11qt_metacastEPKc @ 4 NONAME
	_ZN18CaSoftwareRegistry16componentNameKeyEv @ 5 NONAME
	_ZN18CaSoftwareRegistry16componentSizeKeyEv @ 6 NONAME
	_ZN18CaSoftwareRegistry16componentTimeKeyEv @ 7 NONAME
	_ZN18CaSoftwareRegistry16componentTypeKeyEv @ 8 NONAME
	_ZN18CaSoftwareRegistry16staticMetaObjectE @ 9 NONAME DATA 16
	_ZN18CaSoftwareRegistry18componentVendorKeyEv @ 10 NONAME
	_ZN18CaSoftwareRegistry19componentVersionKeyEv @ 11 NONAME
	_ZN18CaSoftwareRegistry19getApplicationsUidsEiR11QStringList @ 12 NONAME
	_ZN18CaSoftwareRegistry19getStaticMetaObjectEv @ 13 NONAME
	_ZN18CaSoftwareRegistry19getUninstallDetailsEiR7QStringR11QStringListS1_ @ 14 NONAME
	_ZN18CaSoftwareRegistry20componentHiddenValueEv @ 15 NONAME
	_ZN18CaSoftwareRegistry21componentDriveInfoKeyEv @ 16 NONAME
	_ZN18CaSoftwareRegistry21componentInstallValueEv @ 17 NONAME
	_ZN18CaSoftwareRegistry21componentUpgradeValueEv @ 18 NONAME
	_ZN18CaSoftwareRegistry23componentDescriptionKeyEv @ 19 NONAME
	_ZN18CaSoftwareRegistry23componentUninstallValueEv @ 20 NONAME
	_ZN18CaSoftwareRegistry25componentOperationTypeKeyEv @ 21 NONAME
	_ZN18CaSoftwareRegistry28componentProtectionDomainKeyEv @ 22 NONAME
	_ZN18CaSoftwareRegistry6createEv @ 23 NONAME
	_ZN18CaSoftwareRegistryC1EP7QObject @ 24 NONAME
	_ZN18CaSoftwareRegistryC2EP7QObject @ 25 NONAME
	_ZN18CaSoftwareRegistryD0Ev @ 26 NONAME
	_ZN18CaSoftwareRegistryD1Ev @ 27 NONAME
	_ZN18CaSoftwareRegistryD2Ev @ 28 NONAME
	_ZNK18CaSoftwareRegistry10metaObjectEv @ 29 NONAME
	_ZNK18CaSoftwareRegistry12entryDetailsEi @ 30 NONAME
	_ZNK18CaSoftwareRegistry18retrieveLogEntriesEv @ 31 NONAME
	_ZNK18CaSoftwareRegistry23createUninstallNotifierEv @ 32 NONAME
	_ZTI18CaSoftwareRegistry @ 33 NONAME
	_ZTV18CaSoftwareRegistry @ 34 NONAME

