EXPORTS
	??0CCDDataMobilitySelectionPolicyRecord@@QAE@K@Z @ 1 NONAME ; CCDDataMobilitySelectionPolicyRecord::CCDDataMobilitySelectionPolicyRecord(unsigned long)
	??0CCDDestNWTable@@QAE@K@Z @ 2 NONAME ; CCDDestNWTable::CCDDestNWTable(unsigned long)
	??0CCDGlobalBearerTypePriorizationRecord@@QAE@K@Z @ 3 NONAME ; CCDGlobalBearerTypePriorizationRecord::CCDGlobalBearerTypePriorizationRecord(unsigned long)
	??0CCDIAPMetadataRecord@@QAE@K@Z @ 4 NONAME ; CCDIAPMetadataRecord::CCDIAPMetadataRecord(unsigned long)
	??0CCDMIP4Record@@QAE@K@Z @ 5 NONAME ; CCDMIP4Record::CCDMIP4Record(unsigned long)
	??0CCDMIP6Record@@QAE@K@Z @ 6 NONAME ; CCDMIP6Record::CCDMIP6Record(unsigned long)
	??0CCDMIPServiceExtRecord@@QAE@K@Z @ 7 NONAME ; CCDMIPServiceExtRecord::CCDMIPServiceExtRecord(unsigned long)
	??0CCDSNAPMetadataRecord@@QAE@K@Z @ 8 NONAME ; CCDSNAPMetadataRecord::CCDSNAPMetadataRecord(unsigned long)
	??0CCDVirtualIAPNextLayerRecord@@QAE@K@Z @ 9 NONAME ; CCDVirtualIAPNextLayerRecord::CCDVirtualIAPNextLayerRecord(unsigned long)
	??0CCDWLANSecSSIDTable@@QAE@K@Z @ 10 NONAME ; CCDWLANSecSSIDTable::CCDWLANSecSSIDTable(unsigned long)
	??0CCDWlanDeviceSettingsRecord@@QAE@K@Z @ 11 NONAME ; CCDWlanDeviceSettingsRecord::CCDWlanDeviceSettingsRecord(unsigned long)
	??0CCDWlanServiceRecord@@QAE@K@Z @ 12 NONAME ; CCDWlanServiceRecord::CCDWlanServiceRecord(unsigned long)
	?CreateTableL@CCDDataMobilitySelectionPolicyRecord@@SAKAAVCMDBSession@CommsDat@@@Z @ 13 NONAME ; unsigned long CCDDataMobilitySelectionPolicyRecord::CreateTableL(class CommsDat::CMDBSession &)
	?CreateTableL@CCDDestNWTable@@SAKAAVCMDBSession@CommsDat@@@Z @ 14 NONAME ; unsigned long CCDDestNWTable::CreateTableL(class CommsDat::CMDBSession &)
	?CreateTableL@CCDGlobalBearerTypePriorizationRecord@@SAKAAVCMDBSession@CommsDat@@@Z @ 15 NONAME ; unsigned long CCDGlobalBearerTypePriorizationRecord::CreateTableL(class CommsDat::CMDBSession &)
	?CreateTableL@CCDIAPMetadataRecord@@SAKAAVCMDBSession@CommsDat@@@Z @ 16 NONAME ; unsigned long CCDIAPMetadataRecord::CreateTableL(class CommsDat::CMDBSession &)
	?CreateTableL@CCDMIP4Record@@SAKAAVCMDBSession@CommsDat@@@Z @ 17 NONAME ; unsigned long CCDMIP4Record::CreateTableL(class CommsDat::CMDBSession &)
	?CreateTableL@CCDMIP6Record@@SAKAAVCMDBSession@CommsDat@@@Z @ 18 NONAME ; unsigned long CCDMIP6Record::CreateTableL(class CommsDat::CMDBSession &)
	?CreateTableL@CCDMIPServiceExtRecord@@SAKAAVCMDBSession@CommsDat@@@Z @ 19 NONAME ; unsigned long CCDMIPServiceExtRecord::CreateTableL(class CommsDat::CMDBSession &)
	?CreateTableL@CCDSNAPMetadataRecord@@SAKAAVCMDBSession@CommsDat@@@Z @ 20 NONAME ; unsigned long CCDSNAPMetadataRecord::CreateTableL(class CommsDat::CMDBSession &)
	?CreateTableL@CCDVirtualIAPNextLayerRecord@@SAKAAVCMDBSession@CommsDat@@@Z @ 21 NONAME ; unsigned long CCDVirtualIAPNextLayerRecord::CreateTableL(class CommsDat::CMDBSession &)
	?CreateTableL@CCDWLANSecSSIDTable@@SAKAAVCMDBSession@CommsDat@@@Z @ 22 NONAME ; unsigned long CCDWLANSecSSIDTable::CreateTableL(class CommsDat::CMDBSession &)
	?CreateTableL@CCDWlanDeviceSettingsRecord@@SAKAAVCMDBSession@CommsDat@@@Z @ 23 NONAME ; unsigned long CCDWlanDeviceSettingsRecord::CreateTableL(class CommsDat::CMDBSession &)
	?CreateTableL@CCDWlanServiceRecord@@SAKAAVCMDBSession@CommsDat@@@Z @ 24 NONAME ; unsigned long CCDWlanServiceRecord::CreateTableL(class CommsDat::CMDBSession &)
	?GetRecordInfo@CCDDataMobilitySelectionPolicyRecord@@UAEPBUSRecordTypeInfo@CommsDat@@XZ @ 25 NONAME ; struct CommsDat::SRecordTypeInfo const * CCDDataMobilitySelectionPolicyRecord::GetRecordInfo(void)
	?GetRecordInfo@CCDDestNWTable@@UAEPBUSRecordTypeInfo@CommsDat@@XZ @ 26 NONAME ; struct CommsDat::SRecordTypeInfo const * CCDDestNWTable::GetRecordInfo(void)
	?GetRecordInfo@CCDGlobalBearerTypePriorizationRecord@@UAEPBUSRecordTypeInfo@CommsDat@@XZ @ 27 NONAME ; struct CommsDat::SRecordTypeInfo const * CCDGlobalBearerTypePriorizationRecord::GetRecordInfo(void)
	?GetRecordInfo@CCDIAPMetadataRecord@@UAEPBUSRecordTypeInfo@CommsDat@@XZ @ 28 NONAME ; struct CommsDat::SRecordTypeInfo const * CCDIAPMetadataRecord::GetRecordInfo(void)
	?GetRecordInfo@CCDMIP4Record@@UAEPBUSRecordTypeInfo@CommsDat@@XZ @ 29 NONAME ; struct CommsDat::SRecordTypeInfo const * CCDMIP4Record::GetRecordInfo(void)
	?GetRecordInfo@CCDMIP6Record@@UAEPBUSRecordTypeInfo@CommsDat@@XZ @ 30 NONAME ; struct CommsDat::SRecordTypeInfo const * CCDMIP6Record::GetRecordInfo(void)
	?GetRecordInfo@CCDMIPServiceExtRecord@@UAEPBUSRecordTypeInfo@CommsDat@@XZ @ 31 NONAME ; struct CommsDat::SRecordTypeInfo const * CCDMIPServiceExtRecord::GetRecordInfo(void)
	?GetRecordInfo@CCDSNAPMetadataRecord@@UAEPBUSRecordTypeInfo@CommsDat@@XZ @ 32 NONAME ; struct CommsDat::SRecordTypeInfo const * CCDSNAPMetadataRecord::GetRecordInfo(void)
	?GetRecordInfo@CCDVirtualIAPNextLayerRecord@@UAEPBUSRecordTypeInfo@CommsDat@@XZ @ 33 NONAME ; struct CommsDat::SRecordTypeInfo const * CCDVirtualIAPNextLayerRecord::GetRecordInfo(void)
	?GetRecordInfo@CCDWLANSecSSIDTable@@UAEPBUSRecordTypeInfo@CommsDat@@XZ @ 34 NONAME ; struct CommsDat::SRecordTypeInfo const * CCDWLANSecSSIDTable::GetRecordInfo(void)
	?GetRecordInfo@CCDWlanDeviceSettingsRecord@@UAEPBUSRecordTypeInfo@CommsDat@@XZ @ 35 NONAME ; struct CommsDat::SRecordTypeInfo const * CCDWlanDeviceSettingsRecord::GetRecordInfo(void)
	?GetRecordInfo@CCDWlanServiceRecord@@UAEPBUSRecordTypeInfo@CommsDat@@XZ @ 36 NONAME ; struct CommsDat::SRecordTypeInfo const * CCDWlanServiceRecord::GetRecordInfo(void)
	?TableIdL@CCDDataMobilitySelectionPolicyRecord@@SAKAAVCMDBSession@CommsDat@@@Z @ 37 NONAME ; unsigned long CCDDataMobilitySelectionPolicyRecord::TableIdL(class CommsDat::CMDBSession &)
	?TableIdL@CCDDestNWTable@@SAKAAVCMDBSession@CommsDat@@@Z @ 38 NONAME ; unsigned long CCDDestNWTable::TableIdL(class CommsDat::CMDBSession &)
	?TableIdL@CCDGlobalBearerTypePriorizationRecord@@SAKAAVCMDBSession@CommsDat@@@Z @ 39 NONAME ; unsigned long CCDGlobalBearerTypePriorizationRecord::TableIdL(class CommsDat::CMDBSession &)
	?TableIdL@CCDIAPMetadataRecord@@SAKAAVCMDBSession@CommsDat@@@Z @ 40 NONAME ; unsigned long CCDIAPMetadataRecord::TableIdL(class CommsDat::CMDBSession &)
	?TableIdL@CCDMIP4Record@@SAKAAVCMDBSession@CommsDat@@@Z @ 41 NONAME ; unsigned long CCDMIP4Record::TableIdL(class CommsDat::CMDBSession &)
	?TableIdL@CCDMIP6Record@@SAKAAVCMDBSession@CommsDat@@@Z @ 42 NONAME ; unsigned long CCDMIP6Record::TableIdL(class CommsDat::CMDBSession &)
	?TableIdL@CCDMIPServiceExtRecord@@SAKAAVCMDBSession@CommsDat@@@Z @ 43 NONAME ; unsigned long CCDMIPServiceExtRecord::TableIdL(class CommsDat::CMDBSession &)
	?TableIdL@CCDSNAPMetadataRecord@@SAKAAVCMDBSession@CommsDat@@@Z @ 44 NONAME ; unsigned long CCDSNAPMetadataRecord::TableIdL(class CommsDat::CMDBSession &)
	?TableIdL@CCDVirtualIAPNextLayerRecord@@SAKAAVCMDBSession@CommsDat@@@Z @ 45 NONAME ; unsigned long CCDVirtualIAPNextLayerRecord::TableIdL(class CommsDat::CMDBSession &)
	?TableIdL@CCDWLANSecSSIDTable@@SAKAAVCMDBSession@CommsDat@@@Z @ 46 NONAME ; unsigned long CCDWLANSecSSIDTable::TableIdL(class CommsDat::CMDBSession &)
	?TableIdL@CCDWlanDeviceSettingsRecord@@SAKAAVCMDBSession@CommsDat@@@Z @ 47 NONAME ; unsigned long CCDWlanDeviceSettingsRecord::TableIdL(class CommsDat::CMDBSession &)
	?TableIdL@CCDWlanServiceRecord@@SAKAAVCMDBSession@CommsDat@@@Z @ 48 NONAME ; unsigned long CCDWlanServiceRecord::TableIdL(class CommsDat::CMDBSession &)
	??0CCDDefConnRecord@@QAE@K@Z @ 49 NONAME ; CCDDefConnRecord::CCDDefConnRecord(unsigned long)
	?CreateTableL@CCDDefConnRecord@@SAKAAVCMDBSession@CommsDat@@@Z @ 50 NONAME ; unsigned long CCDDefConnRecord::CreateTableL(class CommsDat::CMDBSession &)
	?GetRecordInfo@CCDDefConnRecord@@UAEPBUSRecordTypeInfo@CommsDat@@XZ @ 51 NONAME ; struct CommsDat::SRecordTypeInfo const * CCDDefConnRecord::GetRecordInfo(void)
	?TableIdL@CCDDefConnRecord@@SAKAAVCMDBSession@CommsDat@@@Z @ 52 NONAME ; unsigned long CCDDefConnRecord::TableIdL(class CommsDat::CMDBSession &)

