EXPORTS
	_ZN10CaNotifier11qt_metacallEN11QMetaObject4CallEiPPv @ 1 NONAME
	_ZN10CaNotifier11qt_metacastEPKc @ 2 NONAME
	_ZN10CaNotifier12entryChangedERK7CaEntry10ChangeType @ 3 NONAME
	_ZN10CaNotifier12entryChangedEi10ChangeType @ 4 NONAME
	_ZN10CaNotifier12entryTouchedEi @ 5 NONAME
	_ZN10CaNotifier13connectNotifyEPKc @ 6 NONAME
	_ZN10CaNotifier16disconnectNotifyEPKc @ 7 NONAME
	_ZN10CaNotifier16staticMetaObjectE @ 8 NONAME DATA 16
	_ZN10CaNotifier19getStaticMetaObjectEv @ 9 NONAME
	_ZN10CaNotifier19groupContentChangedEi @ 10 NONAME
	_ZN10CaNotifierC1EP17CaNotifierPrivate @ 11 NONAME
	_ZN10CaNotifierC2EP17CaNotifierPrivate @ 12 NONAME
	_ZN10CaNotifierD0Ev @ 13 NONAME
	_ZN10CaNotifierD1Ev @ 14 NONAME
	_ZN10CaNotifierD2Ev @ 15 NONAME
	_ZN11CaItemModel10setFlagsOnERK6QFlagsI9EntryFlagE @ 16 NONAME
	_ZN11CaItemModel11countChangeEv @ 17 NONAME
	_ZN11CaItemModel11qt_metacallEN11QMetaObject4CallEiPPv @ 18 NONAME
	_ZN11CaItemModel11qt_metacastEPKc @ 19 NONAME
	_ZN11CaItemModel11setFlagsOffERK6QFlagsI9EntryFlagE @ 20 NONAME
	_ZN11CaItemModel11setIconSizeERK6QSizeF @ 21 NONAME
	_ZN11CaItemModel11setParentIdEi @ 22 NONAME
	_ZN11CaItemModel11updateModelEv @ 23 NONAME
	_ZN11CaItemModel13setAutoUpdateEb @ 24 NONAME
	_ZN11CaItemModel14updateProgressEii @ 25 NONAME
	_ZN11CaItemModel16staticMetaObjectE @ 26 NONAME DATA 16
	_ZN11CaItemModel19getStaticMetaObjectEv @ 27 NONAME
	_ZN11CaItemModel23setSecondLineVisibilityEb @ 28 NONAME
	_ZN11CaItemModel25getUninstallingEntriesIdsEi @ 29 NONAME
	_ZN11CaItemModel5emptyEb @ 30 NONAME
	_ZN11CaItemModel7setSortE13SortAttributeN2Qt9SortOrderE @ 31 NONAME
	_ZN11CaItemModel8scrollToEiN17QAbstractItemView10ScrollHintE @ 32 NONAME
	_ZN11CaItemModelC1ERK7CaQueryP7QObject @ 33 NONAME
	_ZN11CaItemModelC2ERK7CaQueryP7QObject @ 34 NONAME
	_ZN11CaItemModelD0Ev @ 35 NONAME
	_ZN11CaItemModelD1Ev @ 36 NONAME
	_ZN11CaItemModelD2Ev @ 37 NONAME
	_ZN16CaNotifierFilter11setParentIdEi @ 38 NONAME
	_ZN16CaNotifierFilter12setEntryRoleE6QFlagsI9EntryRoleE @ 39 NONAME
	_ZN16CaNotifierFilter12setTypeNamesERK11QStringList @ 40 NONAME
	_ZN16CaNotifierFilter6setIdsERK5QListIiE @ 41 NONAME
	_ZN16CaNotifierFilterC1ERK7CaQuery @ 42 NONAME
	_ZN16CaNotifierFilterC1ERKS_ @ 43 NONAME
	_ZN16CaNotifierFilterC1Ev @ 44 NONAME
	_ZN16CaNotifierFilterC2ERK7CaQuery @ 45 NONAME
	_ZN16CaNotifierFilterC2ERKS_ @ 46 NONAME
	_ZN16CaNotifierFilterC2Ev @ 47 NONAME
	_ZN16CaNotifierFilterD0Ev @ 48 NONAME
	_ZN16CaNotifierFilterD1Ev @ 49 NONAME
	_ZN16CaNotifierFilterD2Ev @ 50 NONAME
	_ZN16CaNotifierFilteraSERKS_ @ 51 NONAME
	_ZN17CaIconDescription11setFilenameERK7QString @ 52 NONAME
	_ZN17CaIconDescription16setApplicationIdERK7QString @ 53 NONAME
	_ZN17CaIconDescription5setIdEi @ 54 NONAME
	_ZN17CaIconDescription9setSkinIdERK7QString @ 55 NONAME
	_ZN17CaIconDescriptionC1ERKS_ @ 56 NONAME
	_ZN17CaIconDescriptionC1Ev @ 57 NONAME
	_ZN17CaIconDescriptionC2ERKS_ @ 58 NONAME
	_ZN17CaIconDescriptionC2Ev @ 59 NONAME
	_ZN17CaIconDescriptionD1Ev @ 60 NONAME
	_ZN17CaIconDescriptionD2Ev @ 61 NONAME
	_ZN17CaIconDescriptionaSERKS_ @ 62 NONAME
	_ZN17CaMenuIconUtility12getEntryIconERK7CaEntryRK6QSizeF @ 63 NONAME
	_ZN17CaMenuIconUtility18getApplicationIconEiRK6QSizeF @ 64 NONAME
	_ZN21CaClientNotifierProxy10newSessionERi @ 65 NONAME
	_ZN21CaClientNotifierProxy11findSessionEv @ 66 NONAME
	_ZN21CaClientNotifierProxy11qt_metacallEN11QMetaObject4CallEiPPv @ 67 NONAME
	_ZN21CaClientNotifierProxy11qt_metacastEPKc @ 68 NONAME
	_ZN21CaClientNotifierProxy15connectSessionsEv @ 69 NONAME
	_ZN21CaClientNotifierProxy16registerNotifierEPK16CaNotifierFilterN17CaNotifierPrivate12NotifierTypeEPK13IDataObserver @ 70 NONAME
	_ZN21CaClientNotifierProxy16staticMetaObjectE @ 71 NONAME DATA 16
	_ZN21CaClientNotifierProxy18unregisterNotifierERK16CaNotifierFilterN17CaNotifierPrivate12NotifierTypeE @ 72 NONAME
	_ZN21CaClientNotifierProxy19getStaticMetaObjectEv @ 73 NONAME
	_ZN21CaClientNotifierProxyC1EP7QObject @ 74 NONAME
	_ZN21CaClientNotifierProxyC2EP7QObject @ 75 NONAME
	_ZN21CaClientNotifierProxyD0Ev @ 76 NONAME
	_ZN21CaClientNotifierProxyD1Ev @ 77 NONAME
	_ZN21CaClientNotifierProxyD2Ev @ 78 NONAME
	_ZN7CaEntry12setAttributeERK7QStringS2_ @ 79 NONAME
	_ZN7CaEntry14setDescriptionERK7QStringb @ 80 NONAME
	_ZN7CaEntry16setEntryTypeNameERK7QString @ 81 NONAME
	_ZN7CaEntry18setIconDescriptionERK17CaIconDescription @ 82 NONAME
	_ZN7CaEntry5setIdEi @ 83 NONAME
	_ZN7CaEntry7setTextERK7QStringb @ 84 NONAME
	_ZN7CaEntry8setFlagsE6QFlagsI9EntryFlagE @ 85 NONAME
	_ZN7CaEntryC1E9EntryRole @ 86 NONAME
	_ZN7CaEntryC1ERKS_ @ 87 NONAME
	_ZN7CaEntryC2E9EntryRole @ 88 NONAME
	_ZN7CaEntryC2ERKS_ @ 89 NONAME
	_ZN7CaEntryD0Ev @ 90 NONAME
	_ZN7CaEntryD1Ev @ 91 NONAME
	_ZN7CaEntryD2Ev @ 92 NONAME
	_ZN7CaEntryaSERKS_ @ 93 NONAME
	_ZN7CaQuery10setChildIdEi @ 94 NONAME
	_ZN7CaQuery10setFlagsOnERK6QFlagsI9EntryFlagE @ 95 NONAME
	_ZN7CaQuery11setFlagsOffERK6QFlagsI9EntryFlagE @ 96 NONAME
	_ZN7CaQuery11setParentIdEi @ 97 NONAME
	_ZN7CaQuery12setAttributeERK7QStringS2_ @ 98 NONAME
	_ZN7CaQuery13setEntryRolesE6QFlagsI9EntryRoleE @ 99 NONAME
	_ZN7CaQuery15removeAttributeERK7QString @ 100 NONAME
	_ZN7CaQuery16addEntryTypeNameERK7QString @ 101 NONAME
	_ZN7CaQuery17setEntryTypeNamesERK11QStringList @ 102 NONAME
	_ZN7CaQuery5clearEv @ 103 NONAME
	_ZN7CaQuery7setSortE13SortAttributeN2Qt9SortOrderE @ 104 NONAME
	_ZN7CaQuery8setCountEj @ 105 NONAME
	_ZN7CaQueryC1ERKS_ @ 106 NONAME
	_ZN7CaQueryC1Ev @ 107 NONAME
	_ZN7CaQueryC2ERKS_ @ 108 NONAME
	_ZN7CaQueryC2Ev @ 109 NONAME
	_ZN7CaQueryD1Ev @ 110 NONAME
	_ZN7CaQueryD2Ev @ 111 NONAME
	_ZN7CaQueryaSERKS_ @ 112 NONAME
	_ZN9CaService10m_instanceE @ 113 NONAME DATA 8
	_ZN9CaService11qt_metacallEN11QMetaObject4CallEiPPv @ 114 NONAME
	_ZN9CaService11qt_metacastEPKc @ 115 NONAME
	_ZN9CaService12entryChangedERK7CaEntry10ChangeType @ 116 NONAME
	_ZN9CaService12entryChangedEi10ChangeType @ 117 NONAME
	_ZN9CaService12entryTouchedEi @ 118 NONAME
	_ZN9CaService16staticMetaObjectE @ 119 NONAME DATA 16
	_ZN9CaService19getStaticMetaObjectEv @ 120 NONAME
	_ZN9CaService19groupContentChangedEi @ 121 NONAME
	_ZN9CaService8instanceEv @ 122 NONAME
	_ZN9CaServiceC1EP7QObject @ 123 NONAME
	_ZN9CaServiceC2EP7QObject @ 124 NONAME
	_ZN9CaServiceD0Ev @ 125 NONAME
	_ZN9CaServiceD1Ev @ 126 NONAME
	_ZN9CaServiceD2Ev @ 127 NONAME
	_ZNK10CaNotifier10metaObjectEv @ 128 NONAME
	_ZNK11CaItemModel10metaObjectEv @ 129 NONAME
	_ZNK11CaItemModel11columnCountERK11QModelIndex @ 130 NONAME
	_ZNK11CaItemModel11getIconSizeEv @ 131 NONAME
	_ZNK11CaItemModel12isAutoUpdateEv @ 132 NONAME
	_ZNK11CaItemModel20secondLineVisibilityEv @ 133 NONAME
	_ZNK11CaItemModel4dataERK11QModelIndexi @ 134 NONAME
	_ZNK11CaItemModel4rootEv @ 135 NONAME
	_ZNK11CaItemModel5entryERK11QModelIndex @ 136 NONAME
	_ZNK11CaItemModel5indexEiiRK11QModelIndex @ 137 NONAME
	_ZNK11CaItemModel6parentERK11QModelIndex @ 138 NONAME
	_ZNK11CaItemModel8rowCountERK11QModelIndex @ 139 NONAME
	_ZNK16CaNotifierFilter11getParentIdEv @ 140 NONAME
	_ZNK16CaNotifierFilter12getEntryRoleEv @ 141 NONAME
	_ZNK16CaNotifierFilter12getTypeNamesEv @ 142 NONAME
	_ZNK16CaNotifierFilter6getIdsEv @ 143 NONAME
	_ZNK17CaIconDescription13applicationIdEv @ 144 NONAME
	_ZNK17CaIconDescription2idEv @ 145 NONAME
	_ZNK17CaIconDescription6skinIdEv @ 146 NONAME
	_ZNK17CaIconDescription8filenameEv @ 147 NONAME
	_ZNK21CaClientNotifierProxy10metaObjectEv @ 148 NONAME
	_ZNK21CaClientNotifierProxy11findSessionERK16CaNotifierFilterN22CCaInnerNotifierFilter13TNotifierTypeE @ 149 NONAME
	_ZNK7CaEntry10attributesEv @ 150 NONAME
	_ZNK7CaEntry11descriptionEv @ 151 NONAME
	_ZNK7CaEntry11isLocalizedE16LocalizationType @ 152 NONAME
	_ZNK7CaEntry13entryTypeNameEv @ 153 NONAME
	_ZNK7CaEntry15iconDescriptionEv @ 154 NONAME
	_ZNK7CaEntry2idEv @ 155 NONAME
	_ZNK7CaEntry4roleEv @ 156 NONAME
	_ZNK7CaEntry4textEv @ 157 NONAME
	_ZNK7CaEntry5flagsEv @ 158 NONAME
	_ZNK7CaEntry8makeIconERK6QSizeF @ 159 NONAME
	_ZNK7CaEntry9attributeERK7QString @ 160 NONAME
	_ZNK7CaQuery10attributesEv @ 161 NONAME
	_ZNK7CaQuery10entryRolesEv @ 162 NONAME
	_ZNK7CaQuery14entryTypeNamesEv @ 163 NONAME
	_ZNK7CaQuery5countEv @ 164 NONAME
	_ZNK7CaQuery7childIdEv @ 165 NONAME
	_ZNK7CaQuery7flagsOnEv @ 166 NONAME
	_ZNK7CaQuery7getSortER13SortAttributeRN2Qt9SortOrderE @ 167 NONAME
	_ZNK7CaQuery8flagsOffEv @ 168 NONAME
	_ZNK7CaQuery8parentIdEv @ 169 NONAME
	_ZNK7CaQuery9attributeERK7QString @ 170 NONAME
	_ZNK9CaService10customSortEiR5QListIiE @ 171 NONAME
	_ZNK9CaService10getEntriesERK5QListIiE @ 172 NONAME
	_ZNK9CaService10getEntriesERK7CaQuery @ 173 NONAME
	_ZNK9CaService10metaObjectEv @ 174 NONAME
	_ZNK9CaService11createEntryERK7CaEntry @ 175 NONAME
	_ZNK9CaService11getEntryIdsERK7CaQuery @ 176 NONAME
	_ZNK9CaService11removeEntryERK7CaEntry @ 177 NONAME
	_ZNK9CaService11removeEntryEi @ 178 NONAME
	_ZNK9CaService11updateEntryERK7CaEntry @ 179 NONAME
	_ZNK9CaService13removeEntriesERK5QListI14QSharedPointerI7CaEntryEE @ 180 NONAME
	_ZNK9CaService13removeEntriesERK5QListIiE @ 181 NONAME
	_ZNK9CaService14createNotifierERK16CaNotifierFilter @ 182 NONAME
	_ZNK9CaService14executeCommandERK7CaEntryRK7QStringP7QObjectPKc @ 183 NONAME
	_ZNK9CaService14executeCommandEiRK7QStringP7QObjectPKc @ 184 NONAME
	_ZNK9CaService18appendEntryToGroupERK7CaEntryS2_ @ 185 NONAME
	_ZNK9CaService18appendEntryToGroupEii @ 186 NONAME
	_ZNK9CaService19prependEntryToGroupERK7CaEntryS2_ @ 187 NONAME
	_ZNK9CaService19prependEntryToGroupEii @ 188 NONAME
	_ZNK9CaService20appendEntriesToGroupERK7CaEntryRK5QListI14QSharedPointerIS0_EE @ 189 NONAME
	_ZNK9CaService20appendEntriesToGroupEiRK5QListIiE @ 190 NONAME
	_ZNK9CaService20insertEntryIntoGroupERK7CaEntryS2_i @ 191 NONAME
	_ZNK9CaService20insertEntryIntoGroupEiii @ 192 NONAME
	_ZNK9CaService20removeEntryFromGroupERK7CaEntryS2_ @ 193 NONAME
	_ZNK9CaService20removeEntryFromGroupEii @ 194 NONAME
	_ZNK9CaService21prependEntriesToGroupERK7CaEntryRK5QListI14QSharedPointerIS0_EE @ 195 NONAME
	_ZNK9CaService21prependEntriesToGroupEiRK5QListIiE @ 196 NONAME
	_ZNK9CaService22insertEntriesIntoGroupERK7CaEntryRK5QListI14QSharedPointerIS0_EEi @ 197 NONAME
	_ZNK9CaService22insertEntriesIntoGroupEiRK5QListIiEi @ 198 NONAME
	_ZNK9CaService22removeEntriesFromGroupERK7CaEntryRK5QListI14QSharedPointerIS0_EE @ 199 NONAME
	_ZNK9CaService22removeEntriesFromGroupEiRK5QListIiE @ 200 NONAME
	_ZNK9CaService5touchERK7CaEntry @ 201 NONAME
	_ZNK9CaService8getEntryEi @ 202 NONAME
	_ZNK9CaService9lastErrorEv @ 203 NONAME
	_ZTI10CaNotifier @ 204 NONAME
	_ZTI11CaItemModel @ 205 NONAME
	_ZTI16CaNotifierFilter @ 206 NONAME
	_ZTI21CaClientNotifierProxy @ 207 NONAME
	_ZTI7CaEntry @ 208 NONAME
	_ZTI9CaService @ 209 NONAME
	_ZTV10CaNotifier @ 210 NONAME
	_ZTV11CaItemModel @ 211 NONAME
	_ZTV16CaNotifierFilter @ 212 NONAME
	_ZTV21CaClientNotifierProxy @ 213 NONAME
	_ZTV7CaEntry @ 214 NONAME
	_ZTV9CaService @ 215 NONAME
	_ZN7CaEntry15removeAttributeERK7QString @ 216 NONAME

