EXPORTS
	?Connect@RWmDrmClient@@QAEHXZ @ 1 NONAME ; int RWmDrmClient::Connect(void)
	?EnumerateDeleteCurrent@RWmDrmClient@@QAEHXZ @ 2 NONAME ; int RWmDrmClient::EnumerateDeleteCurrent(void)
	?EnumerateEnd@RWmDrmClient@@QAEHXZ @ 3 NONAME ; int RWmDrmClient::EnumerateEnd(void)
	?EnumerateNext@RWmDrmClient@@QAEHAAVTDes8@@000@Z @ 4 NONAME ; int RWmDrmClient::EnumerateNext(class TDes8 &, class TDes8 &, class TDes8 &, class TDes8 &)
	?EnumerateReload@RWmDrmClient@@QAEHAAVTDes8@@000@Z @ 5 NONAME ; int RWmDrmClient::EnumerateReload(class TDes8 &, class TDes8 &, class TDes8 &, class TDes8 &)
	?EnumerateStart@RWmDrmClient@@QAEHABVTDesC8@@00@Z @ 6 NONAME ; int RWmDrmClient::EnumerateStart(class TDesC8 const &, class TDesC8 const &, class TDesC8 const &)
	?InitNamespace@RWmDrmClient@@QAEHABVTDesC8@@0H@Z @ 7 NONAME ; int RWmDrmClient::InitNamespace(class TDesC8 const &, class TDesC8 const &, int)
	?InitStore@RWmDrmClient@@QAEHABVTDesC8@@H@Z @ 8 NONAME ; int RWmDrmClient::InitStore(class TDesC8 const &, int)
	?RemoveNamespace@RWmDrmClient@@QAEHABVTDesC8@@0@Z @ 9 NONAME ; int RWmDrmClient::RemoveNamespace(class TDesC8 const &, class TDesC8 const &)
	?RemoveStore@RWmDrmClient@@QAEHABVTDesC8@@@Z @ 10 NONAME ; int RWmDrmClient::RemoveStore(class TDesC8 const &)
	?SlotClose@RWmDrmClient@@QAEHXZ @ 11 NONAME ; int RWmDrmClient::SlotClose(void)
	?SlotCreate@RWmDrmClient@@QAEHABVTDesC8@@000AAH@Z @ 12 NONAME ; int RWmDrmClient::SlotCreate(class TDesC8 const &, class TDesC8 const &, class TDesC8 const &, class TDesC8 const &, int &)
	?SlotDelete@RWmDrmClient@@QAEHABVTDesC8@@000@Z @ 13 NONAME ; int RWmDrmClient::SlotDelete(class TDesC8 const &, class TDesC8 const &, class TDesC8 const &, class TDesC8 const &)
	?SlotOpen@RWmDrmClient@@QAEHABVTDesC8@@000AAH@Z @ 14 NONAME ; int RWmDrmClient::SlotOpen(class TDesC8 const &, class TDesC8 const &, class TDesC8 const &, class TDesC8 const &, int &)
	?SlotRead@RWmDrmClient@@QAEHAAVTDes8@@@Z @ 15 NONAME ; int RWmDrmClient::SlotRead(class TDes8 &)
	?SlotResize@RWmDrmClient@@QAEHH@Z @ 16 NONAME ; int RWmDrmClient::SlotResize(int)
	?SlotSeek@RWmDrmClient@@QAEHAAHW4TSeek@@@Z @ 17 NONAME ; int RWmDrmClient::SlotSeek(int &, enum TSeek)
	?SlotWrite@RWmDrmClient@@QAEHABVTDesC8@@@Z @ 18 NONAME ; int RWmDrmClient::SlotWrite(class TDesC8 const &)
	?EmptyCache@RWmDrmClient@@QAEHXZ @ 19 NONAME ; int RWmDrmClient::EmptyCache(void)
	?LogStats@RWmDrmClient@@QAEHXZ @ 20 NONAME ; int RWmDrmClient::LogStats(void)
	?TimeValid@RWmDrmClient@@QAEHXZ @ 21 NONAME ; int RWmDrmClient::TimeValid(void)
	?SetTimeAsValid@RWmDrmClient@@QAEXH@Z @ 22 NONAME ; void RWmDrmClient::SetTimeAsValid(int)
	?DeleteRights@RWmDrmClient@@QAEHXZ @ 23 NONAME ; int RWmDrmClient::DeleteRights(void)
	?StoreState@RWmDrmClient@@QAEHAAW4TWmDrmStoreState@@@Z @ 24 NONAME ; int RWmDrmClient::StoreState(enum TWmDrmStoreState &)
	?GetTime@RWmDrmClient@@QAEHAAVTTime@@AAH@Z @ 25 NONAME ; int RWmDrmClient::GetTime(class TTime &, int &)
	?CommitData@RWmDrmClient@@QAEHXZ @ 26 NONAME ; int RWmDrmClient::CommitData(void)

