EXPORTS
	_ZN13RASCliSession12NotifyChangeER14TRequestStatusRi @ 1 NONAME
	_ZN13RASCliSession13SetClientDataERK11TASShdAlarm @ 2 NONAME
	_ZN13RASCliSession24AlarmAddWithNotificationER14TRequestStatusR11TASShdAlarm @ 3 NONAME
	_ZN13RASCliSession24AlarmAddWithNotificationER14TRequestStatusR11TASShdAlarmRK6TDesC8 @ 4 NONAME
	_ZN13RASCliSession7ConnectEv @ 5 NONAME
	_ZN13RASCliSessionC1Ev @ 6 NONAME
	_ZN13RASCliSessionC2Ev @ 7 NONAME
	_ZN16ASCliDefinitions19ServerAndThreadNameEv @ 8 NONAME
	_ZN16AlarmClientUtils16StartAlarmServerEv @ 9 NONAME
	_ZNK13RASCliSession11AlarmDeleteEi @ 10 NONAME
	_ZNK13RASCliSession12GetAlarmDataEiR5TDes8 @ 11 NONAME
	_ZNK13RASCliSession13AlarmDataSizeEi @ 12 NONAME
	_ZNK13RASCliSession13GetAlarmOwnerEiR4TBufILi256EE @ 13 NONAME
	_ZNK13RASCliSession14GetAlarmStatusEiR12TAlarmStatus @ 14 NONAME
	_ZNK13RASCliSession14SetAlarmStatusEi12TAlarmStatus @ 15 NONAME
	_ZNK13RASCliSession14__DbgFailAllocEi @ 16 NONAME
	_ZNK13RASCliSession15AlarmDataDetachEi @ 17 NONAME
	_ZNK13RASCliSession15GetAlarmDetailsEiR11TASShdAlarm @ 18 NONAME
	_ZNK13RASCliSession15GetAlarmIdListLER6RArrayIiE @ 19 NONAME
	_ZNK13RASCliSession16AlarmDataAttachLEiRK6TDesC8 @ 20 NONAME
	_ZNK13RASCliSession16GetAlarmCategoryEiR4TUid @ 21 NONAME
	_ZNK13RASCliSession16__DbgSnoozeAlarmEiRK5TTime @ 22 NONAME
	_ZNK13RASCliSession17AlarmCountByStateE11TAlarmState @ 23 NONAME
	_ZNK13RASCliSession17GetNextDueAlarmIdERi @ 24 NONAME
	_ZNK13RASCliSession18CancelAlarmSilenceEv @ 25 NONAME
	_ZNK13RASCliSession18GetAlarmDayOrTimedEiR16TAlarmDayOrTimed @ 26 NONAME
	_ZNK13RASCliSession18GetAlarmSoundStateER22TAlarmGlobalSoundState @ 27 NONAME
	_ZNK13RASCliSession18NotifyChangeCancelEv @ 28 NONAME
	_ZNK13RASCliSession18SetAlarmDayOrTimedEi16TAlarmDayOrTimed @ 29 NONAME
	_ZNK13RASCliSession18SetAlarmSoundStateE22TAlarmGlobalSoundState @ 30 NONAME
	_ZNK13RASCliSession19__DbgShutDownServerEv @ 31 NONAME
	_ZNK13RASCliSession22GetAlarmIdListByStateLE11TAlarmStateR6RArrayIiE @ 32 NONAME
	_ZNK13RASCliSession22GetAlarmPlayIntervalsLER9CArrayFixI25TASCliSoundPlayDefinitionE @ 33 NONAME
	_ZNK13RASCliSession22SetAlarmPlayIntervalsLERK9CArrayFixI25TASCliSoundPlayDefinitionE @ 34 NONAME
	_ZNK13RASCliSession22__DbgPreventUserNotifyEi @ 35 NONAME
	_ZNK13RASCliSession23GetAlarmCharacteristicsEiR10TBitFlagsTIhE @ 36 NONAME
	_ZNK13RASCliSession23SetAlarmCharacteristicsEi10TBitFlagsTIhE @ 37 NONAME
	_ZNK13RASCliSession23SetAlarmSoundsSilentForE20TTimeIntervalMinutes @ 38 NONAME
	_ZNK13RASCliSession24AlarmDeleteAllByCategoryE4TUidi @ 39 NONAME
	_ZNK13RASCliSession24GetAlarmCountForCategoryE4TUid @ 40 NONAME
	_ZNK13RASCliSession24SetAlarmStatusByCategoryE4TUid12TAlarmStatus @ 41 NONAME
	_ZNK13RASCliSession25GetAlarmSoundsSilentUntilER5TTime @ 42 NONAME
	_ZNK13RASCliSession25GetAvailableCategoryListLER6RArrayI4TUidE @ 43 NONAME
	_ZNK13RASCliSession25SetAlarmSoundsSilentUntilERK5TTime @ 44 NONAME
	_ZNK13RASCliSession26GetAlarmIdListForCategoryLE4TUidR6RArrayIiE @ 45 NONAME
	_ZNK13RASCliSession27NumberOfAlarmsActiveInQueueEv @ 46 NONAME
	_ZNK13RASCliSession30AlarmSoundsTemporarilySilencedEv @ 47 NONAME
	_ZNK13RASCliSession33AlarmNotificationCancelAndDequeueEi @ 48 NONAME
	_ZNK13RASCliSession7VersionEv @ 49 NONAME
	_ZNK13RASCliSession8AlarmAddER11TASShdAlarm @ 50 NONAME
	_ZNK13RASCliSession8AlarmAddER11TASShdAlarmRK6TDesC8 @ 51 NONAME
	_ZNK13RASCliSession21AlarmDeleteByCategoryE4TUidi @ 52 NONAME
	_ZNK13RASCliSession12GetAlarmDataEiRP6HBufC8 @ 53 NONAME
	_ZNK13RASCliSession9SetWakeupEii @ 54 NONAME
	_ZNK13RASCliSession12GetAlarmDaysEiRh @ 55 NONAME ABSENT
	_ZNK13RASCliSession12SetAlarmDaysEih @ 56 NONAME ABSENT
	_ZNK13RASCliSession13GetContinuousEiRi @ 57 NONAME ABSENT
	_ZNK13RASCliSession13SetContinuousEii @ 58 NONAME ABSENT
	_ZNK13RASCliSession22__DbgSetEnvChgHandlingEi @ 59 NONAME
