EXPORTS
	_Z18new_eap_am_stack_cP18abs_eap_am_tools_cb @ 1 NONAME
	_ZN11EapClientIf19GetServerNameAndExeEP4TBufILi24EES2_ @ 2 NONAME
	_ZN11EapClientIfC1Ev @ 3 NONAME
	_ZN11EapClientIfC2Ev @ 4 NONAME
	_ZN11EapClientIfD0Ev @ 5 NONAME
	_ZN11EapClientIfD1Ev @ 6 NONAME
	_ZN11EapClientIfD2Ev @ 7 NONAME
	_ZN13CEapScheduler11ThreadStartERNS_12TServerStartE @ 8 NONAME
	_ZN13CEapScheduler16LaunchFromClientE4TBufILi24EE @ 9 NONAME
	_ZN13CEapScheduler4NewLEv @ 10 NONAME
	_ZN22eap_am_stack_symbian_c11load_moduleE19eap_expanded_type_cS0_P19abs_eap_base_type_cPP15eap_base_type_cbPK19eap_am_network_id_c @ 11 NONAME
	_ZN22eap_am_stack_symbian_c11set_partnerEP18abs_eap_am_stack_cP26abs_eap_configuration_if_c @ 12 NONAME
	_ZN22eap_am_stack_symbian_c12cancel_timerEP20abs_eap_base_timer_cm @ 13 NONAME
	_ZN22eap_am_stack_symbian_c12get_is_validEv @ 14 NONAME
	_ZN22eap_am_stack_symbian_c14read_configureEPK25eap_configuration_field_cP19eap_variable_data_c @ 15 NONAME
	_ZN22eap_am_stack_symbian_c17get_eap_type_listEP11eap_array_cI19eap_expanded_type_cE @ 16 NONAME
	_ZN22eap_am_stack_symbian_c23check_is_valid_eap_typeE19eap_expanded_type_c @ 17 NONAME
	_ZN22eap_am_stack_symbian_c26save_simple_config_sessionE21simple_config_state_ePK11eap_array_cI26simple_config_credential_cEPK19eap_variable_data_c34simple_config_Device_Password_ID_ePK24simple_config_payloads_c @ 18 NONAME
	_ZN22eap_am_stack_symbian_c30get_802_11_authentication_modeEPK19eap_am_network_id_c31eapol_key_authentication_type_e @ 19 NONAME
	_ZN22eap_am_stack_symbian_c33set_eap_database_reference_valuesEPK19eap_variable_data_c @ 20 NONAME
	_ZN22eap_am_stack_symbian_c8shutdownEv @ 21 NONAME
	_ZN22eap_am_stack_symbian_c9configureEPK19eap_variable_data_c @ 22 NONAME
	_ZN22eap_am_stack_symbian_c9set_timerEP20abs_eap_base_timer_cmPvm @ 23 NONAME
	_ZN22eap_am_stack_symbian_cC1EP18abs_eap_am_tools_cb @ 24 NONAME
	_ZN22eap_am_stack_symbian_cC2EP18abs_eap_am_tools_cb @ 25 NONAME
	_ZN22eap_am_stack_symbian_cD0Ev @ 26 NONAME
	_ZN22eap_am_stack_symbian_cD1Ev @ 27 NONAME
	_ZN22eap_am_stack_symbian_cD2Ev @ 28 NONAME
	_ZN24eapol_key_state_string_c26get_eapol_key_state_stringE17eapol_key_state_e @ 29 NONAME
	_ZN24eapol_key_state_string_c35get_eapol_key_handshake_type_stringE26eapol_key_handshake_type_e @ 30 NONAME
	_ZN24eapol_key_state_string_c36get_eapol_key_descriptor_type_stringE27eapol_key_descriptor_type_e @ 31 NONAME
	_ZN24eapol_key_state_string_c40get_eapol_key_authentication_type_stringE31eapol_key_authentication_type_e @ 32 NONAME
	_ZN24eapol_key_state_string_cC1Ev @ 33 NONAME
	_ZN24eapol_key_state_string_cC2Ev @ 34 NONAME
	_ZN24eapol_key_state_string_cD0Ev @ 35 NONAME
	_ZN24eapol_key_state_string_cD1Ev @ 36 NONAME
	_ZN24eapol_key_state_string_cD2Ev @ 37 NONAME
	_ZN28eap_core_server_message_if_c11load_moduleE19eap_expanded_type_cS0_P19abs_eap_base_type_cPP15eap_base_type_cbPK19eap_am_network_id_c @ 38 NONAME
	_ZN28eap_core_server_message_if_c11packet_sendEPK19eap_am_network_id_cP18eap_buf_chain_wr_cmmm @ 39 NONAME
	_ZN28eap_core_server_message_if_c11set_partnerEP23abs_eap_am_message_if_c @ 40 NONAME
	_ZN28eap_core_server_message_if_c12add_rogue_apER11eap_array_cI20eap_rogue_ap_entry_cE @ 41 NONAME
	_ZN28eap_core_server_message_if_c12cancel_timerEP20abs_eap_base_timer_cm @ 42 NONAME
	_ZN28eap_core_server_message_if_c12get_is_validEv @ 43 NONAME
	_ZN28eap_core_server_message_if_c12process_dataEPKvm @ 44 NONAME
	_ZN28eap_core_server_message_if_c12send_messageEP30eap_process_tlv_message_data_c @ 45 NONAME
	_ZN28eap_core_server_message_if_c12set_is_validEv @ 46 NONAME
	_ZN28eap_core_server_message_if_c13timer_expiredEmPv @ 47 NONAME
	_ZN28eap_core_server_message_if_c13unload_moduleE19eap_expanded_type_c @ 48 NONAME
	_ZN28eap_core_server_message_if_c14read_configureEPK25eap_configuration_field_cP19eap_variable_data_c @ 49 NONAME
	_ZN28eap_core_server_message_if_c15eap_acknowledgeEPK11eap_array_cI16eap_tlv_header_cE @ 50 NONAME
	_ZN28eap_core_server_message_if_c15process_messageEP30eap_process_tlv_message_data_c @ 51 NONAME
	_ZN28eap_core_server_message_if_c15write_configureEPK25eap_configuration_field_cP19eap_variable_data_c @ 52 NONAME
	_ZN28eap_core_server_message_if_c17get_eap_type_listEP11eap_array_cI19eap_expanded_type_cE @ 53 NONAME
	_ZN28eap_core_server_message_if_c17get_header_offsetEPmS0_ @ 54 NONAME
	_ZN28eap_core_server_message_if_c17timer_delete_dataEmPv @ 55 NONAME
	_ZN28eap_core_server_message_if_c18send_error_messageE12eap_status_e31eap_tlv_message_type_function_e @ 56 NONAME
	_ZN28eap_core_server_message_if_c18state_notificationEPK28abs_eap_state_notification_c @ 57 NONAME
	_ZN28eap_core_server_message_if_c19set_session_timeoutEm @ 58 NONAME
	_ZN28eap_core_server_message_if_c22restart_authenticationEPK19eap_am_network_id_cbbb @ 59 NONAME
	_ZN28eap_core_server_message_if_c23check_is_valid_eap_typeE19eap_expanded_type_c @ 60 NONAME
	_ZN28eap_core_server_message_if_c23packet_data_crypto_keysEPK19eap_am_network_id_cPK24eap_master_session_key_c @ 61 NONAME
	_ZN28eap_core_server_message_if_c26process_message_type_errorEPK11eap_array_cI16eap_tlv_header_cE @ 62 NONAME
	_ZN28eap_core_server_message_if_c26save_simple_config_sessionE21simple_config_state_ePK11eap_array_cI26simple_config_credential_cEPK19eap_variable_data_c34simple_config_Device_Password_ID_ePK24simple_config_payloads_c @ 63 NONAME
	_ZN28eap_core_server_message_if_c27complete_remove_eap_sessionEbPK19eap_am_network_id_c @ 64 NONAME
	_ZN28eap_core_server_message_if_c30get_802_11_authentication_modeEPK11eap_array_cI16eap_tlv_header_cE @ 65 NONAME
	_ZN28eap_core_server_message_if_c33asynchronous_start_authenticationEPK19eap_am_network_id_cb @ 66 NONAME
	_ZN28eap_core_server_message_if_c36asynchronous_init_remove_eap_sessionEPK19eap_am_network_id_c @ 67 NONAME
	_ZN28eap_core_server_message_if_c39complete_get_802_11_authentication_modeE12eap_status_ePK19eap_am_network_id_c38eapol_key_802_11_authentication_mode_e @ 68 NONAME
	_ZN28eap_core_server_message_if_c7eap_mtuEPK11eap_array_cI16eap_tlv_header_cE @ 69 NONAME
	_ZN28eap_core_server_message_if_c8shutdownEv @ 70 NONAME
	_ZN28eap_core_server_message_if_c9configureEPK19eap_variable_data_c @ 71 NONAME
	_ZN28eap_core_server_message_if_c9set_timerEP20abs_eap_base_timer_cmPvm @ 72 NONAME
	_ZN28eap_core_server_message_if_cC1EP18abs_eap_am_tools_cbm @ 73 NONAME
	_ZN28eap_core_server_message_if_cC2EP18abs_eap_am_tools_cbm @ 74 NONAME
	_ZN28eap_core_server_message_if_cD0Ev @ 75 NONAME
	_ZN28eap_core_server_message_if_cD1Ev @ 76 NONAME
	_ZN28eap_core_server_message_if_cD2Ev @ 77 NONAME
	_ZN30eap_plugin_server_message_if_c11set_partnerEP23abs_eap_am_message_if_c @ 78 NONAME
	_ZN30eap_plugin_server_message_if_c12get_is_validEv @ 79 NONAME
	_ZN30eap_plugin_server_message_if_c12process_dataEPKvm @ 80 NONAME
	_ZN30eap_plugin_server_message_if_c12send_messageEP30eap_process_tlv_message_data_c @ 81 NONAME
	_ZN30eap_plugin_server_message_if_c12set_is_validEv @ 82 NONAME
	_ZN30eap_plugin_server_message_if_c13timer_expiredEmPv @ 83 NONAME
	_ZN30eap_plugin_server_message_if_c15process_messageEP30eap_process_tlv_message_data_c @ 84 NONAME
	_ZN30eap_plugin_server_message_if_c17timer_delete_dataEmPv @ 85 NONAME
	_ZN30eap_plugin_server_message_if_c18complete_invoke_uiEPK21eap_method_settings_c @ 86 NONAME
	_ZN30eap_plugin_server_message_if_c18complete_set_indexEPK21eap_method_settings_c @ 87 NONAME
	_ZN30eap_plugin_server_message_if_c18send_error_messageE12eap_status_e31eap_tlv_message_type_function_e @ 88 NONAME
	_ZN30eap_plugin_server_message_if_c22complete_get_type_infoEPK21eap_method_settings_c @ 89 NONAME
	_ZN30eap_plugin_server_message_if_c26complete_get_configurationEPK21eap_method_settings_c @ 90 NONAME
	_ZN30eap_plugin_server_message_if_c26complete_set_configurationEPK21eap_method_settings_c @ 91 NONAME
	_ZN30eap_plugin_server_message_if_c26process_message_type_errorEPK11eap_array_cI16eap_tlv_header_cE @ 92 NONAME
	_ZN30eap_plugin_server_message_if_c27complete_copy_configurationEPK21eap_method_settings_c @ 93 NONAME
	_ZN30eap_plugin_server_message_if_c29complete_delete_configurationEPK21eap_method_settings_c @ 94 NONAME
	_ZN30eap_plugin_server_message_if_c8shutdownEv @ 95 NONAME
	_ZN30eap_plugin_server_message_if_c9configureEPK19eap_variable_data_c @ 96 NONAME
	_ZN30eap_plugin_server_message_if_cC1EP18abs_eap_am_tools_c @ 97 NONAME
	_ZN30eap_plugin_server_message_if_cC2EP18abs_eap_am_tools_c @ 98 NONAME
	_ZN30eap_plugin_server_message_if_cD0Ev @ 99 NONAME
	_ZN30eap_plugin_server_message_if_cD1Ev @ 100 NONAME
	_ZN30eap_plugin_server_message_if_cD2Ev @ 101 NONAME
	_ZN40eap_general_settings_server_message_if_c11set_partnerEP23abs_eap_am_message_if_c @ 102 NONAME
	_ZN40eap_general_settings_server_message_if_c12get_is_validEv @ 103 NONAME
	_ZN40eap_general_settings_server_message_if_c12process_dataEPKvm @ 104 NONAME
	_ZN40eap_general_settings_server_message_if_c12send_messageEP30eap_process_tlv_message_data_c @ 105 NONAME
	_ZN40eap_general_settings_server_message_if_c12set_is_validEv @ 106 NONAME
	_ZN40eap_general_settings_server_message_if_c13timer_expiredEmPv @ 107 NONAME
	_ZN40eap_general_settings_server_message_if_c15process_messageEP30eap_process_tlv_message_data_c @ 108 NONAME
	_ZN40eap_general_settings_server_message_if_c17timer_delete_dataEmPv @ 109 NONAME
	_ZN40eap_general_settings_server_message_if_c18send_error_messageE12eap_status_e31eap_tlv_message_type_function_e @ 110 NONAME
	_ZN40eap_general_settings_server_message_if_c24complete_get_eap_methodsEPK21eap_method_settings_c @ 111 NONAME
	_ZN40eap_general_settings_server_message_if_c24complete_set_eap_methodsEPK21eap_method_settings_c @ 112 NONAME
	_ZN40eap_general_settings_server_message_if_c26process_message_type_errorEPK11eap_array_cI16eap_tlv_header_cE @ 113 NONAME
	_ZN40eap_general_settings_server_message_if_c30complete_copy_all_eap_settingsEPK21eap_method_settings_c @ 114 NONAME
	_ZN40eap_general_settings_server_message_if_c30complete_get_certificate_listsEPK21eap_method_settings_c @ 115 NONAME
	_ZN40eap_general_settings_server_message_if_c32complete_delete_all_eap_settingsEPK21eap_method_settings_c @ 116 NONAME
	_ZN40eap_general_settings_server_message_if_c8shutdownEv @ 117 NONAME
	_ZN40eap_general_settings_server_message_if_c9configureEPK19eap_variable_data_c @ 118 NONAME
	_ZN40eap_general_settings_server_message_if_cC1EP18abs_eap_am_tools_c @ 119 NONAME
	_ZN40eap_general_settings_server_message_if_cC2EP18abs_eap_am_tools_c @ 120 NONAME
	_ZN40eap_general_settings_server_message_if_cD0Ev @ 121 NONAME
	_ZN40eap_general_settings_server_message_if_cD1Ev @ 122 NONAME
	_ZN40eap_general_settings_server_message_if_cD2Ev @ 123 NONAME
	_ZTI10CEapCoreIf @ 124 NONAME
	_ZTI10CEapServer @ 125 NONAME
	_ZTI11CEapSession @ 126 NONAME
	_ZTI11EapClientIf @ 127 NONAME
	_ZTI12CEapPluginIf @ 128 NONAME
	_ZTI13CEapScheduler @ 129 NONAME
	_ZTI14CEapSettingsIf @ 130 NONAME
	_ZTI16CEapserverBackup @ 131 NONAME
	_ZTI17eap_loaded_type_c @ 132 NONAME
	_ZTI19CEapDelayedShutdown @ 133 NONAME
	_ZTI19eap_method_values_c @ 134 NONAME
	_ZTI21eap_method_settings_c @ 135 NONAME
	_ZTI22CEapTlsPeapCertFetcher @ 136 NONAME
	_ZTI22eap_am_stack_symbian_c @ 137 NONAME
	_ZTI23eap_am_plugin_symbian_c @ 138 NONAME
	_ZTI23eap_certificate_entry_c @ 139 NONAME
	_ZTI24CEapServerProcessHandler @ 140 NONAME
	_ZTI24eapol_key_state_string_c @ 141 NONAME
	_ZTI28eap_core_server_message_if_c @ 142 NONAME
	_ZTI30eap_plugin_server_message_if_c @ 143 NONAME
	_ZTI33eap_am_general_settings_symbian_c @ 144 NONAME
	_ZTI40eap_general_settings_server_message_if_c @ 145 NONAME
	_ZTV10CEapCoreIf @ 146 NONAME
	_ZTV10CEapServer @ 147 NONAME
	_ZTV11CEapSession @ 148 NONAME
	_ZTV11EapClientIf @ 149 NONAME
	_ZTV12CEapPluginIf @ 150 NONAME
	_ZTV13CEapScheduler @ 151 NONAME
	_ZTV14CEapSettingsIf @ 152 NONAME
	_ZTV16CEapserverBackup @ 153 NONAME
	_ZTV17eap_loaded_type_c @ 154 NONAME
	_ZTV19CEapDelayedShutdown @ 155 NONAME
	_ZTV19eap_method_values_c @ 156 NONAME
	_ZTV21eap_method_settings_c @ 157 NONAME
	_ZTV22CEapTlsPeapCertFetcher @ 158 NONAME
	_ZTV22eap_am_stack_symbian_c @ 159 NONAME
	_ZTV23eap_am_plugin_symbian_c @ 160 NONAME
	_ZTV23eap_certificate_entry_c @ 161 NONAME
	_ZTV24CEapServerProcessHandler @ 162 NONAME
	_ZTV24eapol_key_state_string_c @ 163 NONAME
	_ZTV28eap_core_server_message_if_c @ 164 NONAME
	_ZTV30eap_plugin_server_message_if_c @ 165 NONAME
	_ZTV33eap_am_general_settings_symbian_c @ 166 NONAME
	_ZTV40eap_general_settings_server_message_if_c @ 167 NONAME
	_ZThn12_N28eap_core_server_message_if_c39complete_get_802_11_authentication_modeE12eap_status_ePK19eap_am_network_id_c38eapol_key_802_11_authentication_mode_e @ 168 NONAME
	_ZThn12_N28eap_core_server_message_if_cD0Ev @ 169 NONAME
	_ZThn12_N28eap_core_server_message_if_cD1Ev @ 170 NONAME
	_ZThn28_N22eap_am_stack_symbian_c11load_moduleE19eap_expanded_type_cS0_P19abs_eap_base_type_cPP15eap_base_type_cbPK19eap_am_network_id_c @ 171 NONAME
	_ZThn28_N22eap_am_stack_symbian_c11set_partnerEP18abs_eap_am_stack_cP26abs_eap_configuration_if_c @ 172 NONAME
	_ZThn28_N22eap_am_stack_symbian_c12cancel_timerEP20abs_eap_base_timer_cm @ 173 NONAME
	_ZThn28_N22eap_am_stack_symbian_c12get_is_validEv @ 174 NONAME
	_ZThn28_N22eap_am_stack_symbian_c14read_configureEPK25eap_configuration_field_cP19eap_variable_data_c @ 175 NONAME
	_ZThn28_N22eap_am_stack_symbian_c17get_eap_type_listEP11eap_array_cI19eap_expanded_type_cE @ 176 NONAME
	_ZThn28_N22eap_am_stack_symbian_c23check_is_valid_eap_typeE19eap_expanded_type_c @ 177 NONAME
	_ZThn28_N22eap_am_stack_symbian_c30get_802_11_authentication_modeEPK19eap_am_network_id_c31eapol_key_authentication_type_e @ 178 NONAME
	_ZThn28_N22eap_am_stack_symbian_c33set_eap_database_reference_valuesEPK19eap_variable_data_c @ 179 NONAME
	_ZThn28_N22eap_am_stack_symbian_c8shutdownEv @ 180 NONAME
	_ZThn28_N22eap_am_stack_symbian_c9configureEPK19eap_variable_data_c @ 181 NONAME
	_ZThn28_N22eap_am_stack_symbian_c9set_timerEP20abs_eap_base_timer_cmPvm @ 182 NONAME
	_ZThn28_N22eap_am_stack_symbian_cD0Ev @ 183 NONAME
	_ZThn28_N22eap_am_stack_symbian_cD1Ev @ 184 NONAME
	_ZThn32_N22eap_am_stack_symbian_c26save_simple_config_sessionE21simple_config_state_ePK11eap_array_cI26simple_config_credential_cEPK19eap_variable_data_c34simple_config_Device_Password_ID_ePK24simple_config_payloads_c @ 185 NONAME
	_ZThn32_N22eap_am_stack_symbian_cD0Ev @ 186 NONAME
	_ZThn32_N22eap_am_stack_symbian_cD1Ev @ 187 NONAME
	_ZThn4_N28eap_core_server_message_if_c11set_partnerEP23abs_eap_am_message_if_c @ 188 NONAME
	_ZThn4_N28eap_core_server_message_if_c12get_is_validEv @ 189 NONAME
	_ZThn4_N28eap_core_server_message_if_c12process_dataEPKvm @ 190 NONAME
	_ZThn4_N28eap_core_server_message_if_c8shutdownEv @ 191 NONAME
	_ZThn4_N28eap_core_server_message_if_c9configureEPK19eap_variable_data_c @ 192 NONAME
	_ZThn4_N28eap_core_server_message_if_cD0Ev @ 193 NONAME
	_ZThn4_N28eap_core_server_message_if_cD1Ev @ 194 NONAME
	_ZThn4_N30eap_plugin_server_message_if_c11set_partnerEP23abs_eap_am_message_if_c @ 195 NONAME
	_ZThn4_N30eap_plugin_server_message_if_c12get_is_validEv @ 196 NONAME
	_ZThn4_N30eap_plugin_server_message_if_c12process_dataEPKvm @ 197 NONAME
	_ZThn4_N30eap_plugin_server_message_if_c8shutdownEv @ 198 NONAME
	_ZThn4_N30eap_plugin_server_message_if_c9configureEPK19eap_variable_data_c @ 199 NONAME
	_ZThn4_N30eap_plugin_server_message_if_cD0Ev @ 200 NONAME
	_ZThn4_N30eap_plugin_server_message_if_cD1Ev @ 201 NONAME
	_ZThn4_N40eap_general_settings_server_message_if_c11set_partnerEP23abs_eap_am_message_if_c @ 202 NONAME
	_ZThn4_N40eap_general_settings_server_message_if_c12get_is_validEv @ 203 NONAME
	_ZThn4_N40eap_general_settings_server_message_if_c12process_dataEPKvm @ 204 NONAME
	_ZThn4_N40eap_general_settings_server_message_if_c8shutdownEv @ 205 NONAME
	_ZThn4_N40eap_general_settings_server_message_if_c9configureEPK19eap_variable_data_c @ 206 NONAME
	_ZThn4_N40eap_general_settings_server_message_if_cD0Ev @ 207 NONAME
	_ZThn4_N40eap_general_settings_server_message_if_cD1Ev @ 208 NONAME
	_ZThn8_N28eap_core_server_message_if_c13timer_expiredEmPv @ 209 NONAME
	_ZThn8_N28eap_core_server_message_if_c17timer_delete_dataEmPv @ 210 NONAME
	_ZThn8_N28eap_core_server_message_if_cD0Ev @ 211 NONAME
	_ZThn8_N28eap_core_server_message_if_cD1Ev @ 212 NONAME
	_ZThn8_N30eap_plugin_server_message_if_c13timer_expiredEmPv @ 213 NONAME
	_ZThn8_N30eap_plugin_server_message_if_c17timer_delete_dataEmPv @ 214 NONAME
	_ZThn8_N30eap_plugin_server_message_if_cD0Ev @ 215 NONAME
	_ZThn8_N30eap_plugin_server_message_if_cD1Ev @ 216 NONAME
	_ZThn8_N40eap_general_settings_server_message_if_c13timer_expiredEmPv @ 217 NONAME
	_ZThn8_N40eap_general_settings_server_message_if_c17timer_delete_dataEmPv @ 218 NONAME
	_ZThn8_N40eap_general_settings_server_message_if_cD0Ev @ 219 NONAME
	_ZThn8_N40eap_general_settings_server_message_if_cD1Ev @ 220 NONAME

