EXPORTS
	_ZN12eapol_core_c11associationEPK19eap_am_network_id_c31eapol_key_authentication_type_ePK19eap_variable_data_cS6_N23eapol_RSNA_key_header_c19eapol_RSNA_cipher_eES8_S6_ @ 1 NONAME
	_ZN12eapol_core_c11load_moduleE19eap_expanded_type_cS0_P19abs_eap_base_type_cPP15eap_base_type_cbPK19eap_am_network_id_c @ 2 NONAME
	_ZN12eapol_core_c11packet_sendEPK19eap_am_network_id_cP18eap_buf_chain_wr_cmmm @ 3 NONAME
	_ZN12eapol_core_c11send_logoffEPK19eap_am_network_id_c @ 4 NONAME
	_ZN12eapol_core_c12add_rogue_apER11eap_array_cI20eap_rogue_ap_entry_cE @ 5 NONAME
	_ZN12eapol_core_c12cancel_timerEP20abs_eap_base_timer_cm @ 6 NONAME
	_ZN12eapol_core_c12create_stateEPK19eap_am_network_id_c31eapol_key_authentication_type_e @ 7 NONAME
	_ZN12eapol_core_c12get_is_validEv @ 8 NONAME
	_ZN12eapol_core_c12set_is_validEv @ 9 NONAME
	_ZN12eapol_core_c13timer_expiredEmPv @ 10 NONAME
	_ZN12eapol_core_c13unload_moduleE19eap_expanded_type_c @ 11 NONAME
	_ZN12eapol_core_c14disassociationEbPK19eap_am_network_id_c @ 12 NONAME
	_ZN12eapol_core_c14packet_processEPK19eap_am_network_id_cP25eap_general_header_base_cm @ 13 NONAME
	_ZN12eapol_core_c14read_configureEPK25eap_configuration_field_cP19eap_variable_data_c @ 14 NONAME
	_ZN12eapol_core_c15eap_acknowledgeEPK19eap_am_network_id_c @ 15 NONAME
	_ZN12eapol_core_c15write_configureEPK25eap_configuration_field_cP19eap_variable_data_c @ 16 NONAME
	_ZN12eapol_core_c16tkip_mic_failureEPK19eap_am_network_id_cbN23eapol_RSNA_key_header_c29eapol_tkip_mic_failure_type_eE @ 17 NONAME
	_ZN12eapol_core_c17check_pmksa_cacheEP11eap_array_cI19eap_am_network_id_cE31eapol_key_authentication_type_eN23eapol_RSNA_key_header_c19eapol_RSNA_cipher_eES6_ @ 18 NONAME
	_ZN12eapol_core_c17get_eap_type_listEP11eap_array_cI19eap_expanded_type_cE @ 19 NONAME
	_ZN12eapol_core_c17get_header_offsetEPmS0_ @ 20 NONAME
	_ZN12eapol_core_c17timer_delete_dataEmPv @ 21 NONAME
	_ZN12eapol_core_c18shutdown_operationEP17eapol_key_state_cP18abs_eap_am_tools_c @ 22 NONAME
	_ZN12eapol_core_c18state_notificationEPK28abs_eap_state_notification_c @ 23 NONAME
	_ZN12eapol_core_c19set_session_timeoutEm @ 24 NONAME
	_ZN12eapol_core_c19start_reassociationEPK19eap_am_network_id_c31eapol_key_authentication_type_ePK19eap_variable_data_c @ 25 NONAME
	_ZN12eapol_core_c22complete_reassociationE33eapol_wlan_authentication_state_ePK19eap_am_network_id_c31eapol_key_authentication_type_ePK19eap_variable_data_cS7_N23eapol_RSNA_key_header_c19eapol_RSNA_cipher_eES9_ @ 26 NONAME
	_ZN12eapol_core_c22remove_eapol_key_stateEPK19eap_am_network_id_cb @ 27 NONAME
	_ZN12eapol_core_c22restart_authenticationEPK19eap_am_network_id_cbbb @ 28 NONAME
	_ZN12eapol_core_c23check_is_valid_eap_typeE19eap_expanded_type_c @ 29 NONAME
	_ZN12eapol_core_c23packet_data_crypto_keysEPK19eap_am_network_id_cPK24eap_master_session_key_c @ 30 NONAME
	_ZN12eapol_core_c23packet_data_session_keyEPK19eap_am_network_id_cPK19eapol_session_key_c @ 31 NONAME
	_ZN12eapol_core_c23remove_pmksa_from_cacheEPK19eap_am_network_id_c @ 32 NONAME
	_ZN12eapol_core_c23start_preauthenticationEPK19eap_am_network_id_c31eapol_key_authentication_type_e @ 33 NONAME
	_ZN12eapol_core_c26save_simple_config_sessionE21simple_config_state_ePK11eap_array_cI26simple_config_credential_cEPK19eap_variable_data_c34simple_config_Device_Password_ID_ePK24simple_config_payloads_c @ 34 NONAME
	_ZN12eapol_core_c27complete_remove_eap_sessionEbPK19eap_am_network_id_c @ 35 NONAME
	_ZN12eapol_core_c29cancel_authentication_sessionEP17eapol_key_state_cP18abs_eap_am_tools_c @ 36 NONAME
	_ZN12eapol_core_c29read_reassociation_parametersEPK19eap_am_network_id_cS2_31eapol_key_authentication_type_eP19eap_variable_data_cPKS4_S7_ @ 37 NONAME
	_ZN12eapol_core_c30get_802_11_authentication_modeEPK19eap_am_network_id_c31eapol_key_authentication_type_ePK19eap_variable_data_cS6_ @ 38 NONAME
	_ZN12eapol_core_c33asynchronous_start_authenticationEPK19eap_am_network_id_cb @ 39 NONAME
	_ZN12eapol_core_c33set_eap_database_reference_valuesEPK19eap_variable_data_c @ 40 NONAME
	_ZN12eapol_core_c34cancel_all_authentication_sessionsEv @ 41 NONAME
	_ZN12eapol_core_c36asynchronous_init_remove_eap_sessionEPK19eap_am_network_id_c @ 42 NONAME
	_ZN12eapol_core_c36get_and_increment_global_key_counterEP19eap_variable_data_c @ 43 NONAME
	_ZN12eapol_core_c36init_eapol_key_pmksa_caching_timeoutEPK19eap_am_network_id_c @ 44 NONAME
	_ZN12eapol_core_c39complete_get_802_11_authentication_modeE12eap_status_ePK19eap_am_network_id_c38eapol_key_802_11_authentication_mode_e @ 45 NONAME
	_ZN12eapol_core_c40asynchronous_init_remove_eapol_key_stateEPK19eap_am_network_id_c @ 46 NONAME
	_ZN12eapol_core_c51indicate_eapol_key_state_started_eap_authenticationEPK19eap_am_network_id_c @ 47 NONAME
	_ZN12eapol_core_c8shutdownEv @ 48 NONAME
	_ZN12eapol_core_c9configureEv @ 49 NONAME
	_ZN12eapol_core_c9set_timerEP20abs_eap_base_timer_cmPvm @ 50 NONAME
	_ZN12eapol_core_cC1EP18abs_eap_am_tools_cP16abs_eapol_core_cb @ 51 NONAME
	_ZN12eapol_core_cC2EP18abs_eap_am_tools_cP16abs_eapol_core_cb @ 52 NONAME
	_ZN12eapol_core_cD0Ev @ 53 NONAME
	_ZN12eapol_core_cD1Ev @ 54 NONAME
	_ZN12eapol_core_cD2Ev @ 55 NONAME
	_ZN15ethernet_core_c11associationEPK19eap_am_network_id_c31eapol_key_authentication_type_ePK19eap_variable_data_cS6_N23eapol_RSNA_key_header_c19eapol_RSNA_cipher_eES8_S6_ @ 56 NONAME
	_ZN15ethernet_core_c11load_moduleE19eap_expanded_type_cS0_P19abs_eap_base_type_cPP15eap_base_type_cbPK19eap_am_network_id_c @ 57 NONAME
	_ZN15ethernet_core_c11packet_sendEPK19eap_am_network_id_cP18eap_buf_chain_wr_cmmm @ 58 NONAME
	_ZN15ethernet_core_c11send_logoffEPK19eap_am_network_id_c @ 59 NONAME
	_ZN15ethernet_core_c12add_rogue_apER11eap_array_cI20eap_rogue_ap_entry_cE @ 60 NONAME
	_ZN15ethernet_core_c12cancel_timerEP20abs_eap_base_timer_cm @ 61 NONAME
	_ZN15ethernet_core_c12create_stateEPK19eap_am_network_id_c31eapol_key_authentication_type_e @ 62 NONAME
	_ZN15ethernet_core_c12get_is_validEv @ 63 NONAME
	_ZN15ethernet_core_c12set_is_validEv @ 64 NONAME
	_ZN15ethernet_core_c13unload_moduleE19eap_expanded_type_c @ 65 NONAME
	_ZN15ethernet_core_c14disassociationEbPK19eap_am_network_id_c @ 66 NONAME
	_ZN15ethernet_core_c14packet_processEPK19eap_am_network_id_cP25eap_general_header_base_cm @ 67 NONAME
	_ZN15ethernet_core_c14read_configureEPK25eap_configuration_field_cP19eap_variable_data_c @ 68 NONAME
	_ZN15ethernet_core_c15eap_acknowledgeEPK19eap_am_network_id_c @ 69 NONAME
	_ZN15ethernet_core_c15write_configureEPK25eap_configuration_field_cP19eap_variable_data_c @ 70 NONAME
	_ZN15ethernet_core_c16tkip_mic_failureEPK19eap_am_network_id_cbN23eapol_RSNA_key_header_c29eapol_tkip_mic_failure_type_eE @ 71 NONAME
	_ZN15ethernet_core_c17cancel_all_timersEv @ 72 NONAME
	_ZN15ethernet_core_c17check_pmksa_cacheEP11eap_array_cI19eap_am_network_id_cE31eapol_key_authentication_type_eN23eapol_RSNA_key_header_c19eapol_RSNA_cipher_eES6_ @ 73 NONAME
	_ZN15ethernet_core_c17get_eap_type_listEP11eap_array_cI19eap_expanded_type_cE @ 74 NONAME
	_ZN15ethernet_core_c17get_header_offsetEPmS0_ @ 75 NONAME
	_ZN15ethernet_core_c18state_notificationEPK28abs_eap_state_notification_c @ 76 NONAME
	_ZN15ethernet_core_c19start_reassociationEPK19eap_am_network_id_c31eapol_key_authentication_type_ePK19eap_variable_data_c @ 77 NONAME
	_ZN15ethernet_core_c20start_authenticationEPK19eap_am_network_id_cb @ 78 NONAME
	_ZN15ethernet_core_c22complete_reassociationE33eapol_wlan_authentication_state_ePK19eap_am_network_id_c31eapol_key_authentication_type_ePK19eap_variable_data_cS7_N23eapol_RSNA_key_header_c19eapol_RSNA_cipher_eES9_ @ 79 NONAME
	_ZN15ethernet_core_c23check_is_valid_eap_typeE19eap_expanded_type_c @ 80 NONAME
	_ZN15ethernet_core_c23complete_disassociationEbPK19eap_am_network_id_c @ 81 NONAME
	_ZN15ethernet_core_c23packet_data_session_keyEPK19eap_am_network_id_cPK19eapol_session_key_c @ 82 NONAME
	_ZN15ethernet_core_c23remove_pmksa_from_cacheEPK19eap_am_network_id_c @ 83 NONAME
	_ZN15ethernet_core_c23start_preauthenticationEPK19eap_am_network_id_c31eapol_key_authentication_type_e @ 84 NONAME
	_ZN15ethernet_core_c24start_WPXM_reassociationEPK19eap_am_network_id_c31eapol_key_authentication_type_eP19eap_variable_data_c @ 85 NONAME
	_ZN15ethernet_core_c26complete_check_pmksa_cacheEPK11eap_array_cI19eap_am_network_id_cE @ 86 NONAME
	_ZN15ethernet_core_c26save_simple_config_sessionE21simple_config_state_ePK11eap_array_cI26simple_config_credential_cEPK19eap_variable_data_c34simple_config_Device_Password_ID_ePK24simple_config_payloads_c @ 87 NONAME
	_ZN15ethernet_core_c27complete_WPXM_reassociationE33eapol_wlan_authentication_state_ePK19eap_am_network_id_c31eapol_key_authentication_type_ePK19eap_variable_data_c @ 88 NONAME
	_ZN15ethernet_core_c29read_reassociation_parametersEPK19eap_am_network_id_cS2_31eapol_key_authentication_type_eP19eap_variable_data_cPKS4_S7_ @ 89 NONAME
	_ZN15ethernet_core_c30get_802_11_authentication_modeEPK19eap_am_network_id_c31eapol_key_authentication_type_ePK19eap_variable_data_cS6_ @ 90 NONAME
	_ZN15ethernet_core_c33set_eap_database_reference_valuesEPK19eap_variable_data_c @ 91 NONAME
	_ZN15ethernet_core_c34cancel_all_authentication_sessionsEv @ 92 NONAME
	_ZN15ethernet_core_c39complete_get_802_11_authentication_modeE12eap_status_ePK19eap_am_network_id_c38eapol_key_802_11_authentication_mode_e @ 93 NONAME
	_ZN15ethernet_core_c8shutdownEv @ 94 NONAME
	_ZN15ethernet_core_c9configureEv @ 95 NONAME
	_ZN15ethernet_core_c9load_typeE19eap_expanded_type_c @ 96 NONAME
	_ZN15ethernet_core_c9set_timerEP20abs_eap_base_timer_cmPvm @ 97 NONAME
	_ZN15ethernet_core_cC1EP18abs_eap_am_tools_cP19abs_ethernet_core_cb @ 98 NONAME
	_ZN15ethernet_core_cC2EP18abs_eap_am_tools_cP19abs_ethernet_core_cb @ 99 NONAME
	_ZN15ethernet_core_cD0Ev @ 100 NONAME
	_ZN15ethernet_core_cD1Ev @ 101 NONAME
	_ZN15ethernet_core_cD2Ev @ 102 NONAME
	_ZN17eapol_key_state_c10derive_PTKEv @ 103 NONAME
	_ZN17eapol_key_state_c10get_ANonceEv @ 104 NONAME
	_ZN17eapol_key_state_c10get_SNonceEv @ 105 NONAME
	_ZN17eapol_key_state_c10get_is_WPAEv @ 106 NONAME
	_ZN17eapol_key_state_c10initializeEPK19eap_am_network_id_c31eapol_key_authentication_type_e @ 107 NONAME
	_ZN17eapol_key_state_c10initializeEPK19eap_am_network_id_c31eapol_key_authentication_type_ePK19eap_variable_data_cS6_N23eapol_RSNA_key_header_c19eapol_RSNA_cipher_eES8_S6_ @ 108 NONAME
	_ZN17eapol_key_state_c11get_is_RSNAEv @ 109 NONAME
	_ZN17eapol_key_state_c11get_is_WPXMEv @ 110 NONAME
	_ZN17eapol_key_state_c11packet_sendEPK19eap_am_network_id_cP18eap_buf_chain_wr_cmmm @ 111 NONAME
	_ZN17eapol_key_state_c11set_s_nonceEPK19eap_variable_data_c @ 112 NONAME
	_ZN17eapol_key_state_c12create_PMKIDEv @ 113 NONAME
	_ZN17eapol_key_state_c12create_nonceEP19eap_variable_data_cm @ 114 NONAME
	_ZN17eapol_key_state_c12get_is_validEv @ 115 NONAME
	_ZN17eapol_key_state_c12set_is_validEv @ 116 NONAME
	_ZN17eapol_key_state_c13check_paddingEPKhm @ 117 NONAME
	_ZN17eapol_key_state_c13resend_packetEPK19eap_am_network_id_cP18eap_buf_chain_wr_cmmm @ 118 NONAME
	_ZN17eapol_key_state_c13timer_expiredEmPv @ 119 NONAME
	_ZN17eapol_key_state_c14create_key_micEP23eapol_RSNA_key_header_cPK19eap_variable_data_c @ 120 NONAME
	_ZN17eapol_key_state_c14get_key_lengthEN23eapol_RSNA_key_header_c19eapol_RSNA_cipher_eEPt @ 121 NONAME
	_ZN17eapol_key_state_c14parse_key_dataE27eapol_key_descriptor_type_ePK28eapol_rsna_key_data_header_cPmP30eapol_rsna_key_data_payloads_c17eapol_key_state_eN23eapol_RSNA_key_header_c24key_descriptor_version_eE @ 122 NONAME
	_ZN17eapol_key_state_c14select_minimumEPK19eap_variable_data_cS2_PS2_S3_ @ 123 NONAME
	_ZN17eapol_key_state_c14verify_key_micEP23eapol_RSNA_key_header_cPK19eap_variable_data_c @ 124 NONAME
	_ZN17eapol_key_state_c15save_parametersE31eapol_key_authentication_type_ePK19eap_variable_data_cS3_N23eapol_RSNA_key_header_c19eapol_RSNA_cipher_eES5_ @ 125 NONAME
	_ZN17eapol_key_state_c16decrypt_key_dataEP23eapol_RSNA_key_header_c @ 126 NONAME
	_ZN17eapol_key_state_c16encrypt_key_dataEP23eapol_RSNA_key_header_c @ 127 NONAME
	_ZN17eapol_key_state_c16set_pairwise_PMKEPK19eap_variable_data_cPK19eap_am_network_id_c @ 128 NONAME
	_ZN17eapol_key_state_c16tkip_mic_failureEbN23eapol_RSNA_key_header_c29eapol_tkip_mic_failure_type_eE @ 129 NONAME
	_ZN17eapol_key_state_c17check_pmksa_cacheE31eapol_key_authentication_type_eN23eapol_RSNA_key_header_c19eapol_RSNA_cipher_eES2_ @ 130 NONAME
	_ZN17eapol_key_state_c17get_is_associatedEv @ 131 NONAME
	_ZN17eapol_key_state_c17timer_delete_dataEmPv @ 132 NONAME
	_ZN17eapol_key_state_c18add_RSN_IE_payloadEPK23eapol_RSNA_key_header_cP19eap_variable_data_cPm @ 133 NONAME
	_ZN17eapol_key_state_c18get_encryption_KEKEv @ 134 NONAME
	_ZN17eapol_key_state_c18get_marked_removedEv @ 135 NONAME
	_ZN17eapol_key_state_c18get_received_PMKIDEv @ 136 NONAME
	_ZN17eapol_key_state_c18reset_cached_pmksaEv @ 137 NONAME
	_ZN17eapol_key_state_c18set_marked_removedEv @ 138 NONAME
	_ZN17eapol_key_state_c19add_RSN_GTK_payloadEPK23eapol_RSNA_key_header_cP19eap_variable_data_cPm @ 139 NONAME
	_ZN17eapol_key_state_c19init_retransmissionEPK19eap_am_network_id_cP18eap_buf_chain_wr_cmm16eap_code_value_eh19eap_expanded_type_c @ 140 NONAME
	_ZN17eapol_key_state_c19set_WPXM_parametersEPK19eap_am_network_id_c @ 141 NONAME
	_ZN17eapol_key_state_c19set_eapol_key_stateE17eapol_key_state_e @ 142 NONAME
	_ZN17eapol_key_state_c20get_confirmation_KCKEv @ 143 NONAME
	_ZN17eapol_key_state_c20get_is_encryption_onEv @ 144 NONAME
	_ZN17eapol_key_state_c20unset_marked_removedEv @ 145 NONAME
	_ZN17eapol_key_state_c20verify_field_is_zeroEPKhm @ 146 NONAME
	_ZN17eapol_key_state_c21allow_4_way_handshakeEv @ 147 NONAME
	_ZN17eapol_key_state_c21cancel_retransmissionEv @ 148 NONAME
	_ZN17eapol_key_state_c21get_key_reply_counterEv @ 149 NONAME
	_ZN17eapol_key_state_c21set_key_reply_counterEy @ 150 NONAME
	_ZN17eapol_key_state_c21start_4_way_handshakeEPK19eap_am_network_id_c @ 151 NONAME
	_ZN17eapol_key_state_c22complete_reassociationE33eapol_wlan_authentication_state_ePK19eap_am_network_id_c31eapol_key_authentication_type_ePK19eap_variable_data_cS7_N23eapol_RSNA_key_header_c19eapol_RSNA_cipher_eES9_ @ 152 NONAME
	_ZN17eapol_key_state_c22get_supplicant_RSNA_IEEv @ 153 NONAME
	_ZN17eapol_key_state_c22init_handshake_timeoutEm @ 154 NONAME
	_ZN17eapol_key_state_c23process_eapol_key_frameEPK19eap_am_network_id_cP25eap_general_header_base_cm @ 155 NONAME
	_ZN17eapol_key_state_c23trace_eapol_key_messageEPKcP23eapol_RSNA_key_header_c @ 156 NONAME
	_ZN17eapol_key_state_c24cancel_handshake_timeoutEv @ 157 NONAME
	_ZN17eapol_key_state_c24start_WPXM_reassociationEPK19eap_am_network_id_c31eapol_key_authentication_type_eP19eap_variable_data_c @ 158 NONAME
	_ZN17eapol_key_state_c25get_authenticator_RSNA_IEEv @ 159 NONAME
	_ZN17eapol_key_state_c25start_group_key_handshakeEPK19eap_am_network_id_c24eapol_protocol_version_e27eapol_key_descriptor_type_e @ 160 NONAME
	_ZN17eapol_key_state_c26get_supplicant_MAC_addressEv @ 161 NONAME
	_ZN17eapol_key_state_c26increase_key_reply_counterEv @ 162 NONAME
	_ZN17eapol_key_state_c26init_pmksa_caching_timeoutEv @ 163 NONAME
	_ZN17eapol_key_state_c26initialize_4_way_handshakeEPK19eap_am_network_id_c24eapol_protocol_version_e @ 164 NONAME
	_ZN17eapol_key_state_c26process_RC4_key_descriptorEPK19eap_am_network_id_cP25eap_general_header_base_cm @ 165 NONAME
	_ZN17eapol_key_state_c26started_eap_authenticationEv @ 166 NONAME
	_ZN17eapol_key_state_c27complete_WPXM_reassociationE33eapol_wlan_authentication_state_ePK19eap_am_network_id_c31eapol_key_authentication_type_ePK19eap_variable_data_c @ 167 NONAME
	_ZN17eapol_key_state_c27process_RSNA_key_descriptorEPK19eap_am_network_id_cP25eap_general_header_base_cm @ 168 NONAME
	_ZN17eapol_key_state_c27send_RC4_eapol_key_messagesEv @ 169 NONAME
	_ZN17eapol_key_state_c28cancel_pmksa_caching_timeoutEv @ 170 NONAME
	_ZN17eapol_key_state_c28initialize_preauthenticationEPK19eap_am_network_id_c31eapol_key_authentication_type_e @ 171 NONAME
	_ZN17eapol_key_state_c29cancel_authentication_sessionEv @ 172 NONAME
	_ZN17eapol_key_state_c29check_is_aes_key_wrap_paddingE32eapol_RSNA_key_descriptor_type_eP28eapol_rsna_key_data_header_cm @ 173 NONAME
	_ZN17eapol_key_state_c29get_authenticator_MAC_addressEv @ 174 NONAME
	_ZN17eapol_key_state_c29init_group_key_update_timeoutEm @ 175 NONAME
	_ZN17eapol_key_state_c29read_reassociation_parametersEPK19eap_am_network_id_c31eapol_key_authentication_type_eP19eap_variable_data_cPKS4_S7_ @ 176 NONAME
	_ZN17eapol_key_state_c30parse_generic_key_data_payloadE27eapol_key_descriptor_type_e32eapol_RSNA_key_descriptor_type_eP28eapol_rsna_key_data_header_cPmP30eapol_rsna_key_data_payloads_c17eapol_key_state_e @ 177 NONAME
	_ZN17eapol_key_state_c31cancel_group_key_update_timeoutEv @ 178 NONAME
	_ZN17eapol_key_state_c31create_tkip_mic_failure_messageEP18eap_buf_chain_wr_cmPmS2_N23eapol_RSNA_key_header_c29eapol_tkip_mic_failure_type_eE24eapol_protocol_version_e @ 179 NONAME
	_ZN17eapol_key_state_c31object_decrease_reference_countEv @ 180 NONAME
	_ZN17eapol_key_state_c31object_increase_reference_countEv @ 181 NONAME
	_ZN17eapol_key_state_c31process_4_way_handshake_messageEPK19eap_am_network_id_cP23eapol_RSNA_key_header_cm @ 182 NONAME
	_ZN17eapol_key_state_c32create_4_way_handshake_message_1EP18eap_buf_chain_wr_cmPmS2_24eapol_protocol_version_e27eapol_key_descriptor_type_e @ 183 NONAME
	_ZN17eapol_key_state_c32create_4_way_handshake_message_2EP18eap_buf_chain_wr_cmPmS2_y24eapol_protocol_version_e27eapol_key_descriptor_type_e @ 184 NONAME
	_ZN17eapol_key_state_c32create_4_way_handshake_message_3EP18eap_buf_chain_wr_cmPmS2_24eapol_protocol_version_e27eapol_key_descriptor_type_e @ 185 NONAME
	_ZN17eapol_key_state_c32create_4_way_handshake_message_4EP18eap_buf_chain_wr_cmPmS2_yb24eapol_protocol_version_e27eapol_key_descriptor_type_e @ 186 NONAME
	_ZN17eapol_key_state_c32get_unicast_cipher_suite_RSNA_IEEv @ 187 NONAME
	_ZN17eapol_key_state_c33get_client_send_key_reply_counterEv @ 188 NONAME
	_ZN17eapol_key_state_c33process_4_way_handshake_message_0EPK19eap_am_network_id_cP23eapol_RSNA_key_header_cm @ 189 NONAME
	_ZN17eapol_key_state_c33process_4_way_handshake_message_1EPK19eap_am_network_id_cP23eapol_RSNA_key_header_cm @ 190 NONAME
	_ZN17eapol_key_state_c33process_4_way_handshake_message_2EPK19eap_am_network_id_cP23eapol_RSNA_key_header_cm @ 191 NONAME
	_ZN17eapol_key_state_c33process_4_way_handshake_message_3EPK19eap_am_network_id_cP23eapol_RSNA_key_header_cm @ 192 NONAME
	_ZN17eapol_key_state_c33process_4_way_handshake_message_4EPK19eap_am_network_id_cP23eapol_RSNA_key_header_cm @ 193 NONAME
	_ZN17eapol_key_state_c33set_client_send_key_reply_counterEy @ 194 NONAME
	_ZN17eapol_key_state_c35process_group_key_handshake_messageEPK19eap_am_network_id_cP23eapol_RSNA_key_header_cm @ 195 NONAME
	_ZN17eapol_key_state_c36create_eapol_key_handshake_message_0EbP18eap_buf_chain_wr_cmPmS2_y24eapol_protocol_version_e @ 196 NONAME
	_ZN17eapol_key_state_c36create_group_key_handshake_message_1EP18eap_buf_chain_wr_cmPmS2_24eapol_protocol_version_e27eapol_key_descriptor_type_e @ 197 NONAME
	_ZN17eapol_key_state_c36create_group_key_handshake_message_2EP18eap_buf_chain_wr_cmPmS2_y24eapol_protocol_version_e27eapol_key_descriptor_type_e @ 198 NONAME
	_ZN17eapol_key_state_c37process_group_key_handshake_message_0EPK19eap_am_network_id_cP23eapol_RSNA_key_header_cm @ 199 NONAME
	_ZN17eapol_key_state_c37process_group_key_handshake_message_1EPK19eap_am_network_id_cP23eapol_RSNA_key_header_cm @ 200 NONAME
	_ZN17eapol_key_state_c37process_group_key_handshake_message_2EPK19eap_am_network_id_cP23eapol_RSNA_key_header_cm @ 201 NONAME
	_ZN17eapol_key_state_c38increase_client_send_key_reply_counterEv @ 202 NONAME
	_ZN17eapol_key_state_c40asynchronous_init_remove_eapol_key_stateEv @ 203 NONAME
	_ZN17eapol_key_state_c42process_4_way_handshake_message_2_payloadsEPK19eap_am_network_id_cP23eapol_RSNA_key_header_cm @ 204 NONAME
	_ZN17eapol_key_state_c44process_4_way_handshake_message_3_payloads_aEPK19eap_am_network_id_cP23eapol_RSNA_key_header_cmPb @ 205 NONAME
	_ZN17eapol_key_state_c44process_4_way_handshake_message_3_payloads_bEPK19eap_am_network_id_cP23eapol_RSNA_key_header_cmb @ 206 NONAME
	_ZN17eapol_key_state_c4copyEPK19eap_am_network_id_c @ 207 NONAME
	_ZN17eapol_key_state_c5resetEv @ 208 NONAME
	_ZN17eapol_key_state_c8rsna_prfEPK19eap_variable_data_cS2_S2_mPS0_ @ 209 NONAME
	_ZN17eapol_key_state_c8shutdownEv @ 210 NONAME
	_ZN17eapol_key_state_c9configureEv @ 211 NONAME
	_ZN17eapol_key_state_cC1EP18abs_eap_am_tools_cP21abs_eapol_key_state_cP16abs_eapol_core_cbPK19eap_am_network_id_c31eapol_key_authentication_type_e @ 212 NONAME
	_ZN17eapol_key_state_cC1EP18abs_eap_am_tools_cP21abs_eapol_key_state_cP16abs_eapol_core_cbPK19eap_am_network_id_c31eapol_key_authentication_type_ePK19eap_variable_data_cSC_N23eapol_RSNA_key_header_c19eapol_RSNA_cipher_eESE_SC_ @ 213 NONAME
	_ZN17eapol_key_state_cC2EP18abs_eap_am_tools_cP21abs_eapol_key_state_cP16abs_eapol_core_cbPK19eap_am_network_id_c31eapol_key_authentication_type_e @ 214 NONAME
	_ZN17eapol_key_state_cC2EP18abs_eap_am_tools_cP21abs_eapol_key_state_cP16abs_eapol_core_cbPK19eap_am_network_id_c31eapol_key_authentication_type_ePK19eap_variable_data_cSC_N23eapol_RSNA_key_header_c19eapol_RSNA_cipher_eESE_SC_ @ 215 NONAME
	_ZN17eapol_key_state_cD0Ev @ 216 NONAME
	_ZN17eapol_key_state_cD1Ev @ 217 NONAME
	_ZN17eapol_key_state_cD2Ev @ 218 NONAME
	_ZN22eapol_RC4_key_header_c10get_key_IVEv @ 219 NONAME
	_ZN22eapol_RC4_key_header_c12set_key_flagE21eapol_RC4_key_flags_e @ 220 NONAME
	_ZN22eapol_RC4_key_header_c13set_key_indexEh @ 221 NONAME
	_ZN22eapol_RC4_key_header_c14set_key_lengthEt @ 222 NONAME
	_ZN22eapol_RC4_key_header_c17get_header_lengthEv @ 223 NONAME
	_ZN22eapol_RC4_key_header_c18get_replay_counterEv @ 224 NONAME
	_ZN22eapol_RC4_key_header_c18zero_key_signatureEP18abs_eap_am_tools_c @ 225 NONAME
	_ZN22eapol_RC4_key_header_c21set_eapol_packet_typeE19eapol_packet_type_e @ 226 NONAME
	_ZN22eapol_RC4_key_header_c23set_key_descriptor_typeE27eapol_key_descriptor_type_e @ 227 NONAME
	_ZN22eapol_RC4_key_header_c26set_eapol_protocol_versionE24eapol_protocol_version_e @ 228 NONAME
	_ZN22eapol_RC4_key_header_c28set_eapol_packet_body_lengthEt @ 229 NONAME
	_ZN22eapol_RC4_key_header_cC1EP18abs_eap_am_tools_cPvm @ 230 NONAME
	_ZN22eapol_RC4_key_header_cC2EP18abs_eap_am_tools_cPvm @ 231 NONAME
	_ZN22eapol_RC4_key_header_cD0Ev @ 232 NONAME
	_ZN22eapol_RC4_key_header_cD1Ev @ 233 NONAME
	_ZN22eapol_RC4_key_header_cD2Ev @ 234 NONAME
	_ZN23eapol_RSNA_key_header_c11set_bits_onEttmm @ 235 NONAME
	_ZN23eapol_RSNA_key_header_c12reset_headerEh31eapol_key_authentication_type_eNS_19eapol_RSNA_cipher_eEybbbbbbbbb24eapol_protocol_version_e27eapol_key_descriptor_type_e @ 236 NONAME
	_ZN23eapol_RSNA_key_header_c12zero_key_MICEP18abs_eap_am_tools_c @ 237 NONAME
	_ZN23eapol_RSNA_key_header_c12zero_key_RSCEP18abs_eap_am_tools_c @ 238 NONAME
	_ZN23eapol_RSNA_key_header_c14set_key_lengthEt @ 239 NONAME
	_ZN23eapol_RSNA_key_header_c14zero_key_NONCEEP18abs_eap_am_tools_c @ 240 NONAME
	_ZN23eapol_RSNA_key_header_c17get_header_lengthEv @ 241 NONAME
	_ZN23eapol_RSNA_key_header_c17zero_EAPOL_key_IVEP18abs_eap_am_tools_c @ 242 NONAME
	_ZN23eapol_RSNA_key_header_c17zero_key_reservedEP18abs_eap_am_tools_c @ 243 NONAME
	_ZN23eapol_RSNA_key_header_c19set_key_data_lengthEt @ 244 NONAME
	_ZN23eapol_RSNA_key_header_c19set_key_informationEt @ 245 NONAME
	_ZN23eapol_RSNA_key_header_c21set_eapol_packet_typeE19eapol_packet_type_e @ 246 NONAME
	_ZN23eapol_RSNA_key_header_c22set_key_replay_counterEy @ 247 NONAME
	_ZN23eapol_RSNA_key_header_c23set_key_descriptor_typeE27eapol_key_descriptor_type_e @ 248 NONAME
	_ZN23eapol_RSNA_key_header_c24zero_key_STA_MAC_addressEP18abs_eap_am_tools_c @ 249 NONAME
	_ZN23eapol_RSNA_key_header_c25set_key_information_errorEb @ 250 NONAME
	_ZN23eapol_RSNA_key_header_c26set_eapol_protocol_versionE24eapol_protocol_version_e @ 251 NONAME
	_ZN23eapol_RSNA_key_header_c26set_key_information_secureEb @ 252 NONAME
	_ZN23eapol_RSNA_key_header_c27set_key_information_installEb @ 253 NONAME
	_ZN23eapol_RSNA_key_header_c27set_key_information_key_MICEb @ 254 NONAME
	_ZN23eapol_RSNA_key_header_c27set_key_information_key_ackEb @ 255 NONAME
	_ZN23eapol_RSNA_key_header_c27set_key_information_requestEb @ 256 NONAME
	_ZN23eapol_RSNA_key_header_c28set_eapol_packet_body_lengthEm @ 257 NONAME
	_ZN23eapol_RSNA_key_header_c28set_key_information_key_typeEb @ 258 NONAME
	_ZN23eapol_RSNA_key_header_c29set_key_information_key_indexEh @ 259 NONAME
	_ZN23eapol_RSNA_key_header_c36zero_EAPOL_header_and_Key_descriptorEP18abs_eap_am_tools_c @ 260 NONAME
	_ZN23eapol_RSNA_key_header_c38set_key_information_encrypted_key_dataEb @ 261 NONAME
	_ZN23eapol_RSNA_key_header_c42set_key_information_key_descriptor_versionEh @ 262 NONAME
	_ZN23eapol_RSNA_key_header_cC1EP18abs_eap_am_tools_cbbPvm @ 263 NONAME
	_ZN23eapol_RSNA_key_header_cC2EP18abs_eap_am_tools_cbbPvm @ 264 NONAME
	_ZN23eapol_RSNA_key_header_cD0Ev @ 265 NONAME
	_ZN23eapol_RSNA_key_header_cD1Ev @ 266 NONAME
	_ZN23eapol_RSNA_key_header_cD2Ev @ 267 NONAME
	_ZN24eapol_key_state_string_c26get_eapol_key_state_stringE17eapol_key_state_e @ 268 NONAME
	_ZN24eapol_key_state_string_c35get_eapol_key_handshake_type_stringE26eapol_key_handshake_type_e @ 269 NONAME
	_ZN24eapol_key_state_string_c36get_eapol_key_descriptor_type_stringE27eapol_key_descriptor_type_e @ 270 NONAME
	_ZN24eapol_key_state_string_c40get_eapol_key_authentication_type_stringE31eapol_key_authentication_type_e @ 271 NONAME
	_ZN24eapol_key_state_string_cC1Ev @ 272 NONAME
	_ZN24eapol_key_state_string_cC2Ev @ 273 NONAME
	_ZN24eapol_key_state_string_cD0Ev @ 274 NONAME
	_ZN24eapol_key_state_string_cD1Ev @ 275 NONAME
	_ZN24eapol_key_state_string_cD2Ev @ 276 NONAME
	_ZN26eapol_rsna_variable_data_c10set_bufferEPK28eapol_rsna_key_data_header_cPhmbb @ 277 NONAME
	_ZN26eapol_rsna_variable_data_cC1EP18abs_eap_am_tools_cbb @ 278 NONAME
	_ZN26eapol_rsna_variable_data_cC2EP18abs_eap_am_tools_cbb @ 279 NONAME
	_ZN26eapol_rsna_variable_data_cD0Ev @ 280 NONAME
	_ZN26eapol_rsna_variable_data_cD1Ev @ 281 NONAME
	_ZN26eapol_rsna_variable_data_cD2Ev @ 282 NONAME
	_ZN27eapol_wlan_authentication_c11load_moduleE19eap_expanded_type_cS0_P19abs_eap_base_type_cPP15eap_base_type_cbPK19eap_am_network_id_c @ 283 NONAME
	_ZN27eapol_wlan_authentication_c11packet_sendEPK19eap_am_network_id_cP18eap_buf_chain_wr_cmmm @ 284 NONAME
	_ZN27eapol_wlan_authentication_c12add_rogue_apER11eap_array_cI20eap_rogue_ap_entry_cE @ 285 NONAME
	_ZN27eapol_wlan_authentication_c12cancel_timerEP20abs_eap_base_timer_cm @ 286 NONAME
	_ZN27eapol_wlan_authentication_c12get_is_validEv @ 287 NONAME
	_ZN27eapol_wlan_authentication_c12set_is_validEv @ 288 NONAME
	_ZN27eapol_wlan_authentication_c13get_is_clientEv @ 289 NONAME
	_ZN27eapol_wlan_authentication_c13timer_expiredEmPv @ 290 NONAME
	_ZN27eapol_wlan_authentication_c13unload_moduleE19eap_expanded_type_c @ 291 NONAME
	_ZN27eapol_wlan_authentication_c14disassociationEPK19eap_am_network_id_c @ 292 NONAME
	_ZN27eapol_wlan_authentication_c14packet_processEPK19eap_am_network_id_cP25eap_general_header_base_cm @ 293 NONAME
	_ZN27eapol_wlan_authentication_c14read_configureEPK25eap_configuration_field_cP19eap_variable_data_c @ 294 NONAME
	_ZN27eapol_wlan_authentication_c15eap_acknowledgeEPK19eap_am_network_id_c @ 295 NONAME
	_ZN27eapol_wlan_authentication_c15write_configureEPK25eap_configuration_field_cP19eap_variable_data_c @ 296 NONAME
	_ZN27eapol_wlan_authentication_c16tkip_mic_failureEPK19eap_am_network_id_cbN23eapol_RSNA_key_header_c29eapol_tkip_mic_failure_type_eE @ 297 NONAME
	_ZN27eapol_wlan_authentication_c17cancel_all_timersEv @ 298 NONAME
	_ZN27eapol_wlan_authentication_c17check_pmksa_cacheEP11eap_array_cI19eap_am_network_id_cE31eapol_key_authentication_type_eN23eapol_RSNA_key_header_c19eapol_RSNA_cipher_eES6_ @ 299 NONAME
	_ZN27eapol_wlan_authentication_c17get_eap_type_listEP11eap_array_cI19eap_expanded_type_cE @ 300 NONAME
	_ZN27eapol_wlan_authentication_c17get_header_offsetEPmS0_ @ 301 NONAME
	_ZN27eapol_wlan_authentication_c17timer_delete_dataEmPv @ 302 NONAME
	_ZN27eapol_wlan_authentication_c18state_notificationEPK28abs_eap_state_notification_c @ 303 NONAME
	_ZN27eapol_wlan_authentication_c19start_reassociationEPK19eap_am_network_id_cS2_31eapol_key_authentication_type_e @ 304 NONAME
	_ZN27eapol_wlan_authentication_c20complete_associationE33eapol_wlan_authentication_state_ePK19eap_am_network_id_cPK19eap_variable_data_cS6_N23eapol_RSNA_key_header_c19eapol_RSNA_cipher_eES8_ @ 305 NONAME
	_ZN27eapol_wlan_authentication_c20start_authenticationEPK19eap_variable_data_c31eapol_key_authentication_type_eS2_bPK19eap_am_network_id_c @ 306 NONAME
	_ZN27eapol_wlan_authentication_c21get_current_eap_indexEv @ 307 NONAME
	_ZN27eapol_wlan_authentication_c21set_current_eap_indexEm @ 308 NONAME
	_ZN27eapol_wlan_authentication_c22complete_reassociationE33eapol_wlan_authentication_state_ePK19eap_am_network_id_cPK19eap_variable_data_cS6_N23eapol_RSNA_key_header_c19eapol_RSNA_cipher_eES8_ @ 309 NONAME
	_ZN27eapol_wlan_authentication_c23check_is_valid_eap_typeE19eap_expanded_type_c @ 310 NONAME
	_ZN27eapol_wlan_authentication_c23complete_disassociationEbPK19eap_am_network_id_c @ 311 NONAME
	_ZN27eapol_wlan_authentication_c23packet_data_session_keyEPK19eap_am_network_id_cPK19eapol_session_key_c @ 312 NONAME
	_ZN27eapol_wlan_authentication_c23start_preauthenticationEPK19eap_am_network_id_c @ 313 NONAME
	_ZN27eapol_wlan_authentication_c24start_WPXM_reassociationEPK19eap_am_network_id_cS2_P19eap_variable_data_cPKS3_S6_ @ 314 NONAME
	_ZN27eapol_wlan_authentication_c26get_authentication_counterEv @ 315 NONAME
	_ZN27eapol_wlan_authentication_c26save_simple_config_sessionE21simple_config_state_ePK11eap_array_cI26simple_config_credential_cEPK19eap_variable_data_c34simple_config_Device_Password_ID_ePK24simple_config_payloads_c @ 316 NONAME
	_ZN27eapol_wlan_authentication_c27complete_WPXM_reassociationE33eapol_wlan_authentication_state_ePK19eap_am_network_id_cPK19eap_variable_data_c @ 317 NONAME
	_ZN27eapol_wlan_authentication_c29new_eapol_wlan_authenticationEP18abs_eap_am_tools_cP31abs_eapol_wlan_authentication_cb @ 318 NONAME
	_ZN27eapol_wlan_authentication_c32increment_authentication_counterEv @ 319 NONAME
	_ZN27eapol_wlan_authentication_c33set_eap_database_reference_valuesEPK19eap_variable_data_c @ 320 NONAME
	_ZN27eapol_wlan_authentication_c39complete_get_802_11_authentication_modeE12eap_status_ePK19eap_am_network_id_c38eapol_key_802_11_authentication_mode_e @ 321 NONAME
	_ZN27eapol_wlan_authentication_c8shutdownEv @ 322 NONAME
	_ZN27eapol_wlan_authentication_c9configureEv @ 323 NONAME
	_ZN27eapol_wlan_authentication_c9set_timerEP20abs_eap_base_timer_cmPvm @ 324 NONAME
	_ZN27eapol_wlan_authentication_cC1EP18abs_eap_am_tools_cP31abs_eapol_wlan_authentication_cP30eapol_am_wlan_authentication_cb @ 325 NONAME
	_ZN27eapol_wlan_authentication_cC2EP18abs_eap_am_tools_cP31abs_eapol_wlan_authentication_cP30eapol_am_wlan_authentication_cb @ 326 NONAME
	_ZN28eap_core_client_message_if_c12get_is_validEv @ 327 NONAME
	_ZN28eap_core_client_message_if_c12set_is_validEv @ 328 NONAME
	_ZN28eap_core_client_message_if_c13timer_expiredEmPv @ 329 NONAME
	_ZN28eap_core_client_message_if_c14packet_processEPK19eap_am_network_id_cP25eap_general_header_base_cm @ 330 NONAME
	_ZN28eap_core_client_message_if_c15eap_acknowledgeEPK19eap_am_network_id_c @ 331 NONAME
	_ZN28eap_core_client_message_if_c15process_messageEP30eap_process_tlv_message_data_c @ 332 NONAME
	_ZN28eap_core_client_message_if_c17timer_delete_dataEmPv @ 333 NONAME
	_ZN28eap_core_client_message_if_c18create_eap_sessionEPK19eap_am_network_id_c @ 334 NONAME
	_ZN28eap_core_client_message_if_c18remove_eap_sessionEbPK19eap_am_network_id_c @ 335 NONAME
	_ZN28eap_core_client_message_if_c23cancel_all_eap_sessionsEv @ 336 NONAME
	_ZN28eap_core_client_message_if_c25send_eap_identity_requestEPK19eap_am_network_id_c @ 337 NONAME
	_ZN28eap_core_client_message_if_c30get_802_11_authentication_modeEPK19eap_am_network_id_c31eapol_key_authentication_type_ePK19eap_variable_data_cS6_ @ 338 NONAME
	_ZN28eap_core_client_message_if_c33set_eap_database_reference_valuesEPK19eap_variable_data_c @ 339 NONAME
	_ZN28eap_core_client_message_if_c5resetEv @ 340 NONAME
	_ZN28eap_core_client_message_if_c8shutdownEv @ 341 NONAME
	_ZN28eap_core_client_message_if_c9configureEv @ 342 NONAME
	_ZN28eap_core_client_message_if_c9send_dataEPKvm @ 343 NONAME
	_ZN28eap_core_client_message_if_cC1EP18abs_eap_am_tools_cP19eap_am_message_if_cP22abs_eap_session_core_cb @ 344 NONAME
	_ZN28eap_core_client_message_if_cC2EP18abs_eap_am_tools_cP19eap_am_message_if_cP22abs_eap_session_core_cb @ 345 NONAME
	_ZN28eap_core_client_message_if_cD0Ev @ 346 NONAME
	_ZN28eap_core_client_message_if_cD1Ev @ 347 NONAME
	_ZN28eap_core_client_message_if_cD2Ev @ 348 NONAME
	_ZN30eapol_am_wlan_authentication_c32new_eapol_am_wlan_authenticationEP18abs_eap_am_tools_cb @ 349 NONAME
	_ZN30eapol_am_wlan_authentication_cD0Ev @ 350 NONAME
	_ZN30eapol_am_wlan_authentication_cD1Ev @ 351 NONAME
	_ZN30eapol_am_wlan_authentication_cD2Ev @ 352 NONAME
	_ZN30eapol_rsna_key_data_payloads_c14check_payloadsENS_36eapol_rsna_key_data_payload_status_eES0_S0_S0_ @ 353 NONAME
	_ZN30eapol_rsna_key_data_payloads_c17check_one_payloadENS_36eapol_rsna_key_data_payload_status_eEPK11eap_array_cI19eap_variable_data_cE @ 354 NONAME
	_ZN30eapol_rsna_key_data_payloads_c17check_one_payloadENS_36eapol_rsna_key_data_payload_status_eEPK26eapol_rsna_variable_data_c @ 355 NONAME
	_ZN30eapol_rsna_key_data_payloads_cC1EP18abs_eap_am_tools_cbb @ 356 NONAME
	_ZN30eapol_rsna_key_data_payloads_cC2EP18abs_eap_am_tools_cbb @ 357 NONAME
	_ZN30eapol_rsna_key_data_payloads_cD0Ev @ 358 NONAME
	_ZN30eapol_rsna_key_data_payloads_cD1Ev @ 359 NONAME
	_ZN30eapol_rsna_key_data_payloads_cD2Ev @ 360 NONAME
	_ZN31eapol_handle_tlv_message_data_c12get_is_validEv @ 361 NONAME
	_ZN31eapol_handle_tlv_message_data_cC1EP18abs_eap_am_tools_c @ 362 NONAME
	_ZN31eapol_handle_tlv_message_data_cC2EP18abs_eap_am_tools_c @ 363 NONAME
	_ZN31eapol_handle_tlv_message_data_cD0Ev @ 364 NONAME
	_ZN31eapol_handle_tlv_message_data_cD1Ev @ 365 NONAME
	_ZN31eapol_handle_tlv_message_data_cD2Ev @ 366 NONAME
	_ZN35eapol_message_wlan_authentication_c11packet_sendEPK19eap_am_network_id_cP18eap_buf_chain_wr_cmmm @ 367 NONAME
	_ZN35eapol_message_wlan_authentication_c11reassociateEPK19eap_am_network_id_c31eapol_key_authentication_type_ePK19eap_variable_data_c @ 368 NONAME
	_ZN35eapol_message_wlan_authentication_c12add_rogue_apER11eap_array_cI20eap_rogue_ap_entry_cE @ 369 NONAME
	_ZN35eapol_message_wlan_authentication_c12disassociateEPK19eap_am_network_id_cb @ 370 NONAME
	_ZN35eapol_message_wlan_authentication_c12get_is_validEv @ 371 NONAME
	_ZN35eapol_message_wlan_authentication_c12process_dataEPKvm @ 372 NONAME
	_ZN35eapol_message_wlan_authentication_c12send_messageEP31eapol_handle_tlv_message_data_c @ 373 NONAME
	_ZN35eapol_message_wlan_authentication_c13timer_expiredEmPv @ 374 NONAME
	_ZN35eapol_message_wlan_authentication_c14disassociationEPK11eap_array_cI16eap_tlv_header_cE @ 375 NONAME
	_ZN35eapol_message_wlan_authentication_c14packet_processEPK11eap_array_cI16eap_tlv_header_cE @ 376 NONAME
	_ZN35eapol_message_wlan_authentication_c15eap_acknowledgeEPK11eap_array_cI16eap_tlv_header_cE @ 377 NONAME
	_ZN35eapol_message_wlan_authentication_c15process_messageEP31eapol_handle_tlv_message_data_c @ 378 NONAME
	_ZN35eapol_message_wlan_authentication_c16tkip_mic_failureEPK11eap_array_cI16eap_tlv_header_cE @ 379 NONAME
	_ZN35eapol_message_wlan_authentication_c17check_pmksa_cacheEPK11eap_array_cI16eap_tlv_header_cE @ 380 NONAME
	_ZN35eapol_message_wlan_authentication_c17get_header_offsetEPmS0_ @ 381 NONAME
	_ZN35eapol_message_wlan_authentication_c17timer_delete_dataEmPv @ 382 NONAME
	_ZN35eapol_message_wlan_authentication_c18send_error_messageE12eap_status_e31eap_tlv_message_type_function_e @ 383 NONAME
	_ZN35eapol_message_wlan_authentication_c18state_notificationEPK28abs_eap_state_notification_c @ 384 NONAME
	_ZN35eapol_message_wlan_authentication_c19start_reassociationEPK11eap_array_cI16eap_tlv_header_cE @ 385 NONAME
	_ZN35eapol_message_wlan_authentication_c20complete_associationEPK11eap_array_cI16eap_tlv_header_cE @ 386 NONAME
	_ZN35eapol_message_wlan_authentication_c20start_authenticationEPK11eap_array_cI16eap_tlv_header_cE @ 387 NONAME
	_ZN35eapol_message_wlan_authentication_c20update_header_offsetEPK11eap_array_cI16eap_tlv_header_cE @ 388 NONAME
	_ZN35eapol_message_wlan_authentication_c22complete_reassociationEPK11eap_array_cI16eap_tlv_header_cE @ 389 NONAME
	_ZN35eapol_message_wlan_authentication_c23complete_disassociationEPK19eap_am_network_id_c @ 390 NONAME
	_ZN35eapol_message_wlan_authentication_c23packet_data_session_keyEPK19eap_am_network_id_cPK19eapol_session_key_c @ 391 NONAME
	_ZN35eapol_message_wlan_authentication_c23start_preauthenticationEPK11eap_array_cI16eap_tlv_header_cE @ 392 NONAME
	_ZN35eapol_message_wlan_authentication_c24start_WPXM_reassociationEPK11eap_array_cI16eap_tlv_header_cE @ 393 NONAME
	_ZN35eapol_message_wlan_authentication_c26complete_check_pmksa_cacheEPK11eap_array_cI19eap_am_network_id_cE @ 394 NONAME
	_ZN35eapol_message_wlan_authentication_c26process_message_type_errorEPK11eap_array_cI16eap_tlv_header_cE @ 395 NONAME
	_ZN35eapol_message_wlan_authentication_c26save_simple_config_sessionE21simple_config_state_ePK11eap_array_cI26simple_config_credential_cEPK19eap_variable_data_c34simple_config_Device_Password_ID_ePK24simple_config_payloads_c @ 396 NONAME
	_ZN35eapol_message_wlan_authentication_c27complete_WPXM_reassociationEPK11eap_array_cI16eap_tlv_header_cE @ 397 NONAME
	_ZN35eapol_message_wlan_authentication_c37update_wlan_database_reference_valuesEPK11eap_array_cI16eap_tlv_header_cE @ 398 NONAME
	_ZN35eapol_message_wlan_authentication_c8shutdownEv @ 399 NONAME
	_ZN35eapol_message_wlan_authentication_c9associateE38eapol_key_802_11_authentication_mode_e @ 400 NONAME
	_ZN35eapol_message_wlan_authentication_c9configureEmmm @ 401 NONAME
	_ZN35eapol_message_wlan_authentication_cC1EP18abs_eap_am_tools_cP39abs_eapol_message_wlan_authentication_c @ 402 NONAME
	_ZN35eapol_message_wlan_authentication_cC2EP18abs_eap_am_tools_cP39abs_eapol_message_wlan_authentication_c @ 403 NONAME
	_ZN35eapol_message_wlan_authentication_cD0Ev @ 404 NONAME
	_ZN35eapol_message_wlan_authentication_cD1Ev @ 405 NONAME
	_ZN35eapol_message_wlan_authentication_cD2Ev @ 406 NONAME
	_ZN36wlan_eap_if_send_status_conversion_c7convertE12eap_status_e @ 407 NONAME
	_ZN36wlan_eap_if_send_status_conversion_c7convertE25wlan_eap_if_send_status_e @ 408 NONAME
	_ZN38eapol_am_wlan_authentication_symbian_c11associationEPK19eap_am_network_id_c @ 409 NONAME
	_ZN38eapol_am_wlan_authentication_symbian_c12cancel_timerEP20abs_eap_base_timer_cm @ 410 NONAME
	_ZN38eapol_am_wlan_authentication_symbian_c12get_is_validEv @ 411 NONAME
	_ZN38eapol_am_wlan_authentication_symbian_c14disassociationEPK19eap_am_network_id_c @ 412 NONAME
	_ZN38eapol_am_wlan_authentication_symbian_c14read_configureEPK25eap_configuration_field_cP19eap_variable_data_c @ 413 NONAME
	_ZN38eapol_am_wlan_authentication_symbian_c14set_am_partnerEP34abs_eapol_am_wlan_authentication_cP26abs_eap_configuration_if_c @ 414 NONAME
	_ZN38eapol_am_wlan_authentication_symbian_c15write_configureEPK25eap_configuration_field_cP19eap_variable_data_c @ 415 NONAME
	_ZN38eapol_am_wlan_authentication_symbian_c17cancel_all_timersEv @ 416 NONAME
	_ZN38eapol_am_wlan_authentication_symbian_c18state_notificationEPK28abs_eap_state_notification_c @ 417 NONAME
	_ZN38eapol_am_wlan_authentication_symbian_c19set_wlan_parametersEPK19eap_variable_data_cbS2_31eapol_key_authentication_type_e @ 418 NONAME
	_ZN38eapol_am_wlan_authentication_symbian_c22get_wlan_configurationEP19eap_variable_data_c @ 419 NONAME
	_ZN38eapol_am_wlan_authentication_symbian_c23authentication_finishedEb19eap_expanded_type_c31eapol_key_authentication_type_e @ 420 NONAME
	_ZN38eapol_am_wlan_authentication_symbian_c23reset_wpa_configurationEv @ 421 NONAME
	_ZN38eapol_am_wlan_authentication_symbian_c26save_simple_config_sessionE21simple_config_state_ePK11eap_array_cI26simple_config_credential_cEPK19eap_variable_data_c34simple_config_Device_Password_ID_ePK24simple_config_payloads_c @ 422 NONAME
	_ZN38eapol_am_wlan_authentication_symbian_c33set_eap_database_reference_valuesEPK19eap_variable_data_c @ 423 NONAME
	_ZN38eapol_am_wlan_authentication_symbian_c8shutdownEv @ 424 NONAME
	_ZN38eapol_am_wlan_authentication_symbian_c9configureEv @ 425 NONAME
	_ZN38eapol_am_wlan_authentication_symbian_c9set_timerEP20abs_eap_base_timer_cmPvm @ 426 NONAME
	_ZN38eapol_am_wlan_authentication_symbian_cC1EP18abs_eap_am_tools_cb @ 427 NONAME
	_ZN38eapol_am_wlan_authentication_symbian_cC2EP18abs_eap_am_tools_cb @ 428 NONAME
	_ZN38eapol_am_wlan_authentication_symbian_cD0Ev @ 429 NONAME
	_ZN38eapol_am_wlan_authentication_symbian_cD1Ev @ 430 NONAME
	_ZN38eapol_am_wlan_authentication_symbian_cD2Ev @ 431 NONAME
	_ZNK17eapol_key_state_c19get_eapol_key_stateEv @ 432 NONAME
	_ZNK22eapol_RC4_key_header_c12check_headerEv @ 433 NONAME
	_ZNK22eapol_RC4_key_header_c12get_key_flagEv @ 434 NONAME
	_ZNK22eapol_RC4_key_header_c13get_key_indexEv @ 435 NONAME
	_ZNK22eapol_RC4_key_header_c14get_key_lengthEv @ 436 NONAME
	_ZNK22eapol_RC4_key_header_c17get_key_signatureEv @ 437 NONAME
	_ZNK22eapol_RC4_key_header_c21get_eapol_packet_typeEv @ 438 NONAME
	_ZNK22eapol_RC4_key_header_c23get_key_descriptor_typeEv @ 439 NONAME
	_ZNK22eapol_RC4_key_header_c26get_eapol_protocol_versionEv @ 440 NONAME
	_ZNK22eapol_RC4_key_header_c28get_eapol_packet_body_lengthEv @ 441 NONAME
	_ZNK22eapol_RC4_key_header_c7get_keyEv @ 442 NONAME
	_ZNK23eapol_RSNA_key_header_c11get_key_MICEv @ 443 NONAME
	_ZNK23eapol_RSNA_key_header_c11get_key_RSCEv @ 444 NONAME
	_ZNK23eapol_RSNA_key_header_c12check_headerEv @ 445 NONAME
	_ZNK23eapol_RSNA_key_header_c12get_key_dataEm @ 446 NONAME
	_ZNK23eapol_RSNA_key_header_c13get_key_NONCEEv @ 447 NONAME
	_ZNK23eapol_RSNA_key_header_c14get_key_lengthEv @ 448 NONAME
	_ZNK23eapol_RSNA_key_header_c16get_EAPOL_key_IVEv @ 449 NONAME
	_ZNK23eapol_RSNA_key_header_c16get_key_reservedEv @ 450 NONAME
	_ZNK23eapol_RSNA_key_header_c19get_key_data_lengthEv @ 451 NONAME
	_ZNK23eapol_RSNA_key_header_c19get_key_data_offsetEmm @ 452 NONAME
	_ZNK23eapol_RSNA_key_header_c19get_key_informationEv @ 453 NONAME
	_ZNK23eapol_RSNA_key_header_c21get_eapol_packet_typeEv @ 454 NONAME
	_ZNK23eapol_RSNA_key_header_c22get_key_replay_counterEv @ 455 NONAME
	_ZNK23eapol_RSNA_key_header_c23get_eapol_packet_lengthEv @ 456 NONAME
	_ZNK23eapol_RSNA_key_header_c23get_key_STA_MAC_addressEv @ 457 NONAME
	_ZNK23eapol_RSNA_key_header_c23get_key_descriptor_typeEv @ 458 NONAME
	_ZNK23eapol_RSNA_key_header_c25get_key_information_errorEv @ 459 NONAME
	_ZNK23eapol_RSNA_key_header_c26get_eapol_protocol_versionEv @ 460 NONAME
	_ZNK23eapol_RSNA_key_header_c26get_key_information_secureEv @ 461 NONAME
	_ZNK23eapol_RSNA_key_header_c27get_key_information_installEv @ 462 NONAME
	_ZNK23eapol_RSNA_key_header_c27get_key_information_key_MICEv @ 463 NONAME
	_ZNK23eapol_RSNA_key_header_c27get_key_information_key_ackEv @ 464 NONAME
	_ZNK23eapol_RSNA_key_header_c27get_key_information_requestEv @ 465 NONAME
	_ZNK23eapol_RSNA_key_header_c28get_eapol_packet_body_lengthEv @ 466 NONAME
	_ZNK23eapol_RSNA_key_header_c28get_key_information_key_typeEv @ 467 NONAME
	_ZNK23eapol_RSNA_key_header_c29get_key_information_key_indexEv @ 468 NONAME
	_ZNK23eapol_RSNA_key_header_c30get_key_information_reserved_aEv @ 469 NONAME
	_ZNK23eapol_RSNA_key_header_c30get_key_information_reserved_bEv @ 470 NONAME
	_ZNK23eapol_RSNA_key_header_c38get_key_information_encrypted_key_dataEv @ 471 NONAME
	_ZNK23eapol_RSNA_key_header_c42get_key_information_key_descriptor_versionEv @ 472 NONAME
	_ZNK26eapol_rsna_variable_data_c19get_original_headerEv @ 473 NONAME
	_ZTI12eapol_core_c @ 474 NONAME
	_ZTI15ethernet_core_c @ 475 NONAME
	_ZTI17eapol_key_state_c @ 476 NONAME
	_ZTI22eapol_RC4_key_header_c @ 477 NONAME
	_ZTI23eapol_RSNA_key_header_c @ 478 NONAME
	_ZTI24eapol_key_state_string_c @ 479 NONAME
	_ZTI26eapol_rsna_variable_data_c @ 480 NONAME
	_ZTI27eapol_wlan_authentication_c @ 481 NONAME
	_ZTI28eap_core_client_message_if_c @ 482 NONAME
	_ZTI28eapol_rsna_key_data_header_c @ 483 NONAME
	_ZTI30eapol_am_wlan_authentication_c @ 484 NONAME
	_ZTI30eapol_rsna_key_data_payloads_c @ 485 NONAME
	_ZTI31eapol_handle_tlv_message_data_c @ 486 NONAME
	_ZTI32eapol_rsna_key_data_gtk_header_c @ 487 NONAME
	_ZTI35eapol_message_wlan_authentication_c @ 488 NONAME
	_ZTI38eapol_am_wlan_authentication_symbian_c @ 489 NONAME
	_ZTV12eapol_core_c @ 490 NONAME
	_ZTV15ethernet_core_c @ 491 NONAME
	_ZTV17eapol_key_state_c @ 492 NONAME
	_ZTV22eapol_RC4_key_header_c @ 493 NONAME
	_ZTV23eapol_RSNA_key_header_c @ 494 NONAME
	_ZTV24eapol_key_state_string_c @ 495 NONAME
	_ZTV26eapol_rsna_variable_data_c @ 496 NONAME
	_ZTV27eapol_wlan_authentication_c @ 497 NONAME
	_ZTV28eap_core_client_message_if_c @ 498 NONAME
	_ZTV28eapol_rsna_key_data_header_c @ 499 NONAME
	_ZTV30eapol_am_wlan_authentication_c @ 500 NONAME
	_ZTV30eapol_rsna_key_data_payloads_c @ 501 NONAME
	_ZTV31eapol_handle_tlv_message_data_c @ 502 NONAME
	_ZTV32eapol_rsna_key_data_gtk_header_c @ 503 NONAME
	_ZTV35eapol_message_wlan_authentication_c @ 504 NONAME
	_ZTV38eapol_am_wlan_authentication_symbian_c @ 505 NONAME
	_ZThn12_N12eapol_core_c12cancel_timerEP20abs_eap_base_timer_cm @ 506 NONAME
	_ZThn12_N12eapol_core_c14read_configureEPK25eap_configuration_field_cP19eap_variable_data_c @ 507 NONAME
	_ZThn12_N12eapol_core_c15write_configureEPK25eap_configuration_field_cP19eap_variable_data_c @ 508 NONAME
	_ZThn12_N12eapol_core_c18state_notificationEPK28abs_eap_state_notification_c @ 509 NONAME
	_ZThn12_N12eapol_core_c23packet_data_session_keyEPK19eap_am_network_id_cPK19eapol_session_key_c @ 510 NONAME
	_ZThn12_N12eapol_core_c36get_and_increment_global_key_counterEP19eap_variable_data_c @ 511 NONAME
	_ZThn12_N12eapol_core_c40asynchronous_init_remove_eapol_key_stateEPK19eap_am_network_id_c @ 512 NONAME
	_ZThn12_N12eapol_core_c9set_timerEP20abs_eap_base_timer_cmPvm @ 513 NONAME
	_ZThn12_N12eapol_core_cD0Ev @ 514 NONAME
	_ZThn12_N12eapol_core_cD1Ev @ 515 NONAME
	_ZThn12_N27eapol_wlan_authentication_c33set_eap_database_reference_valuesEPK19eap_variable_data_c @ 516 NONAME
	_ZThn12_N28eap_core_client_message_if_c12get_is_validEv @ 517 NONAME
	_ZThn12_N28eap_core_client_message_if_c12set_is_validEv @ 518 NONAME
	_ZThn12_N28eap_core_client_message_if_c14packet_processEPK19eap_am_network_id_cP25eap_general_header_base_cm @ 519 NONAME
	_ZThn12_N28eap_core_client_message_if_c8shutdownEv @ 520 NONAME
	_ZThn12_N28eap_core_client_message_if_c9configureEv @ 521 NONAME
	_ZThn12_N28eap_core_client_message_if_cD0Ev @ 522 NONAME
	_ZThn12_N28eap_core_client_message_if_cD1Ev @ 523 NONAME
	_ZThn16_N12eapol_core_cD0Ev @ 524 NONAME
	_ZThn16_N12eapol_core_cD1Ev @ 525 NONAME
	_ZThn16_N27eapol_wlan_authentication_c26save_simple_config_sessionE21simple_config_state_ePK11eap_array_cI26simple_config_credential_cEPK19eap_variable_data_c34simple_config_Device_Password_ID_ePK24simple_config_payloads_c @ 526 NONAME
	_ZThn20_N12eapol_core_c33set_eap_database_reference_valuesEPK19eap_variable_data_c @ 527 NONAME
	_ZThn20_N12eapol_core_cD0Ev @ 528 NONAME
	_ZThn20_N12eapol_core_cD1Ev @ 529 NONAME
	_ZThn4_N12eapol_core_c13timer_expiredEmPv @ 530 NONAME
	_ZThn4_N12eapol_core_c17timer_delete_dataEmPv @ 531 NONAME
	_ZThn4_N12eapol_core_cD0Ev @ 532 NONAME
	_ZThn4_N12eapol_core_cD1Ev @ 533 NONAME
	_ZThn4_N15ethernet_core_c12get_is_validEv @ 534 NONAME
	_ZThn4_N15ethernet_core_c12set_is_validEv @ 535 NONAME
	_ZThn4_N15ethernet_core_c14packet_processEPK19eap_am_network_id_cP25eap_general_header_base_cm @ 536 NONAME
	_ZThn4_N15ethernet_core_c8shutdownEv @ 537 NONAME
	_ZThn4_N15ethernet_core_c9configureEv @ 538 NONAME
	_ZThn4_N15ethernet_core_cD0Ev @ 539 NONAME
	_ZThn4_N15ethernet_core_cD1Ev @ 540 NONAME
	_ZThn4_N27eapol_wlan_authentication_c11load_moduleE19eap_expanded_type_cS0_P19abs_eap_base_type_cPP15eap_base_type_cbPK19eap_am_network_id_c @ 541 NONAME
	_ZThn4_N27eapol_wlan_authentication_c11packet_sendEPK19eap_am_network_id_cP18eap_buf_chain_wr_cmmm @ 542 NONAME
	_ZThn4_N27eapol_wlan_authentication_c12add_rogue_apER11eap_array_cI20eap_rogue_ap_entry_cE @ 543 NONAME
	_ZThn4_N27eapol_wlan_authentication_c12cancel_timerEP20abs_eap_base_timer_cm @ 544 NONAME
	_ZThn4_N27eapol_wlan_authentication_c13get_is_clientEv @ 545 NONAME
	_ZThn4_N27eapol_wlan_authentication_c13unload_moduleE19eap_expanded_type_c @ 546 NONAME
	_ZThn4_N27eapol_wlan_authentication_c14read_configureEPK25eap_configuration_field_cP19eap_variable_data_c @ 547 NONAME
	_ZThn4_N27eapol_wlan_authentication_c15write_configureEPK25eap_configuration_field_cP19eap_variable_data_c @ 548 NONAME
	_ZThn4_N27eapol_wlan_authentication_c17cancel_all_timersEv @ 549 NONAME
	_ZThn4_N27eapol_wlan_authentication_c17get_eap_type_listEP11eap_array_cI19eap_expanded_type_cE @ 550 NONAME
	_ZThn4_N27eapol_wlan_authentication_c17get_header_offsetEPmS0_ @ 551 NONAME
	_ZThn4_N27eapol_wlan_authentication_c18state_notificationEPK28abs_eap_state_notification_c @ 552 NONAME
	_ZThn4_N27eapol_wlan_authentication_c23check_is_valid_eap_typeE19eap_expanded_type_c @ 553 NONAME
	_ZThn4_N27eapol_wlan_authentication_c23complete_disassociationEbPK19eap_am_network_id_c @ 554 NONAME
	_ZThn4_N27eapol_wlan_authentication_c23packet_data_session_keyEPK19eap_am_network_id_cPK19eapol_session_key_c @ 555 NONAME
	_ZThn4_N27eapol_wlan_authentication_c26save_simple_config_sessionE21simple_config_state_ePK11eap_array_cI26simple_config_credential_cEPK19eap_variable_data_c34simple_config_Device_Password_ID_ePK24simple_config_payloads_c @ 556 NONAME
	_ZThn4_N27eapol_wlan_authentication_c39complete_get_802_11_authentication_modeE12eap_status_ePK19eap_am_network_id_c38eapol_key_802_11_authentication_mode_e @ 557 NONAME
	_ZThn4_N27eapol_wlan_authentication_c9set_timerEP20abs_eap_base_timer_cmPvm @ 558 NONAME
	_ZThn4_N28eap_core_client_message_if_c12get_is_validEv @ 559 NONAME
	_ZThn4_N28eap_core_client_message_if_c14packet_processEPK19eap_am_network_id_cP25eap_general_header_base_cm @ 560 NONAME
	_ZThn4_N28eap_core_client_message_if_c15eap_acknowledgeEPK19eap_am_network_id_c @ 561 NONAME
	_ZThn4_N28eap_core_client_message_if_c18create_eap_sessionEPK19eap_am_network_id_c @ 562 NONAME
	_ZThn4_N28eap_core_client_message_if_c18remove_eap_sessionEbPK19eap_am_network_id_c @ 563 NONAME
	_ZThn4_N28eap_core_client_message_if_c23cancel_all_eap_sessionsEv @ 564 NONAME
	_ZThn4_N28eap_core_client_message_if_c25send_eap_identity_requestEPK19eap_am_network_id_c @ 565 NONAME
	_ZThn4_N28eap_core_client_message_if_c30get_802_11_authentication_modeEPK19eap_am_network_id_c31eapol_key_authentication_type_ePK19eap_variable_data_cS6_ @ 566 NONAME
	_ZThn4_N28eap_core_client_message_if_c33set_eap_database_reference_valuesEPK19eap_variable_data_c @ 567 NONAME
	_ZThn4_N28eap_core_client_message_if_c5resetEv @ 568 NONAME
	_ZThn4_N28eap_core_client_message_if_c8shutdownEv @ 569 NONAME
	_ZThn4_N28eap_core_client_message_if_c9configureEv @ 570 NONAME
	_ZThn4_N28eap_core_client_message_if_cD0Ev @ 571 NONAME
	_ZThn4_N28eap_core_client_message_if_cD1Ev @ 572 NONAME
	_ZThn4_N35eapol_message_wlan_authentication_c13timer_expiredEmPv @ 573 NONAME
	_ZThn4_N35eapol_message_wlan_authentication_c17timer_delete_dataEmPv @ 574 NONAME
	_ZThn4_N35eapol_message_wlan_authentication_cD0Ev @ 575 NONAME
	_ZThn4_N35eapol_message_wlan_authentication_cD1Ev @ 576 NONAME
	_ZThn4_N38eapol_am_wlan_authentication_symbian_c26save_simple_config_sessionE21simple_config_state_ePK11eap_array_cI26simple_config_credential_cEPK19eap_variable_data_c34simple_config_Device_Password_ID_ePK24simple_config_payloads_c @ 577 NONAME
	_ZThn4_N38eapol_am_wlan_authentication_symbian_cD0Ev @ 578 NONAME
	_ZThn4_N38eapol_am_wlan_authentication_symbian_cD1Ev @ 579 NONAME
	_ZThn8_N12eapol_core_c12get_is_validEv @ 580 NONAME
	_ZThn8_N12eapol_core_c12set_is_validEv @ 581 NONAME
	_ZThn8_N12eapol_core_c14packet_processEPK19eap_am_network_id_cP25eap_general_header_base_cm @ 582 NONAME
	_ZThn8_N12eapol_core_c8shutdownEv @ 583 NONAME
	_ZThn8_N12eapol_core_c9configureEv @ 584 NONAME
	_ZThn8_N12eapol_core_cD0Ev @ 585 NONAME
	_ZThn8_N12eapol_core_cD1Ev @ 586 NONAME
	_ZThn8_N15ethernet_core_c33set_eap_database_reference_valuesEPK19eap_variable_data_c @ 587 NONAME
	_ZThn8_N15ethernet_core_cD0Ev @ 588 NONAME
	_ZThn8_N15ethernet_core_cD1Ev @ 589 NONAME
	_ZThn8_N27eapol_wlan_authentication_c13timer_expiredEmPv @ 590 NONAME
	_ZThn8_N27eapol_wlan_authentication_c17timer_delete_dataEmPv @ 591 NONAME
	_ZThn8_N28eap_core_client_message_if_c13timer_expiredEmPv @ 592 NONAME
	_ZThn8_N28eap_core_client_message_if_c17timer_delete_dataEmPv @ 593 NONAME
	_ZThn8_N28eap_core_client_message_if_cD0Ev @ 594 NONAME
	_ZThn8_N28eap_core_client_message_if_cD1Ev @ 595 NONAME

