EXPORTS
	?CanSetAutomatedL@CDrmAutomatedUsage@DRM@@QAEHAAVRFile@@W4TIntent@ContentAccess@@W4TDrmAutomatedType@2@@Z @ 1 NONAME ; int DRM::CDrmAutomatedUsage::CanSetAutomatedL(class RFile &, enum ContentAccess::TIntent, enum DRM::TDrmAutomatedType)
	?CanSetAutomatedL@CDrmAutomatedUsage@DRM@@QAEHABVCData@ContentAccess@@W4TIntent@4@W4TDrmAutomatedType@2@@Z @ 2 NONAME ; int DRM::CDrmAutomatedUsage::CanSetAutomatedL(class ContentAccess::CData const &, enum ContentAccess::TIntent, enum DRM::TDrmAutomatedType)
	?CancelOperation@CDrmAutomatedUsage@DRM@@QAEHH@Z @ 3 NONAME ; int DRM::CDrmAutomatedUsage::CancelOperation(int)
	?GetErrorHandler@CDrmAutomatedUsage@DRM@@QBEAAVMDrmErrorHandling@2@XZ @ 4 NONAME ; class DRM::MDrmErrorHandling & DRM::CDrmAutomatedUsage::GetErrorHandler(void) const
	?GetUtility@CDrmAutomatedUsage@DRM@@QBEAAVCDrmUtility@2@XZ @ 5 NONAME ; class DRM::CDrmUtility & DRM::CDrmAutomatedUsage::GetUtility(void) const
	?HandleErrorAsyncL@CDrmAutomatedUsageErrorHandling@DRM@@UAEHAAVCData@ContentAccess@@W4TIntent@4@HAAVMDrmHandleErrorObserver@2@@Z @ 6 NONAME ; int DRM::CDrmAutomatedUsageErrorHandling::HandleErrorAsyncL(class ContentAccess::CData &, enum ContentAccess::TIntent, int, class DRM::MDrmHandleErrorObserver &)
	?HandleErrorAsyncL@CDrmAutomatedUsageErrorHandling@DRM@@UAEHAAVRFile@@W4TIntent@ContentAccess@@HAAVMDrmHandleErrorObserver@2@@Z @ 7 NONAME ; int DRM::CDrmAutomatedUsageErrorHandling::HandleErrorAsyncL(class RFile &, enum ContentAccess::TIntent, int, class DRM::MDrmHandleErrorObserver &)
	?HandleErrorL@CDrmAutomatedUsageErrorHandling@DRM@@UAEXAAVCData@ContentAccess@@W4TIntent@4@HPAVMDrmHandleErrorObserver@2@@Z @ 8 NONAME ; void DRM::CDrmAutomatedUsageErrorHandling::HandleErrorL(class ContentAccess::CData &, enum ContentAccess::TIntent, int, class DRM::MDrmHandleErrorObserver *)
	?HandleErrorL@CDrmAutomatedUsageErrorHandling@DRM@@UAEXAAVRFile@@W4TIntent@ContentAccess@@HPAVMDrmHandleErrorObserver@2@@Z @ 9 NONAME ; void DRM::CDrmAutomatedUsageErrorHandling::HandleErrorL(class RFile &, enum ContentAccess::TIntent, int, class DRM::MDrmHandleErrorObserver *)
	?NewL@CDrmAutomatedUsage@DRM@@SAPAV12@PAVCCoeEnv@@@Z @ 10 NONAME ; class DRM::CDrmAutomatedUsage * DRM::CDrmAutomatedUsage::NewL(class CCoeEnv *)
	?NewL@CDrmAutomatedUsageErrorHandling@DRM@@SAPAV12@PAVCDrmAutomatedUsageImpl@2@@Z @ 11 NONAME ; class DRM::CDrmAutomatedUsageErrorHandling * DRM::CDrmAutomatedUsageErrorHandling::NewL(class DRM::CDrmAutomatedUsageImpl *)
	?NewLC@CDrmAutomatedUsage@DRM@@SAPAV12@PAVCCoeEnv@@@Z @ 12 NONAME ; class DRM::CDrmAutomatedUsage * DRM::CDrmAutomatedUsage::NewLC(class CCoeEnv *)
	?NewLC@CDrmAutomatedUsageErrorHandling@DRM@@SAPAV12@PAVCDrmAutomatedUsageImpl@2@@Z @ 13 NONAME ; class DRM::CDrmAutomatedUsageErrorHandling * DRM::CDrmAutomatedUsageErrorHandling::NewLC(class DRM::CDrmAutomatedUsageImpl *)
	?RegisterEventObserverL@CDrmAutomatedUsage@DRM@@QAEXAAVMDrmAutomatedUsageObserver@2@@Z @ 14 NONAME ; void DRM::CDrmAutomatedUsage::RegisterEventObserverL(class DRM::MDrmAutomatedUsageObserver &)
	?RemoveAutomatedAsyncL@CDrmAutomatedUsage@DRM@@QAEHAAVRFile@@W4TIntent@ContentAccess@@W4TDrmAutomatedType@2@AAVMDrmAsyncObserver@2@W4TDrmAutomatedServiceType@2@@Z @ 15 NONAME ; int DRM::CDrmAutomatedUsage::RemoveAutomatedAsyncL(class RFile &, enum ContentAccess::TIntent, enum DRM::TDrmAutomatedType, class DRM::MDrmAsyncObserver &, enum DRM::TDrmAutomatedServiceType)
	?RemoveAutomatedAsyncL@CDrmAutomatedUsage@DRM@@QAEHABVCData@ContentAccess@@W4TIntent@4@W4TDrmAutomatedType@2@AAVMDrmAsyncObserver@2@W4TDrmAutomatedServiceType@2@@Z @ 16 NONAME ; int DRM::CDrmAutomatedUsage::RemoveAutomatedAsyncL(class ContentAccess::CData const &, enum ContentAccess::TIntent, enum DRM::TDrmAutomatedType, class DRM::MDrmAsyncObserver &, enum DRM::TDrmAutomatedServiceType)
	?RemoveAutomatedAsyncL@CDrmAutomatedUsage@DRM@@QAEHABVTDesC16@@W4TIntent@ContentAccess@@W4TDrmAutomatedType@2@AAVMDrmAsyncObserver@2@W4TDrmAutomatedServiceType@2@@Z @ 17 NONAME ; int DRM::CDrmAutomatedUsage::RemoveAutomatedAsyncL(class TDesC16 const &, enum ContentAccess::TIntent, enum DRM::TDrmAutomatedType, class DRM::MDrmAsyncObserver &, enum DRM::TDrmAutomatedServiceType)
	?RemoveAutomatedL@CDrmAutomatedUsage@DRM@@QAEXAAVRFile@@W4TIntent@ContentAccess@@W4TDrmAutomatedType@2@W4TDrmAutomatedServiceType@2@@Z @ 18 NONAME ; void DRM::CDrmAutomatedUsage::RemoveAutomatedL(class RFile &, enum ContentAccess::TIntent, enum DRM::TDrmAutomatedType, enum DRM::TDrmAutomatedServiceType)
	?RemoveAutomatedL@CDrmAutomatedUsage@DRM@@QAEXABVCData@ContentAccess@@W4TIntent@4@W4TDrmAutomatedType@2@W4TDrmAutomatedServiceType@2@@Z @ 19 NONAME ; void DRM::CDrmAutomatedUsage::RemoveAutomatedL(class ContentAccess::CData const &, enum ContentAccess::TIntent, enum DRM::TDrmAutomatedType, enum DRM::TDrmAutomatedServiceType)
	?RemoveAutomatedL@CDrmAutomatedUsage@DRM@@QAEXABVTDesC16@@W4TIntent@ContentAccess@@W4TDrmAutomatedType@2@W4TDrmAutomatedServiceType@2@@Z @ 20 NONAME ; void DRM::CDrmAutomatedUsage::RemoveAutomatedL(class TDesC16 const &, enum ContentAccess::TIntent, enum DRM::TDrmAutomatedType, enum DRM::TDrmAutomatedServiceType)
	?SetAutomatedAsyncL@CDrmAutomatedUsage@DRM@@QAEHAAVRFile@@W4TIntent@ContentAccess@@W4TDrmAutomatedType@2@AAVMDrmAsyncObserver@2@W4TDrmAutomatedServiceType@2@@Z @ 21 NONAME ; int DRM::CDrmAutomatedUsage::SetAutomatedAsyncL(class RFile &, enum ContentAccess::TIntent, enum DRM::TDrmAutomatedType, class DRM::MDrmAsyncObserver &, enum DRM::TDrmAutomatedServiceType)
	?SetAutomatedAsyncL@CDrmAutomatedUsage@DRM@@QAEHABVCData@ContentAccess@@W4TIntent@4@W4TDrmAutomatedType@2@AAVMDrmAsyncObserver@2@W4TDrmAutomatedServiceType@2@@Z @ 22 NONAME ; int DRM::CDrmAutomatedUsage::SetAutomatedAsyncL(class ContentAccess::CData const &, enum ContentAccess::TIntent, enum DRM::TDrmAutomatedType, class DRM::MDrmAsyncObserver &, enum DRM::TDrmAutomatedServiceType)
	?SetAutomatedL@CDrmAutomatedUsage@DRM@@QAEXAAVRFile@@W4TIntent@ContentAccess@@W4TDrmAutomatedType@2@W4TDrmAutomatedServiceType@2@@Z @ 23 NONAME ; void DRM::CDrmAutomatedUsage::SetAutomatedL(class RFile &, enum ContentAccess::TIntent, enum DRM::TDrmAutomatedType, enum DRM::TDrmAutomatedServiceType)
	?SetAutomatedL@CDrmAutomatedUsage@DRM@@QAEXABVCData@ContentAccess@@W4TIntent@4@W4TDrmAutomatedType@2@W4TDrmAutomatedServiceType@2@@Z @ 24 NONAME ; void DRM::CDrmAutomatedUsage::SetAutomatedL(class ContentAccess::CData const &, enum ContentAccess::TIntent, enum DRM::TDrmAutomatedType, enum DRM::TDrmAutomatedServiceType)
	?UnregisterEventObserverL@CDrmAutomatedUsage@DRM@@QAEXAAVMDrmAutomatedUsageObserver@2@@Z @ 25 NONAME ; void DRM::CDrmAutomatedUsage::UnregisterEventObserverL(class DRM::MDrmAutomatedUsageObserver &)

