EXPORTS
	?CanSetAutomatedL@CDrmAutomatedUsageImpl@DRM@@QAEHAAVRFile@@W4TIntent@ContentAccess@@W4TDrmAutomatedType@2@@Z @ 1 NONAME ; int DRM::CDrmAutomatedUsageImpl::CanSetAutomatedL(class RFile &, enum ContentAccess::TIntent, enum DRM::TDrmAutomatedType)
	?CanSetAutomatedL@CDrmAutomatedUsageImpl@DRM@@QAEHABVCData@ContentAccess@@W4TIntent@4@W4TDrmAutomatedType@2@@Z @ 2 NONAME ; int DRM::CDrmAutomatedUsageImpl::CanSetAutomatedL(class ContentAccess::CData const &, enum ContentAccess::TIntent, enum DRM::TDrmAutomatedType)
	?CancelOperation@CDrmAutomatedUsageImpl@DRM@@QAEHH@Z @ 3 NONAME ; int DRM::CDrmAutomatedUsageImpl::CancelOperation(int)
	?HandleErrorAsyncL@CDrmAutomatedUsageImpl@DRM@@QAEHAAVCData@ContentAccess@@W4TIntent@4@HAAVMDrmHandleErrorObserver@2@@Z @ 4 NONAME ; int DRM::CDrmAutomatedUsageImpl::HandleErrorAsyncL(class ContentAccess::CData &, enum ContentAccess::TIntent, int, class DRM::MDrmHandleErrorObserver &)
	?HandleErrorAsyncL@CDrmAutomatedUsageImpl@DRM@@QAEHAAVRFile@@W4TIntent@ContentAccess@@HAAVMDrmHandleErrorObserver@2@@Z @ 5 NONAME ; int DRM::CDrmAutomatedUsageImpl::HandleErrorAsyncL(class RFile &, enum ContentAccess::TIntent, int, class DRM::MDrmHandleErrorObserver &)
	?HandleErrorL@CDrmAutomatedUsageImpl@DRM@@QAEXAAVCData@ContentAccess@@W4TIntent@4@HPAVMDrmHandleErrorObserver@2@@Z @ 6 NONAME ; void DRM::CDrmAutomatedUsageImpl::HandleErrorL(class ContentAccess::CData &, enum ContentAccess::TIntent, int, class DRM::MDrmHandleErrorObserver *)
	?HandleErrorL@CDrmAutomatedUsageImpl@DRM@@QAEXAAVRFile@@W4TIntent@ContentAccess@@HPAVMDrmHandleErrorObserver@2@@Z @ 7 NONAME ; void DRM::CDrmAutomatedUsageImpl::HandleErrorL(class RFile &, enum ContentAccess::TIntent, int, class DRM::MDrmHandleErrorObserver *)
	?NewL@CDrmAutomatedUsageImpl@DRM@@SAPAV12@PAVCCoeEnv@@PAVCDrmUtility@2@@Z @ 8 NONAME ; class DRM::CDrmAutomatedUsageImpl * DRM::CDrmAutomatedUsageImpl::NewL(class CCoeEnv *, class DRM::CDrmUtility *)
	?NewLC@CDrmAutomatedUsageImpl@DRM@@SAPAV12@PAVCCoeEnv@@PAVCDrmUtility@2@@Z @ 9 NONAME ; class DRM::CDrmAutomatedUsageImpl * DRM::CDrmAutomatedUsageImpl::NewLC(class CCoeEnv *, class DRM::CDrmUtility *)
	?RegisterEventObserverL@CDrmAutomatedUsageImpl@DRM@@QAEXAAVMDrmAutomatedUsageObserver@2@@Z @ 10 NONAME ; void DRM::CDrmAutomatedUsageImpl::RegisterEventObserverL(class DRM::MDrmAutomatedUsageObserver &)
	?RemoveAutomatedAsyncL@CDrmAutomatedUsageImpl@DRM@@QAEHAAVRFile@@W4TIntent@ContentAccess@@W4TDrmAutomatedType@2@AAVMDrmAsyncObserver@2@W4TDrmAutomatedServiceType@2@@Z @ 11 NONAME ; int DRM::CDrmAutomatedUsageImpl::RemoveAutomatedAsyncL(class RFile &, enum ContentAccess::TIntent, enum DRM::TDrmAutomatedType, class DRM::MDrmAsyncObserver &, enum DRM::TDrmAutomatedServiceType)
	?RemoveAutomatedAsyncL@CDrmAutomatedUsageImpl@DRM@@QAEHABVCData@ContentAccess@@W4TIntent@4@W4TDrmAutomatedType@2@AAVMDrmAsyncObserver@2@W4TDrmAutomatedServiceType@2@@Z @ 12 NONAME ; int DRM::CDrmAutomatedUsageImpl::RemoveAutomatedAsyncL(class ContentAccess::CData const &, enum ContentAccess::TIntent, enum DRM::TDrmAutomatedType, class DRM::MDrmAsyncObserver &, enum DRM::TDrmAutomatedServiceType)
	?RemoveAutomatedAsyncL@CDrmAutomatedUsageImpl@DRM@@QAEHABVTDesC16@@W4TIntent@ContentAccess@@W4TDrmAutomatedType@2@AAVMDrmAsyncObserver@2@W4TDrmAutomatedServiceType@2@@Z @ 13 NONAME ; int DRM::CDrmAutomatedUsageImpl::RemoveAutomatedAsyncL(class TDesC16 const &, enum ContentAccess::TIntent, enum DRM::TDrmAutomatedType, class DRM::MDrmAsyncObserver &, enum DRM::TDrmAutomatedServiceType)
	?RemoveAutomatedL@CDrmAutomatedUsageImpl@DRM@@QAEXAAVRFile@@W4TIntent@ContentAccess@@W4TDrmAutomatedType@2@W4TDrmAutomatedServiceType@2@@Z @ 14 NONAME ; void DRM::CDrmAutomatedUsageImpl::RemoveAutomatedL(class RFile &, enum ContentAccess::TIntent, enum DRM::TDrmAutomatedType, enum DRM::TDrmAutomatedServiceType)
	?RemoveAutomatedL@CDrmAutomatedUsageImpl@DRM@@QAEXABVCData@ContentAccess@@W4TIntent@4@W4TDrmAutomatedType@2@W4TDrmAutomatedServiceType@2@@Z @ 15 NONAME ; void DRM::CDrmAutomatedUsageImpl::RemoveAutomatedL(class ContentAccess::CData const &, enum ContentAccess::TIntent, enum DRM::TDrmAutomatedType, enum DRM::TDrmAutomatedServiceType)
	?RemoveAutomatedL@CDrmAutomatedUsageImpl@DRM@@QAEXABVTDesC16@@W4TIntent@ContentAccess@@W4TDrmAutomatedType@2@W4TDrmAutomatedServiceType@2@@Z @ 16 NONAME ; void DRM::CDrmAutomatedUsageImpl::RemoveAutomatedL(class TDesC16 const &, enum ContentAccess::TIntent, enum DRM::TDrmAutomatedType, enum DRM::TDrmAutomatedServiceType)
	?SetAutomatedAsyncL@CDrmAutomatedUsageImpl@DRM@@QAEHAAVRFile@@W4TIntent@ContentAccess@@W4TDrmAutomatedType@2@AAVMDrmAsyncObserver@2@W4TDrmAutomatedServiceType@2@@Z @ 17 NONAME ; int DRM::CDrmAutomatedUsageImpl::SetAutomatedAsyncL(class RFile &, enum ContentAccess::TIntent, enum DRM::TDrmAutomatedType, class DRM::MDrmAsyncObserver &, enum DRM::TDrmAutomatedServiceType)
	?SetAutomatedAsyncL@CDrmAutomatedUsageImpl@DRM@@QAEHABVCData@ContentAccess@@W4TIntent@4@W4TDrmAutomatedType@2@AAVMDrmAsyncObserver@2@W4TDrmAutomatedServiceType@2@@Z @ 18 NONAME ; int DRM::CDrmAutomatedUsageImpl::SetAutomatedAsyncL(class ContentAccess::CData const &, enum ContentAccess::TIntent, enum DRM::TDrmAutomatedType, class DRM::MDrmAsyncObserver &, enum DRM::TDrmAutomatedServiceType)
	?SetAutomatedL@CDrmAutomatedUsageImpl@DRM@@QAEXAAVRFile@@W4TIntent@ContentAccess@@W4TDrmAutomatedType@2@W4TDrmAutomatedServiceType@2@@Z @ 19 NONAME ; void DRM::CDrmAutomatedUsageImpl::SetAutomatedL(class RFile &, enum ContentAccess::TIntent, enum DRM::TDrmAutomatedType, enum DRM::TDrmAutomatedServiceType)
	?SetAutomatedL@CDrmAutomatedUsageImpl@DRM@@QAEXABVCData@ContentAccess@@W4TIntent@4@W4TDrmAutomatedType@2@W4TDrmAutomatedServiceType@2@@Z @ 20 NONAME ; void DRM::CDrmAutomatedUsageImpl::SetAutomatedL(class ContentAccess::CData const &, enum ContentAccess::TIntent, enum DRM::TDrmAutomatedType, enum DRM::TDrmAutomatedServiceType)
	?UnregisterEventObserverL@CDrmAutomatedUsageImpl@DRM@@QAEXAAVMDrmAutomatedUsageObserver@2@@Z @ 21 NONAME ; void DRM::CDrmAutomatedUsageImpl::UnregisterEventObserverL(class DRM::MDrmAutomatedUsageObserver &)

