EXPORTS
	?AvailableUrlsAsyncL@CDrmUiHandlingImpl@DRM@@QAEHAAVCData@ContentAccess@@AAW4TDrmUiUrlType@2@AAVMDrmAsyncObserver@2@@Z @ 1 NONAME ; int DRM::CDrmUiHandlingImpl::AvailableUrlsAsyncL(class ContentAccess::CData &, enum DRM::TDrmUiUrlType &, class DRM::MDrmAsyncObserver &)
	?AvailableUrlsAsyncL@CDrmUiHandlingImpl@DRM@@QAEHAAVRFile@@AAW4TDrmUiUrlType@2@AAVMDrmAsyncObserver@2@@Z @ 2 NONAME ; int DRM::CDrmUiHandlingImpl::AvailableUrlsAsyncL(class RFile &, enum DRM::TDrmUiUrlType &, class DRM::MDrmAsyncObserver &)
	?AvailableUrlsL@CDrmUiHandlingImpl@DRM@@QAEXAAVCData@ContentAccess@@AAW4TDrmUiUrlType@2@@Z @ 3 NONAME ; void DRM::CDrmUiHandlingImpl::AvailableUrlsL(class ContentAccess::CData &, enum DRM::TDrmUiUrlType &)
	?AvailableUrlsL@CDrmUiHandlingImpl@DRM@@QAEXAAVRFile@@AAW4TDrmUiUrlType@2@@Z @ 4 NONAME ; void DRM::CDrmUiHandlingImpl::AvailableUrlsL(class RFile &, enum DRM::TDrmUiUrlType &)
	?CancelOperation@CDrmUiHandlingImpl@DRM@@QAEHH@Z @ 5 NONAME ; int DRM::CDrmUiHandlingImpl::CancelOperation(int)
	?CheckRightsAmountAsyncL@CDrmUiHandlingImpl@DRM@@QAEHAAVCData@ContentAccess@@W4TIntent@4@AAVMDrmUiCheckRightsObserver@2@@Z @ 6 NONAME ; int DRM::CDrmUiHandlingImpl::CheckRightsAmountAsyncL(class ContentAccess::CData &, enum ContentAccess::TIntent, class DRM::MDrmUiCheckRightsObserver &)
	?CheckRightsAmountAsyncL@CDrmUiHandlingImpl@DRM@@QAEHAAVRFile@@W4TIntent@ContentAccess@@AAVMDrmUiCheckRightsObserver@2@@Z @ 7 NONAME ; int DRM::CDrmUiHandlingImpl::CheckRightsAmountAsyncL(class RFile &, enum ContentAccess::TIntent, class DRM::MDrmUiCheckRightsObserver &)
	?CheckRightsAmountL@CDrmUiHandlingImpl@DRM@@QAEXAAVCData@ContentAccess@@W4TIntent@4@PAVMDrmUiCheckRightsObserver@2@@Z @ 8 NONAME ; void DRM::CDrmUiHandlingImpl::CheckRightsAmountL(class ContentAccess::CData &, enum ContentAccess::TIntent, class DRM::MDrmUiCheckRightsObserver *)
	?CheckRightsAmountL@CDrmUiHandlingImpl@DRM@@QAEXAAVRFile@@W4TIntent@ContentAccess@@PAVMDrmUiCheckRightsObserver@2@@Z @ 9 NONAME ; void DRM::CDrmUiHandlingImpl::CheckRightsAmountL(class RFile &, enum ContentAccess::TIntent, class DRM::MDrmUiCheckRightsObserver *)
	?HandleErrorAsyncL@CDrmUiHandlingImpl@DRM@@QAEHAAVCData@ContentAccess@@W4TIntent@4@HAAVMDrmHandleErrorObserver@2@@Z @ 10 NONAME ; int DRM::CDrmUiHandlingImpl::HandleErrorAsyncL(class ContentAccess::CData &, enum ContentAccess::TIntent, int, class DRM::MDrmHandleErrorObserver &)
	?HandleErrorAsyncL@CDrmUiHandlingImpl@DRM@@QAEHAAVRFile@@W4TIntent@ContentAccess@@HAAVMDrmHandleErrorObserver@2@@Z @ 11 NONAME ; int DRM::CDrmUiHandlingImpl::HandleErrorAsyncL(class RFile &, enum ContentAccess::TIntent, int, class DRM::MDrmHandleErrorObserver &)
	?HandleErrorL@CDrmUiHandlingImpl@DRM@@QAEXAAVCData@ContentAccess@@W4TIntent@4@HPAVMDrmHandleErrorObserver@2@@Z @ 12 NONAME ; void DRM::CDrmUiHandlingImpl::HandleErrorL(class ContentAccess::CData &, enum ContentAccess::TIntent, int, class DRM::MDrmHandleErrorObserver *)
	?HandleErrorL@CDrmUiHandlingImpl@DRM@@QAEXAAVRFile@@W4TIntent@ContentAccess@@HPAVMDrmHandleErrorObserver@2@@Z @ 13 NONAME ; void DRM::CDrmUiHandlingImpl::HandleErrorL(class RFile &, enum ContentAccess::TIntent, int, class DRM::MDrmHandleErrorObserver *)
	?HandleUrlAsyncL@CDrmUiHandlingImpl@DRM@@QAEHAAVCData@ContentAccess@@W4TDrmUiUrlType@2@AAVMDrmAsyncObserver@2@@Z @ 14 NONAME ; int DRM::CDrmUiHandlingImpl::HandleUrlAsyncL(class ContentAccess::CData &, enum DRM::TDrmUiUrlType, class DRM::MDrmAsyncObserver &)
	?HandleUrlAsyncL@CDrmUiHandlingImpl@DRM@@QAEHAAVRFile@@W4TDrmUiUrlType@2@AAVMDrmAsyncObserver@2@@Z @ 15 NONAME ; int DRM::CDrmUiHandlingImpl::HandleUrlAsyncL(class RFile &, enum DRM::TDrmUiUrlType, class DRM::MDrmAsyncObserver &)
	?HandleUrlL@CDrmUiHandlingImpl@DRM@@QAEXAAVCData@ContentAccess@@W4TDrmUiUrlType@2@@Z @ 16 NONAME ; void DRM::CDrmUiHandlingImpl::HandleUrlL(class ContentAccess::CData &, enum DRM::TDrmUiUrlType)
	?HandleUrlL@CDrmUiHandlingImpl@DRM@@QAEXAAVRFile@@W4TDrmUiUrlType@2@@Z @ 17 NONAME ; void DRM::CDrmUiHandlingImpl::HandleUrlL(class RFile &, enum DRM::TDrmUiUrlType)
	?NewL@CDrmUiHandlingImpl@DRM@@SAPAV12@PAVCDrmUtility@2@PAVCCoeEnv@@@Z @ 18 NONAME ; class DRM::CDrmUiHandlingImpl * DRM::CDrmUiHandlingImpl::NewL(class DRM::CDrmUtility *, class CCoeEnv *)
	?NewLC@CDrmUiHandlingImpl@DRM@@SAPAV12@PAVCDrmUtility@2@PAVCCoeEnv@@@Z @ 19 NONAME ; class DRM::CDrmUiHandlingImpl * DRM::CDrmUiHandlingImpl::NewLC(class DRM::CDrmUtility *, class CCoeEnv *)
	?ShowDetailsViewAsyncL@CDrmUiHandlingImpl@DRM@@QAEHAAVCData@ContentAccess@@AAVMDrmAsyncObserver@2@@Z @ 20 NONAME ; int DRM::CDrmUiHandlingImpl::ShowDetailsViewAsyncL(class ContentAccess::CData &, class DRM::MDrmAsyncObserver &)
	?ShowDetailsViewAsyncL@CDrmUiHandlingImpl@DRM@@QAEHAAVRFile@@AAVMDrmAsyncObserver@2@@Z @ 21 NONAME ; int DRM::CDrmUiHandlingImpl::ShowDetailsViewAsyncL(class RFile &, class DRM::MDrmAsyncObserver &)
	?ShowDetailsViewL@CDrmUiHandlingImpl@DRM@@QAEXAAVCData@ContentAccess@@@Z @ 22 NONAME ; void DRM::CDrmUiHandlingImpl::ShowDetailsViewL(class ContentAccess::CData &)
	?ShowDetailsViewL@CDrmUiHandlingImpl@DRM@@QAEXAAVRFile@@@Z @ 23 NONAME ; void DRM::CDrmUiHandlingImpl::ShowDetailsViewL(class RFile &)

