EXPORTS
	?DisplayNoteL@CDrmUtilityUI@DRM@@QAEXAAVTDesC16@@HABV3@H@Z @ 1 NONAME ; void DRM::CDrmUtilityUI::DisplayNoteL(class TDesC16 &, int, class TDesC16 const &, int)
	?DisplayNoteL@CDrmUtilityUI@DRM@@QAEXH@Z @ 2 NONAME ; void DRM::CDrmUtilityUI::DisplayNoteL(int)
	?DisplayNoteL@CDrmUtilityUI@DRM@@QAEXHABVTDesC16@@@Z @ 3 NONAME ; void DRM::CDrmUtilityUI::DisplayNoteL(int, class TDesC16 const &)
	?DisplayNoteL@CDrmUtilityUI@DRM@@QAEXHH@Z @ 4 NONAME ; void DRM::CDrmUtilityUI::DisplayNoteL(int, int)
	?DisplayPopupWindowsForPreviewL@CDrmUtilityUI@DRM@@QAEHAAVCData@ContentAccess@@HH@Z @ 5 NONAME ; int DRM::CDrmUtilityUI::DisplayPopupWindowsForPreviewL(class ContentAccess::CData &, int, int)
	?DisplayQueryL@CDrmUtilityUI@DRM@@QAEHAAVTDesC16@@H@Z @ 6 NONAME ; int DRM::CDrmUtilityUI::DisplayQueryL(class TDesC16 &, int)
	?DisplayQueryL@CDrmUtilityUI@DRM@@QAEHHABVTDesC16@@@Z @ 7 NONAME ; int DRM::CDrmUtilityUI::DisplayQueryL(int, class TDesC16 const &)
	?DisplayQueryL@CDrmUtilityUI@DRM@@QAEHHABVTDesC16@@HHH@Z @ 8 NONAME ; int DRM::CDrmUtilityUI::DisplayQueryL(int, class TDesC16 const &, int, int, int)
	?DisplayQueryL@CDrmUtilityUI@DRM@@QAEHHH@Z @ 9 NONAME ; int DRM::CDrmUtilityUI::DisplayQueryL(int, int)
	?DisplayQueryWithIdL@CDrmUtilityUI@DRM@@QAEHHH@Z @ 10 NONAME ; int DRM::CDrmUtilityUI::DisplayQueryWithIdL(int, int)
	?DisplayQueryWithIdValueL@CDrmUtilityUI@DRM@@QAEHHHABVTDesC16@@@Z @ 11 NONAME ; int DRM::CDrmUtilityUI::DisplayQueryWithIdValueL(int, int, class TDesC16 const &)
	?GetOmaRightsStatusL@CDrmUtilityCommon@DRM@@QAE?AW4TDrmRightsInfo@2@AAPAVHBufC8@@W4TIntent@ContentAccess@@PAVCDRMConstraint@@@Z @ 12 NONAME ; enum DRM::TDrmRightsInfo DRM::CDrmUtilityCommon::GetOmaRightsStatusL(class HBufC8 * &, enum ContentAccess::TIntent, class CDRMConstraint *)
	?GetWrapper@CDrmUtilityWMDrm@DRM@@QAEPAVMDrmUtilityWMDrmWrapper@2@XZ @ 13 NONAME ; class DRM::MDrmUtilityWMDrmWrapper * DRM::CDrmUtilityWMDrm::GetWrapper(void)
	?NewL@CDrmUtilityCommon@DRM@@SAPAV12@XZ @ 14 NONAME ; class DRM::CDrmUtilityCommon * DRM::CDrmUtilityCommon::NewL(void)
	?NewL@CDrmUtilityUI@DRM@@SAPAV12@PAVCCoeEnv@@@Z @ 15 NONAME ; class DRM::CDrmUtilityUI * DRM::CDrmUtilityUI::NewL(class CCoeEnv *)
	?NewL@CDrmUtilityWMDrm@DRM@@SAPAV12@PAVCCoeEnv@@@Z @ 16 NONAME ; class DRM::CDrmUtilityWMDrm * DRM::CDrmUtilityWMDrm::NewL(class CCoeEnv *)
	?NewLC@CDrmUtilityCommon@DRM@@SAPAV12@XZ @ 17 NONAME ; class DRM::CDrmUtilityCommon * DRM::CDrmUtilityCommon::NewLC(void)
	?NewLC@CDrmUtilityUI@DRM@@SAPAV12@PAVCCoeEnv@@@Z @ 18 NONAME ; class DRM::CDrmUtilityUI * DRM::CDrmUtilityUI::NewLC(class CCoeEnv *)
	?NewLC@CDrmUtilityWMDrm@DRM@@SAPAV12@PAVCCoeEnv@@@Z @ 19 NONAME ; class DRM::CDrmUtilityWMDrm * DRM::CDrmUtilityWMDrm::NewLC(class CCoeEnv *)
	?SetAutomatedQueryL@CDrmUtilityUI@DRM@@QAEHPAVCDRMConstraint@@@Z @ 20 NONAME ; int DRM::CDrmUtilityUI::SetAutomatedQueryL(class CDRMConstraint *)
	?ShowFutureRightsNoteL@CDrmUtilityUI@DRM@@QAEXPAVCDRMConstraint@@@Z @ 21 NONAME ; void DRM::CDrmUtilityUI::ShowFutureRightsNoteL(class CDRMConstraint *)

