EXPORTS
	?AvailableUrlsAsyncL@CDrmUiHandling@DRM@@QAEHAAVCData@ContentAccess@@AAW4TDrmUiUrlType@2@AAVMDrmAsyncObserver@2@@Z @ 1 NONAME ; int DRM::CDrmUiHandling::AvailableUrlsAsyncL(class ContentAccess::CData &, enum DRM::TDrmUiUrlType &, class DRM::MDrmAsyncObserver &)
	?AvailableUrlsAsyncL@CDrmUiHandling@DRM@@QAEHAAVRFile@@AAW4TDrmUiUrlType@2@AAVMDrmAsyncObserver@2@@Z @ 2 NONAME ; int DRM::CDrmUiHandling::AvailableUrlsAsyncL(class RFile &, enum DRM::TDrmUiUrlType &, class DRM::MDrmAsyncObserver &)
	?AvailableUrlsL@CDrmUiHandling@DRM@@QAEXAAVCData@ContentAccess@@AAW4TDrmUiUrlType@2@@Z @ 3 NONAME ; void DRM::CDrmUiHandling::AvailableUrlsL(class ContentAccess::CData &, enum DRM::TDrmUiUrlType &)
	?AvailableUrlsL@CDrmUiHandling@DRM@@QAEXAAVRFile@@AAW4TDrmUiUrlType@2@@Z @ 4 NONAME ; void DRM::CDrmUiHandling::AvailableUrlsL(class RFile &, enum DRM::TDrmUiUrlType &)
	?CancelOperation@CDrmUiHandling@DRM@@QAEHH@Z @ 5 NONAME ; int DRM::CDrmUiHandling::CancelOperation(int)
	?CheckRightsAmountAsyncL@CDrmUiHandling@DRM@@QAEHAAVCData@ContentAccess@@W4TIntent@4@AAVMDrmUiCheckRightsObserver@2@@Z @ 6 NONAME ; int DRM::CDrmUiHandling::CheckRightsAmountAsyncL(class ContentAccess::CData &, enum ContentAccess::TIntent, class DRM::MDrmUiCheckRightsObserver &)
	?CheckRightsAmountAsyncL@CDrmUiHandling@DRM@@QAEHAAVRFile@@W4TIntent@ContentAccess@@AAVMDrmUiCheckRightsObserver@2@@Z @ 7 NONAME ; int DRM::CDrmUiHandling::CheckRightsAmountAsyncL(class RFile &, enum ContentAccess::TIntent, class DRM::MDrmUiCheckRightsObserver &)
	?CheckRightsAmountL@CDrmUiHandling@DRM@@QAEXAAVCData@ContentAccess@@W4TIntent@4@PAVMDrmUiCheckRightsObserver@2@@Z @ 8 NONAME ; void DRM::CDrmUiHandling::CheckRightsAmountL(class ContentAccess::CData &, enum ContentAccess::TIntent, class DRM::MDrmUiCheckRightsObserver *)
	?CheckRightsAmountL@CDrmUiHandling@DRM@@QAEXAAVRFile@@W4TIntent@ContentAccess@@PAVMDrmUiCheckRightsObserver@2@@Z @ 9 NONAME ; void DRM::CDrmUiHandling::CheckRightsAmountL(class RFile &, enum ContentAccess::TIntent, class DRM::MDrmUiCheckRightsObserver *)
	?GetErrorHandler@CDrmUiHandling@DRM@@QBEAAVMDrmErrorHandling@2@XZ @ 10 NONAME ; class DRM::MDrmErrorHandling & DRM::CDrmUiHandling::GetErrorHandler(void) const
	?GetUtility@CDrmUiHandling@DRM@@QBEAAVCDrmUtility@2@XZ @ 11 NONAME ; class DRM::CDrmUtility & DRM::CDrmUiHandling::GetUtility(void) const
	?HandleErrorAsyncL@CDrmUiErrorHandling@DRM@@UAEHAAVCData@ContentAccess@@W4TIntent@4@HAAVMDrmHandleErrorObserver@2@@Z @ 12 NONAME ; int DRM::CDrmUiErrorHandling::HandleErrorAsyncL(class ContentAccess::CData &, enum ContentAccess::TIntent, int, class DRM::MDrmHandleErrorObserver &)
	?HandleErrorAsyncL@CDrmUiErrorHandling@DRM@@UAEHAAVRFile@@W4TIntent@ContentAccess@@HAAVMDrmHandleErrorObserver@2@@Z @ 13 NONAME ; int DRM::CDrmUiErrorHandling::HandleErrorAsyncL(class RFile &, enum ContentAccess::TIntent, int, class DRM::MDrmHandleErrorObserver &)
	?HandleErrorL@CDrmUiErrorHandling@DRM@@UAEXAAVCData@ContentAccess@@W4TIntent@4@HPAVMDrmHandleErrorObserver@2@@Z @ 14 NONAME ; void DRM::CDrmUiErrorHandling::HandleErrorL(class ContentAccess::CData &, enum ContentAccess::TIntent, int, class DRM::MDrmHandleErrorObserver *)
	?HandleErrorL@CDrmUiErrorHandling@DRM@@UAEXAAVRFile@@W4TIntent@ContentAccess@@HPAVMDrmHandleErrorObserver@2@@Z @ 15 NONAME ; void DRM::CDrmUiErrorHandling::HandleErrorL(class RFile &, enum ContentAccess::TIntent, int, class DRM::MDrmHandleErrorObserver *)
	?HandleUrlAsyncL@CDrmUiHandling@DRM@@QAEHAAVCData@ContentAccess@@W4TDrmUiUrlType@2@AAVMDrmAsyncObserver@2@@Z @ 16 NONAME ; int DRM::CDrmUiHandling::HandleUrlAsyncL(class ContentAccess::CData &, enum DRM::TDrmUiUrlType, class DRM::MDrmAsyncObserver &)
	?HandleUrlAsyncL@CDrmUiHandling@DRM@@QAEHAAVRFile@@W4TDrmUiUrlType@2@AAVMDrmAsyncObserver@2@@Z @ 17 NONAME ; int DRM::CDrmUiHandling::HandleUrlAsyncL(class RFile &, enum DRM::TDrmUiUrlType, class DRM::MDrmAsyncObserver &)
	?HandleUrlL@CDrmUiHandling@DRM@@QAEXAAVCData@ContentAccess@@W4TDrmUiUrlType@2@@Z @ 18 NONAME ; void DRM::CDrmUiHandling::HandleUrlL(class ContentAccess::CData &, enum DRM::TDrmUiUrlType)
	?HandleUrlL@CDrmUiHandling@DRM@@QAEXAAVRFile@@W4TDrmUiUrlType@2@@Z @ 19 NONAME ; void DRM::CDrmUiHandling::HandleUrlL(class RFile &, enum DRM::TDrmUiUrlType)
	?NewL@CDrmUiErrorHandling@DRM@@SAPAV12@PAVCDrmUiHandlingImpl@2@@Z @ 20 NONAME ; class DRM::CDrmUiErrorHandling * DRM::CDrmUiErrorHandling::NewL(class DRM::CDrmUiHandlingImpl *)
	?NewL@CDrmUiHandling@DRM@@SAPAV12@PAVCCoeEnv@@@Z @ 21 NONAME ; class DRM::CDrmUiHandling * DRM::CDrmUiHandling::NewL(class CCoeEnv *)
	?NewLC@CDrmUiErrorHandling@DRM@@SAPAV12@PAVCDrmUiHandlingImpl@2@@Z @ 22 NONAME ; class DRM::CDrmUiErrorHandling * DRM::CDrmUiErrorHandling::NewLC(class DRM::CDrmUiHandlingImpl *)
	?NewLC@CDrmUiHandling@DRM@@SAPAV12@PAVCCoeEnv@@@Z @ 23 NONAME ; class DRM::CDrmUiHandling * DRM::CDrmUiHandling::NewLC(class CCoeEnv *)
	?ShowDetailsViewAsyncL@CDrmUiHandling@DRM@@QAEHAAVCData@ContentAccess@@AAVMDrmAsyncObserver@2@@Z @ 24 NONAME ; int DRM::CDrmUiHandling::ShowDetailsViewAsyncL(class ContentAccess::CData &, class DRM::MDrmAsyncObserver &)
	?ShowDetailsViewAsyncL@CDrmUiHandling@DRM@@QAEHAAVRFile@@AAVMDrmAsyncObserver@2@@Z @ 25 NONAME ; int DRM::CDrmUiHandling::ShowDetailsViewAsyncL(class RFile &, class DRM::MDrmAsyncObserver &)
	?ShowDetailsViewL@CDrmUiHandling@DRM@@QAEXAAVCData@ContentAccess@@@Z @ 26 NONAME ; void DRM::CDrmUiHandling::ShowDetailsViewL(class ContentAccess::CData &)
	?ShowDetailsViewL@CDrmUiHandling@DRM@@QAEXAAVRFile@@@Z @ 27 NONAME ; void DRM::CDrmUiHandling::ShowDetailsViewL(class RFile &)

