EXPORTS
	_ZN14CpPluginLoader21loadCpPluginInterfaceERK7QString @ 1 NONAME
	_ZN14CpPluginLoader23loadCpLauncherInterfaceERK7QString @ 2 NONAME
	_ZN15CpPluginUtility18addCpItemPrototypeEP10HbDataForm @ 3 NONAME
	_ZN16CpItemDataHelper10bindToFormEP10HbDataForm @ 4 NONAME
	_ZN16CpItemDataHelper11qt_metacallEN11QMetaObject4CallEiPPv @ 5 NONAME
	_ZN16CpItemDataHelper11qt_metacastEPKc @ 6 NONAME
	_ZN16CpItemDataHelper13addConnectionEP19HbDataFormModelItemPKcP7QObjectS3_ @ 7 NONAME
	_ZN16CpItemDataHelper13connectToFormEPKcP7QObjectS1_ @ 8 NONAME
	_ZN16CpItemDataHelper16addItemPrototypeEP18HbAbstractViewItem @ 9 NONAME
	_ZN16CpItemDataHelper16removeConnectionEP19HbDataFormModelItemPKcP7QObjectS3_ @ 10 NONAME
	_ZN16CpItemDataHelper16staticMetaObjectE @ 11 NONAME DATA 16
	_ZN16CpItemDataHelper18disconnectFromFormEPKcP7QObjectS1_ @ 12 NONAME
	_ZN16CpItemDataHelper19getStaticMetaObjectEv @ 13 NONAME
	_ZN16CpItemDataHelper20widgetFromModelIndexERK11QModelIndex @ 14 NONAME
	_ZN16CpItemDataHelper23modelItemFromModelIndexERK11QModelIndex @ 15 NONAME
	_ZN16CpItemDataHelperC1EP10HbDataForm @ 16 NONAME
	_ZN16CpItemDataHelperC2EP10HbDataForm @ 17 NONAME
	_ZN16CpItemDataHelperD0Ev @ 18 NONAME
	_ZN16CpItemDataHelperD1Ev @ 19 NONAME
	_ZN16CpItemDataHelperD2Ev @ 20 NONAME
	_ZN16CpPluginLauncher17launchSettingViewERK7QStringRK8QVariant @ 21 NONAME
	_ZN16CpPluginLauncher18launchCpPluginViewERK7QStringi @ 22 NONAME ABSENT
	_ZN16LogOutputFactory15createLogOutputERK7QString @ 23 NONAME ABSENT
	_ZN16LogOutputFactory15createLogOutputERK7QStringRK5QHashIS0_8QVariantE @ 24 NONAME ABSENT
	_ZN16LogOutputFactory23addCreateLogOutputEntryERK7QStringPFP9LogOutputvE @ 25 NONAME ABSENT
	_ZN17CpBaseSettingView11qt_metacallEN11QMetaObject4CallEiPPv @ 26 NONAME
	_ZN17CpBaseSettingView11qt_metacastEPKc @ 27 NONAME
	_ZN17CpBaseSettingView12aboutToCloseEv @ 28 NONAME
	_ZN17CpBaseSettingView16staticMetaObjectE @ 29 NONAME DATA 16
	_ZN17CpBaseSettingView19getStaticMetaObjectEv @ 30 NONAME
	_ZN17CpBaseSettingView20returnValueDeliveredERK8QVariant @ 31 NONAME
	_ZN17CpBaseSettingView5closeEv @ 32 NONAME
	_ZN17CpBaseSettingViewC1EP15QGraphicsWidgetP13QGraphicsItem @ 33 NONAME
	_ZN17CpBaseSettingViewC2EP15QGraphicsWidgetP13QGraphicsItem @ 34 NONAME
	_ZN17CpBaseSettingViewD0Ev @ 35 NONAME
	_ZN17CpBaseSettingViewD1Ev @ 36 NONAME
	_ZN17CpBaseSettingViewD2Ev @ 37 NONAME
	_ZN21CpSettingFormItemData11qt_metacallEN11QMetaObject4CallEiPPv @ 38 NONAME
	_ZN21CpSettingFormItemData11qt_metacastEPKc @ 39 NONAME
	_ZN21CpSettingFormItemData16staticMetaObjectE @ 40 NONAME DATA 16
	_ZN21CpSettingFormItemData19getStaticMetaObjectEv @ 41 NONAME
	_ZN21CpSettingFormItemDataC1EN19HbDataFormModelItem12DataItemTypeERK7QStringPKS0_ @ 42 NONAME
	_ZN21CpSettingFormItemDataC1EPK19HbDataFormModelItem @ 43 NONAME
	_ZN21CpSettingFormItemDataC2EN19HbDataFormModelItem12DataItemTypeERK7QStringPKS0_ @ 44 NONAME
	_ZN21CpSettingFormItemDataC2EPK19HbDataFormModelItem @ 45 NONAME
	_ZN21CpSettingFormItemDataD0Ev @ 46 NONAME
	_ZN21CpSettingFormItemDataD1Ev @ 47 NONAME
	_ZN21CpSettingFormItemDataD2Ev @ 48 NONAME
	_ZN26CpSettingFormEntryItemData11qt_metacallEN11QMetaObject4CallEiPPv @ 49 NONAME
	_ZN26CpSettingFormEntryItemData11qt_metacastEPKc @ 50 NONAME
	_ZN26CpSettingFormEntryItemData11setIconNameERK7QString @ 51 NONAME
	_ZN26CpSettingFormEntryItemData12onLaunchViewEv @ 52 NONAME
	_ZN26CpSettingFormEntryItemData14setDescriptionERK7QString @ 53 NONAME
	_ZN26CpSettingFormEntryItemData16setEntryItemIconERK6HbIcon @ 54 NONAME
	_ZN26CpSettingFormEntryItemData16staticMetaObjectE @ 55 NONAME DATA 16
	_ZN26CpSettingFormEntryItemData19getStaticMetaObjectEv @ 56 NONAME
	_ZN26CpSettingFormEntryItemData7setTextERK7QString @ 57 NONAME
	_ZN26CpSettingFormEntryItemDataC2ENS_13EntryItemTypeEP10HbDataFormRK7QStringS5_S5_PK19HbDataFormModelItem @ 58 NONAME
	_ZN26CpSettingFormEntryItemDataC2ENS_13EntryItemTypeER16CpItemDataHelperRK7QStringS5_S5_PK19HbDataFormModelItem @ 59 NONAME
	_ZN26CpSettingFormEntryItemDataC2EP10HbDataFormRK7QStringS4_RK6HbIconPK19HbDataFormModelItem @ 60 NONAME
	_ZN26CpSettingFormEntryItemDataC2EPK19HbDataFormModelItem @ 61 NONAME
	_ZN26CpSettingFormEntryItemDataC2ER16CpItemDataHelperRK7QStringS4_RK6HbIconPK19HbDataFormModelItem @ 62 NONAME
	_ZN26CpSettingFormEntryItemDataD0Ev @ 63 NONAME
	_ZN26CpSettingFormEntryItemDataD1Ev @ 64 NONAME
	_ZN26CpSettingFormEntryItemDataD2Ev @ 65 NONAME
	_ZN6Logger11qt_metacallEN11QMetaObject4CallEiPPv @ 66 NONAME ABSENT
	_ZN6Logger11qt_metacastEPKc @ 67 NONAME ABSENT
	_ZN6Logger12addLogOutputEP9LogOutput @ 68 NONAME ABSENT
	_ZN6Logger14setLogDateTimeEb @ 69 NONAME ABSENT
	_ZN6Logger15removeLogOutputEP9LogOutput @ 70 NONAME ABSENT
	_ZN6Logger16setLogLoggerNameEb @ 71 NONAME ABSENT
	_ZN6Logger16staticMetaObjectE @ 72 NONAME DATA 16 ABSENT
	_ZN6Logger17clearAllLogOutputEv @ 73 NONAME ABSENT
	_ZN6Logger17setDateTimeFormatERK7QString @ 74 NONAME ABSENT
	_ZN6Logger19getStaticMetaObjectEv @ 75 NONAME ABSENT
	_ZN6Logger3logERK7QString @ 76 NONAME ABSENT
	_ZN6Logger5closeERK7QString @ 77 NONAME ABSENT
	_ZN6Logger8closeAllEv @ 78 NONAME ABSENT
	_ZN6Logger8instanceERK7QString @ 79 NONAME ABSENT
	_ZN6Logger9configureER9QSettings @ 80 NONAME ABSENT
	_ZN6Logger9configureERK7QStringN9QSettings6FormatE @ 81 NONAME ABSENT
	_ZN6Logger9logOutputERK7QString @ 82 NONAME ABSENT
	_ZN6LoggerC1ERK7QStringP7QObject @ 83 NONAME ABSENT
	_ZN6LoggerC2ERK7QStringP7QObject @ 84 NONAME ABSENT
	_ZN6LoggerD0Ev @ 85 NONAME ABSENT
	_ZN6LoggerD1Ev @ 86 NONAME ABSENT
	_ZN6LoggerD2Ev @ 87 NONAME ABSENT
	_ZN9LogOutput11qt_metacallEN11QMetaObject4CallEiPPv @ 88 NONAME ABSENT
	_ZN9LogOutput11qt_metacastEPKc @ 89 NONAME ABSENT
	_ZN9LogOutput12parentLoggerEv @ 90 NONAME ABSENT
	_ZN9LogOutput15setParentLoggerEP6Logger @ 91 NONAME ABSENT
	_ZN9LogOutput16staticMetaObjectE @ 92 NONAME DATA 16 ABSENT
	_ZN9LogOutput19getStaticMetaObjectEv @ 93 NONAME ABSENT
	_ZN9LogOutput4loadER9QSettings @ 94 NONAME ABSENT
	_ZN9LogOutput7setNameERK7QString @ 95 NONAME ABSENT
	_ZN9LogOutputC2EP6Logger @ 96 NONAME ABSENT
	_ZN9LogOutputD0Ev @ 97 NONAME ABSENT
	_ZN9LogOutputD1Ev @ 98 NONAME ABSENT
	_ZN9LogOutputD2Ev @ 99 NONAME ABSENT
	_ZNK16CpItemDataHelper10metaObjectEv @ 100 NONAME
	_ZNK17CpBaseSettingView10metaObjectEv @ 101 NONAME
	_ZNK21CpSettingFormItemData10metaObjectEv @ 102 NONAME
	_ZNK26CpSettingFormEntryItemData10metaObjectEv @ 103 NONAME
	_ZNK26CpSettingFormEntryItemData11descriptionEv @ 104 NONAME
	_ZNK26CpSettingFormEntryItemData13entryItemIconEv @ 105 NONAME
	_ZNK26CpSettingFormEntryItemData4textEv @ 106 NONAME
	_ZNK26CpSettingFormEntryItemData8iconNameEv @ 107 NONAME
	_ZNK6Logger10metaObjectEv @ 108 NONAME ABSENT
	_ZNK6Logger11logDateTimeEv @ 109 NONAME ABSENT
	_ZNK6Logger13logLoggerNameEv @ 110 NONAME ABSENT
	_ZNK6Logger14dateTimeFormatEv @ 111 NONAME ABSENT
	_ZNK6Logger4nameEv @ 112 NONAME ABSENT
	_ZNK9LogOutput10metaObjectEv @ 113 NONAME ABSENT
	_ZNK9LogOutput4nameEv @ 114 NONAME ABSENT
	_ZTI16CpItemDataHelper @ 115 NONAME
	_ZTI17CpBaseSettingView @ 116 NONAME
	_ZTI21CpSettingFormItemData @ 117 NONAME
	_ZTI26CpSettingFormEntryItemData @ 118 NONAME
	_ZTI6Logger @ 119 NONAME ABSENT
	_ZTI9LogOutput @ 120 NONAME ABSENT
	_ZTV16CpItemDataHelper @ 121 NONAME
	_ZTV17CpBaseSettingView @ 122 NONAME
	_ZTV21CpSettingFormItemData @ 123 NONAME
	_ZTV26CpSettingFormEntryItemData @ 124 NONAME
	_ZTV6Logger @ 125 NONAME ABSENT
	_ZTV9LogOutput @ 126 NONAME ABSENT
	_ZThn16_N17CpBaseSettingViewD0Ev @ 127 NONAME
	_ZThn16_N17CpBaseSettingViewD1Ev @ 128 NONAME
	_ZThn8_N17CpBaseSettingViewD0Ev @ 129 NONAME
	_ZThn8_N17CpBaseSettingViewD1Ev @ 130 NONAME
	_ZThn8_N21CpSettingFormItemDataD0Ev @ 131 NONAME
	_ZThn8_N21CpSettingFormItemDataD1Ev @ 132 NONAME
	_ZThn8_N26CpSettingFormEntryItemDataD0Ev @ 133 NONAME
	_ZThn8_N26CpSettingFormEntryItemDataD1Ev @ 134 NONAME

