EXPORTS
	?CreateTestSuiteL@@YAPAVMEUnitTest@@XZ @ 1 NONAME ; class MEUnitTest * CreateTestSuiteL(void)
	??1CSIPManagedProfile@@UAE@XZ @ 2 NONAME ; CSIPManagedProfile::~CSIPManagedProfile(void)
	?Close@SIPStrings@@SAXXZ @ 3 NONAME ; void SIPStrings::Close(void)
	??1CSIPManagedProfileRegistry@@UAE@XZ @ 4 NONAME ; CSIPManagedProfileRegistry::~CSIPManagedProfileRegistry(void)
	?SetParameter@CSIPManagedProfile@@QAEHKKABVTDesC8@@@Z @ 5 NONAME ; int CSIPManagedProfile::SetParameter(unsigned long, unsigned long, class TDesC8 const &)
	?NewLC@CSIPManagedProfileRegistry@@SAPAV1@AAVMSIPProfileRegistryObserver@@@Z @ 6 NONAME ; class CSIPManagedProfileRegistry * CSIPManagedProfileRegistry::NewLC(class MSIPProfileRegistryObserver &)
	?NewL@CSIPManagedProfileRegistry@@SAPAV1@AAVMSIPProfileRegistryObserver@@@Z @ 7 NONAME ; class CSIPManagedProfileRegistry * CSIPManagedProfileRegistry::NewL(class MSIPProfileRegistryObserver &)
	??1CSIPProfileRegistryBase@@UAE@XZ @ 8 NONAME ; CSIPProfileRegistryBase::~CSIPProfileRegistryBase(void)
	?OpenL@SIPStrings@@SAXXZ @ 9 NONAME ; void SIPStrings::OpenL(void)
	?CameraSupported@FeatureManager@@SAXXZ @ 10 NONAME ; void FeatureManager::CameraSupported(void)
	?ProfileL@CSIPProfileRegistryBase@@QAEPAVCSIPProfile@@K@Z @ 11 NONAME ; class CSIPProfile * CSIPProfileRegistryBase::ProfileL(unsigned long)
	?Connection@CSIP@@QBEPAVCSIPConnection@@K@Z @ 12 NONAME ; class CSIPConnection * CSIP::Connection(unsigned long) const
	?IsInUseL@CSIPManagedProfileRegistry@@QBEHABVCSIPProfile@@@Z @ 13 NONAME ; int CSIPManagedProfileRegistry::IsInUseL(class CSIPProfile const &) const
	?DefaultProfileL@CSIPProfileRegistryBase@@QAEPAVCSIPProfile@@XZ @ 14 NONAME ; class CSIPProfile * CSIPProfileRegistryBase::DefaultProfileL(void)
	?CameraNotSupported@FeatureManager@@SAXXZ @ 15 NONAME ; void FeatureManager::CameraNotSupported(void)
	?ProfilesL@CSIPProfileRegistryBase@@QAEXABVTDesC8@@AAV?$RPointerArray@VCSIPProfile@@@@@Z @ 16 NONAME ; void CSIPProfileRegistryBase::ProfilesL(class TDesC8 const &, class RPointerArray<class CSIPProfile> &)
	?NewL@CSIP@@SAPAV1@ABVTUid@@AAVMSIPObserver@@@Z @ 17 NONAME ; class CSIP * CSIP::NewL(class TUid const &, class MSIPObserver &)
	?GetParameter@CSIPProfile@@QBEHKAAPBVTDesC8@@@Z @ 18 NONAME ; int CSIPProfile::GetParameter(unsigned long, class TDesC8 const * &) const
	??1CSIPProfileRegistry@@UAE@XZ @ 19 NONAME ; CSIPProfileRegistry::~CSIPProfileRegistry(void)
	?FeatureSupported@FeatureManager@@SAHH@Z @ 20 NONAME ; int FeatureManager::FeatureSupported(int)
	?NewL@CSIPProfileRegistry@@SAPAV1@AAVCSIP@@AAVMSIPProfileRegistryObserver@@@Z @ 21 NONAME ; class CSIPProfileRegistry * CSIPProfileRegistry::NewL(class CSIP &, class MSIPProfileRegistryObserver &)
	?SetParameter@CSIPManagedProfile@@QAEHKABVMDesC8Array@@@Z @ 22 NONAME ; int CSIPManagedProfile::SetParameter(unsigned long, class MDesC8Array const &)
	?SupportedSecurityMechanismsL@CSIP@@QBEPAVCDesC8Array@@XZ @ 23 NONAME ; class CDesC8Array * CSIP::SupportedSecurityMechanismsL(void) const
	?ProfilesL@CSIPProfileRegistryBase@@QAEXABVTSIPProfileTypeInfo@@AAV?$RPointerArray@VCSIPProfile@@@@@Z @ 24 NONAME ; void CSIPProfileRegistryBase::ProfilesL(class TSIPProfileTypeInfo const &, class RPointerArray<class CSIPProfile> &)
	?Type@CSIPProfile@@QBEABVTSIPProfileTypeInfo@@XZ @ 25 NONAME ; class TSIPProfileTypeInfo const & CSIPProfile::Type(void) const
	?NegotiatedSecurityMechanismL@CSIP@@QAEPAVHBufC8@@ABVTDesC8@@@Z @ 26 NONAME ; class HBufC8 * CSIP::NegotiatedSecurityMechanismL(class TDesC8 const &)
	?GetParameter@CSIPProfile@@QBEHKAAK@Z @ 27 NONAME ; int CSIPProfile::GetParameter(unsigned long, unsigned long &) const
	?SaveL@CSIPManagedProfileRegistry@@QAEXAAVCSIPProfile@@@Z @ 28 NONAME ; void CSIPManagedProfileRegistry::SaveL(class CSIPProfile &)
	??1CSIP@@UAE@XZ @ 29 NONAME ; CSIP::~CSIP(void)
	?MultimediaSharingNotSupported@FeatureManager@@SAXXZ @ 30 NONAME ; void FeatureManager::MultimediaSharingNotSupported(void)
	?CreateL@CSIPManagedProfileRegistry@@QAEPAVCSIPManagedProfile@@ABVTSIPProfileTypeInfo@@@Z @ 31 NONAME ; class CSIPManagedProfile * CSIPManagedProfileRegistry::CreateL(class TSIPProfileTypeInfo const &)
	?IDHelpNotSupported@FeatureManager@@SAXXZ @ 32 NONAME ; void FeatureManager::IDHelpNotSupported(void)
	?SetParameter@CSIPManagedProfile@@QAEHKK@Z @ 33 NONAME ; int CSIPManagedProfile::SetParameter(unsigned long, unsigned long)
	?NewLC@CSIPProfileRegistry@@SAPAV1@AAVCSIP@@AAVMSIPProfileRegistryObserver@@@Z @ 34 NONAME ; class CSIPProfileRegistry * CSIPProfileRegistry::NewLC(class CSIP &, class MSIPProfileRegistryObserver &)
	??1CSIPProfile@@UAE@XZ @ 35 NONAME ; CSIPProfile::~CSIPProfile(void)
	?IsSigCompSupportedL@CSIP@@QBEHXZ @ 36 NONAME ; int CSIP::IsSigCompSupportedL(void) const
	?NewLC@CSIP@@SAPAV1@ABVTUid@@AAVMSIPObserver@@@Z @ 37 NONAME ; class CSIP * CSIP::NewLC(class TUid const &, class MSIPObserver &)
	?ProfilesL@CSIPProfileRegistryBase@@QAEXAAV?$RPointerArray@VCSIPProfile@@@@@Z @ 38 NONAME ; void CSIPProfileRegistryBase::ProfilesL(class RPointerArray<class CSIPProfile> &)
	?EnableL@CSIPProfileRegistry@@QAEXAAVCSIPProfile@@AAVMSIPConnectionObserver@@@Z @ 39 NONAME ; void CSIPProfileRegistry::EnableL(class CSIPProfile &, class MSIPConnectionObserver &)
	?MultimediaSharingSupported@FeatureManager@@SAXXZ @ 40 NONAME ; void FeatureManager::MultimediaSharingSupported(void)
	?GetParameter@CSIPProfile@@QBEHKKAAPBVTDesC8@@@Z @ 41 NONAME ; int CSIPProfile::GetParameter(unsigned long, unsigned long, class TDesC8 const * &) const
	?SetType@CSIPManagedProfile@@QAEXABVTSIPProfileTypeInfo@@@Z @ 42 NONAME ; void CSIPManagedProfile::SetType(class TSIPProfileTypeInfo const &)
	?IsEnabled@CSIPProfileRegistry@@QBEHABVCSIPProfile@@@Z @ 43 NONAME ; int CSIPProfileRegistry::IsEnabled(class CSIPProfile const &) const
	?GetParameter@CSIPProfile@@QBEHKAAH@Z @ 44 NONAME ; int CSIPProfile::GetParameter(unsigned long, int &) const
	?IDHelpSupported@FeatureManager@@SAXXZ @ 45 NONAME ; void FeatureManager::IDHelpSupported(void)
	?SetParameter@CSIPManagedProfile@@QAEHKABVTDesC8@@@Z @ 46 NONAME ; int CSIPManagedProfile::SetParameter(unsigned long, class TDesC8 const &)
	?DestroyL@CSIPManagedProfileRegistry@@QAEXAAVCSIPProfile@@@Z @ 47 NONAME ; void CSIPManagedProfileRegistry::DestroyL(class CSIPProfile &)
	?LastRegistrationError@CSIPProfileRegistryBase@@QBEHABVCSIPProfile@@@Z @ 48 NONAME ; int CSIPProfileRegistryBase::LastRegistrationError(class CSIPProfile const &) const
	?SupportedProfileTypesL@CSIPProfileRegistryBase@@QAEXAAV?$RArray@VTSIPProfileTypeInfo@@@@@Z @ 49 NONAME ; void CSIPProfileRegistryBase::SupportedProfileTypesL(class RArray<class TSIPProfileTypeInfo> &)
	?CloneL@CSIPManagedProfile@@QBEPAV1@XZ @ 50 NONAME ; class CSIPManagedProfile * CSIPManagedProfile::CloneL(void) const
	?Disable@CSIPProfileRegistry@@QAEHAAVCSIPProfile@@@Z @ 51 NONAME ; int CSIPProfileRegistry::Disable(class CSIPProfile &)
	?SetParameter@CSIPManagedProfile@@QAEHKH@Z @ 52 NONAME ; int CSIPManagedProfile::SetParameter(unsigned long, int)
	?SIP@CSIPProfileRegistry@@QBEAAVCSIP@@XZ @ 53 NONAME ; class CSIP & CSIPProfileRegistry::SIP(void) const

