EXPORTS
	?CopyBitmapL@IHLBitmapUtil@@SAPAVCFbsBitmap@@ABV2@@Z @ 1 NONAME ; class CFbsBitmap * IHLBitmapUtil::CopyBitmapL(class CFbsBitmap const &)
	?CopyBitmapL@IHLBitmapUtil@@SAPAVCFbsBitmap@@ABV2@ABVTRect@@@Z @ 2 NONAME ; class CFbsBitmap * IHLBitmapUtil::CopyBitmapL(class CFbsBitmap const &, class TRect const &)
	?CopyBitmapLC@IHLBitmapUtil@@SAPAVCFbsBitmap@@ABV2@@Z @ 3 NONAME ; class CFbsBitmap * IHLBitmapUtil::CopyBitmapLC(class CFbsBitmap const &)
	?CopyBitmapLC@IHLBitmapUtil@@SAPAVCFbsBitmap@@ABV2@ABVTRect@@@Z @ 4 NONAME ; class CFbsBitmap * IHLBitmapUtil::CopyBitmapLC(class CFbsBitmap const &, class TRect const &)
	?CreateBitmapProcessorL@IHLProcessorFactory@@SAPAVMIHLBitmapProcessor@@K@Z @ 5 NONAME ; class MIHLBitmapProcessor * IHLProcessorFactory::CreateBitmapProcessorL(unsigned long)
	?CreateImageViewerL@IHLViewerFactory@@SAPAVMIHLImageViewer@@ABVTSize@@AAVMIHLImage@@AAVMIHLBitmap@@AAVMIHLViewerObserver@@K@Z @ 6 NONAME ; class MIHLImageViewer * IHLViewerFactory::CreateImageViewerL(class TSize const &, class MIHLImage &, class MIHLBitmap &, class MIHLViewerObserver &, unsigned long)
	?CreateL@IHLBitmap@@SAPAVMIHLBitmap@@XZ @ 7 NONAME ; class MIHLBitmap * IHLBitmap::CreateL(void)
	?CreateL@IHLScaler@@SAPAVMIHLScaler@@K@Z @ 8 NONAME ; class MIHLScaler * IHLScaler::CreateL(unsigned long)
	?DuplicateBitmapL@IHLBitmapUtil@@SAPAVCFbsBitmap@@ABV2@@Z @ 9 NONAME ; class CFbsBitmap * IHLBitmapUtil::DuplicateBitmapL(class CFbsBitmap const &)
	?DuplicateBitmapLC@IHLBitmapUtil@@SAPAVCFbsBitmap@@ABV2@@Z @ 10 NONAME ; class CFbsBitmap * IHLBitmapUtil::DuplicateBitmapLC(class CFbsBitmap const &)
	?OpenFileImageL@IHLImageFactory@@SAPAVMIHLFileImage@@AAVRFile@@@Z @ 11 NONAME ; class MIHLFileImage * IHLImageFactory::OpenFileImageL(class RFile &)
	?OpenFileImageL@IHLImageFactory@@SAPAVMIHLFileImage@@AAVRFile@@H@Z @ 12 NONAME ; class MIHLFileImage * IHLImageFactory::OpenFileImageL(class RFile &, int)
	?OpenFileImageL@IHLImageFactory@@SAPAVMIHLFileImage@@AAVRFs@@ABVTDesC16@@@Z @ 13 NONAME ; class MIHLFileImage * IHLImageFactory::OpenFileImageL(class RFs &, class TDesC16 const &)
	?OpenFileImageL@IHLImageFactory@@SAPAVMIHLFileImage@@AAVRFs@@ABVTDesC16@@H@Z @ 14 NONAME ; class MIHLFileImage * IHLImageFactory::OpenFileImageL(class RFs &, class TDesC16 const &, int)
	?ScaleBitmap@IHLBitmapUtil@@SAHABVCFbsBitmap@@AAV2@K@Z @ 15 NONAME ; int IHLBitmapUtil::ScaleBitmap(class CFbsBitmap const &, class CFbsBitmap &, unsigned long)
	?ScaleBitmap@IHLBitmapUtil@@SAHABVCFbsBitmap@@ABVTRect@@AAV2@1K@Z @ 16 NONAME ; int IHLBitmapUtil::ScaleBitmap(class CFbsBitmap const &, class TRect const &, class CFbsBitmap &, class TRect const &, unsigned long)
	?OpenFileImageL@IHLImageFactory@@SAPAVMIHLFileImage@@AAVRFile@@HK@Z @ 17 NONAME ; class MIHLFileImage * IHLImageFactory::OpenFileImageL(class RFile &, int, unsigned long)
	?OpenFileImageL@IHLImageFactory@@SAPAVMIHLFileImage@@AAVRFs@@ABVTDesC16@@HK@Z @ 18 NONAME ; class MIHLFileImage * IHLImageFactory::OpenFileImageL(class RFs &, class TDesC16 const &, int, unsigned long)
	?OpenBufferedFileImageL@IHLImageFactory@@SAPAVMIHLFileImage@@AAVRFs@@ABVTDesC8@@@Z @ 19 NONAME ; class MIHLFileImage * IHLImageFactory::OpenBufferedFileImageL(class RFs &, class TDesC8 const &)
	?OpenBufferedFileImageL@IHLImageFactory@@SAPAVMIHLFileImage@@AAVRFs@@ABVTDesC8@@H@Z @ 20 NONAME ; class MIHLFileImage * IHLImageFactory::OpenBufferedFileImageL(class RFs &, class TDesC8 const &, int)
	?OpenBufferedFileImageL@IHLImageFactory@@SAPAVMIHLFileImage@@AAVRFs@@ABVTDesC8@@HK@Z @ 21 NONAME ; class MIHLFileImage * IHLImageFactory::OpenBufferedFileImageL(class RFs &, class TDesC8 const &, int, unsigned long)

