EXPORTS
	_ZN11CCmFillRule10DeleteRuleE16TCmMetadataField @ 1 NONAME
	_ZN11CCmFillRule10DeleteRuleE16TCmMetadataField15TCmOperatorType @ 2 NONAME
	_ZN11CCmFillRule10RuleParamLEiiP6TPtrC8 @ 3 NONAME
	_ZN11CCmFillRule10RuleParamLEiiRi @ 4 NONAME
	_ZN11CCmFillRule11SetPriorityEh @ 5 NONAME
	_ZN11CCmFillRule11SetSelectedE17TCmFillRuleStatus @ 6 NONAME
	_ZN11CCmFillRule12AddExcAlbumLERK7TDesC16 @ 7 NONAME
	_ZN11CCmFillRule12MediaServerLEi @ 8 NONAME
	_ZN11CCmFillRule12MediaServerLEiRi @ 9 NONAME
	_ZN11CCmFillRule12SetLimitTypeE12TCmLimitType @ 10 NONAME
	_ZN11CCmFillRule12SetMediaTypeE12TCmMediaType @ 11 NONAME
	_ZN11CCmFillRule13AddRuleParamLEiRK6TDesC8 @ 12 NONAME
	_ZN11CCmFillRule13AddRuleParamLEii @ 13 NONAME
	_ZN11CCmFillRule13SetTemplateIdEh @ 14 NONAME
	_ZN11CCmFillRule14RemoveExcAlbumERK7TDesC16 @ 15 NONAME
	_ZN11CCmFillRule15AddExcPlayListLERK7TDesC16 @ 16 NONAME
	_ZN11CCmFillRule15AddMediaServerLERK6TDesC8 @ 17 NONAME
	_ZN11CCmFillRule15AddMediaServerLEi @ 18 NONAME
	_ZN11CCmFillRule16SetListRealCountEm @ 19 NONAME
	_ZN11CCmFillRule17DeleteMediaServerERK6TDesC8 @ 20 NONAME
	_ZN11CCmFillRule17DeleteMediaServerEi @ 21 NONAME
	_ZN11CCmFillRule17RemoveExcPlayListERK7TDesC16 @ 22 NONAME
	_ZN11CCmFillRule22SetListRealSizeInBytesEm @ 23 NONAME
	_ZN11CCmFillRule4NewLEv @ 24 NONAME
	_ZN11CCmFillRule5NewLCEv @ 25 NONAME
	_ZN11CCmFillRule5RuleLEiP16TCmMetadataFieldP15TCmOperatorTypePi @ 26 NONAME
	_ZN11CCmFillRule8AddRuleLE16TCmMetadataField15TCmOperatorType @ 27 NONAME
	_ZN11CCmFillRule8SetNameLERK6TDesC8 @ 28 NONAME
	_ZN11CCmFillRule9SetAmountEm @ 29 NONAME
	_ZN11CCmFillRule9SetListIdEj @ 30 NONAME
	_ZN11CCmFillRule9SetMethodE13TCmFillMethod @ 31 NONAME
	_ZN11CCmFillRule9SetStatusE17TCmListItemStatus @ 32 NONAME
	_ZN11CCmFillRuleD0Ev @ 33 NONAME
	_ZN11CCmFillRuleD1Ev @ 34 NONAME
	_ZN11CCmFillRuleD2Ev @ 35 NONAME
	_ZN12CCmDriveInfo10SetDriveIdEj @ 36 NONAME
	_ZN12CCmDriveInfo12InternalizeLER11RReadStream @ 37 NONAME
	_ZN12CCmDriveInfo12SetDriveSizeEx @ 38 NONAME
	_ZN12CCmDriveInfo12SetDriveTypeEj @ 39 NONAME
	_ZN12CCmDriveInfo13SetDriveNameLERK7TDesC16 @ 40 NONAME
	_ZN12CCmDriveInfo13SetDriveQuotaEx @ 41 NONAME
	_ZN12CCmDriveInfo14SetDriveNumberEi @ 42 NONAME
	_ZN12CCmDriveInfo17SetUsedDriveQuotaEx @ 43 NONAME
	_ZN12CCmDriveInfo4NewLEv @ 44 NONAME
	_ZN12CCmDriveInfo5NewLCEv @ 45 NONAME
	_ZN12CCmDriveInfo9SetStatusEi @ 46 NONAME
	_ZN12CCmDriveInfoD0Ev @ 47 NONAME
	_ZN12CCmDriveInfoD1Ev @ 48 NONAME
	_ZN12CCmDriveInfoD2Ev @ 49 NONAME
	_ZN12CCmStoreRule11SetSelectedE17TCmFillRuleStatus @ 50 NONAME
	_ZN12CCmStoreRule12AddExcAlbumLERK7TDesC16 @ 51 NONAME
	_ZN12CCmStoreRule12ExcPlayListsEv @ 52 NONAME
	_ZN12CCmStoreRule12MediaServerLEi @ 53 NONAME
	_ZN12CCmStoreRule13AddStoreRuleLE12TCmMediaType @ 54 NONAME
	_ZN12CCmStoreRule14RemoveExcAlbumERK7TDesC16 @ 55 NONAME
	_ZN12CCmStoreRule15AddExcPlayListLERK7TDesC16 @ 56 NONAME
	_ZN12CCmStoreRule15AddMediaServerLERK6TDesC8 @ 57 NONAME
	_ZN12CCmStoreRule17DeleteMediaServerERK6TDesC8 @ 58 NONAME
	_ZN12CCmStoreRule17RemoveExcPlayListERK7TDesC16 @ 59 NONAME
	_ZN12CCmStoreRule4NewLEv @ 60 NONAME
	_ZN12CCmStoreRule5NewLCEv @ 61 NONAME
	_ZN12CCmStoreRule8SetNameLERK6TDesC8 @ 62 NONAME
	_ZN12CCmStoreRule9ExcAlbumsEv @ 63 NONAME
	_ZN12CCmStoreRule9SetListIdEj @ 64 NONAME
	_ZN12CCmStoreRule9SetStatusE17TCmListItemStatus @ 65 NONAME
	_ZN12CCmStoreRule9StoreRuleEiP12TCmMediaType @ 66 NONAME
	_ZN12CCmStoreRuleD0Ev @ 67 NONAME
	_ZN12CCmStoreRuleD1Ev @ 68 NONAME
	_ZN12CCmStoreRuleD2Ev @ 69 NONAME
	_ZN13CmCommonUtils12SetWlanScanLEi @ 70 NONAME
	_ZN13CmCommonUtils17LoadResourceFileLERK7TDesC16R9CEikonEnv @ 71 NONAME
	_ZN14CCmMediaServer17SetSystemUpdateIDEi @ 72 NONAME
	_ZN14CCmMediaServer4NewLEv @ 73 NONAME
	_ZN14CCmMediaServer5NewLCEv @ 74 NONAME
	_ZN14CCmMediaServer7SetDbIdEx @ 75 NONAME
	_ZN14CCmMediaServer7SetUDNLERK6TDesC8 @ 76 NONAME
	_ZN14CCmSqlBaseItem11SetSearchIdEx @ 77 NONAME
	_ZN14CCmSqlBaseItem13CompareByHashERKS_S1_ @ 78 NONAME
	_ZN14CCmSqlBaseItem14CompareByCdsIdERKS_S1_ @ 79 NONAME
	_ZN14CCmSqlBaseItem4NewLEv @ 80 NONAME
	_ZN14CCmSqlBaseItem5NewLCEv @ 81 NONAME
	_ZN14CCmSqlBaseItem5SetIdEx @ 82 NONAME
	_ZN14CCmSqlBaseItem8SetHashLERK7TDesC16 @ 83 NONAME
	_ZN14CCmSqlBaseItem9SetCdsIdLERK6TDesC8 @ 84 NONAME
	_ZN14CCmSqlBaseItemD0Ev @ 85 NONAME
	_ZN14CCmSqlBaseItemD1Ev @ 86 NONAME
	_ZN14CCmSqlBaseItemD2Ev @ 87 NONAME
	_ZN15CCmBaseListItem12InternalizeLER11RReadStream @ 88 NONAME
	_ZN15CCmBaseListItem12SetMediaTypeE12TCmMediaType @ 89 NONAME
	_ZN15CCmBaseListItem15SetPrimaryTextLERK7TDesC16 @ 90 NONAME
	_ZN15CCmBaseListItem17SetSecondaryTextLERK7TDesC16 @ 91 NONAME
	_ZN15CCmBaseListItem4NewLEv @ 92 NONAME
	_ZN15CCmBaseListItem5NewLCEv @ 93 NONAME
	_ZN15CCmBaseListItem7SetDateE5TTime @ 94 NONAME
	_ZN15CCmBaseListItem7SetDbIdEy @ 95 NONAME
	_ZN15CCmBaseListItem7SetSizeEm @ 96 NONAME
	_ZN15CCmBaseListItem8SetPathLERK7TDesC16 @ 97 NONAME
	_ZN15CCmBaseListItem8SetRefIdEy @ 98 NONAME
	_ZN15CCmBaseListItem9SetStatusE17TCmListItemStatus @ 99 NONAME
	_ZN15CCmBaseListItemD0Ev @ 100 NONAME
	_ZN15CCmBaseListItemD1Ev @ 101 NONAME
	_ZN15CCmBaseListItemD2Ev @ 102 NONAME
	_ZN15CCmFillListItem10SetDriveIdEj @ 103 NONAME
	_ZN15CCmFillListItem10SetItemIdLERK6TDesC8 @ 104 NONAME
	_ZN15CCmFillListItem11SetPriorityEh @ 105 NONAME
	_ZN15CCmFillListItem11SetSelectedE17TCmFillRuleStatus @ 106 NONAME
	_ZN15CCmFillListItem12InternalizeLER11RReadStream @ 107 NONAME
	_ZN15CCmFillListItem13SetUpnpClassLERK7TDesC16 @ 108 NONAME
	_ZN15CCmFillListItem14SetDriveNumberEi @ 109 NONAME
	_ZN15CCmFillListItem4NewLEv @ 110 NONAME
	_ZN15CCmFillListItem5NewLCEjjj17TCmFillRuleStatus @ 111 NONAME
	_ZN15CCmFillListItem5NewLCEv @ 112 NONAME
	_ZN15CCmFillListItem7SetUriLERK6TDesC8 @ 113 NONAME
	_ZN15CCmFillListItem8SetDevIdEh @ 114 NONAME
	_ZN15CCmFillListItem9SetListIdEj @ 115 NONAME
	_ZN15CCmFillListItemD0Ev @ 116 NONAME
	_ZN15CCmFillListItemD1Ev @ 117 NONAME
	_ZN15CCmFillListItemD2Ev @ 118 NONAME
	_ZN15CCmSqlAudioItem10SetAlbumIdEx @ 119 NONAME
	_ZN15CCmSqlAudioItem10SetBitrateEi @ 120 NONAME
	_ZN15CCmSqlAudioItem10SetGenreIdEx @ 121 NONAME
	_ZN15CCmSqlAudioItem11SetArtistIdEx @ 122 NONAME
	_ZN15CCmSqlAudioItem11SetDurationEi @ 123 NONAME
	_ZN15CCmSqlAudioItem14SetTrackNumberEi @ 124 NONAME
	_ZN15CCmSqlAudioItem15SetAlbumArtUriLERK6TDesC8 @ 125 NONAME
	_ZN15CCmSqlAudioItem4NewLEv @ 126 NONAME
	_ZN15CCmSqlAudioItem5NewLCEv @ 127 NONAME
	_ZN15CCmSqlAudioItemD0Ev @ 128 NONAME
	_ZN15CCmSqlAudioItemD1Ev @ 129 NONAME
	_ZN15CCmSqlAudioItemD2Ev @ 130 NONAME
	_ZN15CCmSqlImageItem15SetDescriptionLERK6TDesC8 @ 131 NONAME
	_ZN15CCmSqlImageItem15SetResolutionIdEx @ 132 NONAME
	_ZN15CCmSqlImageItem4NewLEv @ 133 NONAME
	_ZN15CCmSqlImageItem5NewLCEv @ 134 NONAME
	_ZN15CCmSqlImageItemD0Ev @ 135 NONAME
	_ZN15CCmSqlImageItemD1Ev @ 136 NONAME
	_ZN15CCmSqlImageItemD2Ev @ 137 NONAME
	_ZN15CCmSqlVideoItem10SetGenreIdEx @ 138 NONAME
	_ZN15CCmSqlVideoItem4NewLEv @ 139 NONAME
	_ZN15CCmSqlVideoItem5NewLCEv @ 140 NONAME
	_ZN15CCmSqlVideoItemD0Ev @ 141 NONAME
	_ZN15CCmSqlVideoItemD1Ev @ 142 NONAME
	_ZN15CCmSqlVideoItemD2Ev @ 143 NONAME
	_ZN16CCmStoreListItem12InternalizeLER11RReadStream @ 144 NONAME
	_ZN16CCmStoreListItem17UpdateFileStatusLEh17TCmListItemStatus @ 145 NONAME
	_ZN16CCmStoreListItem4NewLEv @ 146 NONAME
	_ZN16CCmStoreListItem5NewLCEv @ 147 NONAME
	_ZN16CCmStoreListItem8SetDevIdEh17TCmListItemStatus @ 148 NONAME
	_ZN16CCmStoreListItem9SetListIdEj @ 149 NONAME
	_ZN16CCmStoreListItemD0Ev @ 150 NONAME
	_ZN16CCmStoreListItemD1Ev @ 151 NONAME
	_ZN16CCmStoreListItemD2Ev @ 152 NONAME
	_ZN17CCmSqlGenericItem11GetResourceER6TDesC8RiS2_S2_Rxi @ 153 NONAME
	_ZN17CCmSqlGenericItem12NewResourceLERK6TDesC8iiix @ 154 NONAME
	_ZN17CCmSqlGenericItem12SetMediaTypeE12TCmMediaType @ 155 NONAME
	_ZN17CCmSqlGenericItem14SetHarvestDateERK5TTime @ 156 NONAME
	_ZN17CCmSqlGenericItem14SetUpnpclassIdEx @ 157 NONAME
	_ZN17CCmSqlGenericItem16SetUpnpProfileIdEx @ 158 NONAME
	_ZN17CCmSqlGenericItem4NewLEv @ 159 NONAME
	_ZN17CCmSqlGenericItem5NewLCEv @ 160 NONAME
	_ZN17CCmSqlGenericItem7SetDateERK5TTime @ 161 NONAME
	_ZN17CCmSqlGenericItem7SetSizeEi @ 162 NONAME
	_ZN17CCmSqlGenericItem7SetUriLERK6TDesC8 @ 163 NONAME
	_ZN17CCmSqlGenericItem9SetTitleLERK6TDesC8 @ 164 NONAME
	_ZN17CCmSqlGenericItemD0Ev @ 165 NONAME
	_ZN17CCmSqlGenericItemD1Ev @ 166 NONAME
	_ZN17CCmSqlGenericItemD2Ev @ 167 NONAME
	_ZN18CCmMediaServerFull10StoreUsageEv @ 168 NONAME
	_ZN18CCmMediaServerFull11SetIsActiveEh @ 169 NONAME
	_ZN18CCmMediaServerFull12InternalizeLER11RReadStream @ 170 NONAME
	_ZN18CCmMediaServerFull12SetFillUsageEi @ 171 NONAME
	_ZN18CCmMediaServerFull13SetStoreUsageEi @ 172 NONAME
	_ZN18CCmMediaServerFull14SetVisibleDateE5TTime @ 173 NONAME
	_ZN18CCmMediaServerFull17SetCopyCapabilityEi @ 174 NONAME
	_ZN18CCmMediaServerFull19SetMediaServerNameLERK6TDesC8 @ 175 NONAME
	_ZN18CCmMediaServerFull4NewLEv @ 176 NONAME
	_ZN18CCmMediaServerFull5NewLCEv @ 177 NONAME
	_ZN18CCmMediaServerFull9FillUsageEv @ 178 NONAME
	_ZN18CCmMediaServerFullD0Ev @ 179 NONAME
	_ZN18CCmMediaServerFullD1Ev @ 180 NONAME
	_ZN18CCmMediaServerFullD2Ev @ 181 NONAME
	_ZN18CCmSqlPropertyItem12InternalizeLER11RReadStream @ 182 NONAME
	_ZN18CCmSqlPropertyItem18CompareItemsByNameERKS_S1_ @ 183 NONAME
	_ZN18CCmSqlPropertyItem4NewLEv @ 184 NONAME
	_ZN18CCmSqlPropertyItem5NewLCEv @ 185 NONAME
	_ZN18CCmSqlPropertyItem5SetIdEx @ 186 NONAME
	_ZN18CCmSqlPropertyItem8SetNameLERK6TDesC8 @ 187 NONAME
	_ZN18CCmSqlPropertyItem9SetStatusEi @ 188 NONAME
	_ZN18CCmSqlPropertyItemC1ERKS_ @ 189 NONAME
	_ZN18CCmSqlPropertyItemC2ERKS_ @ 190 NONAME
	_ZN18CCmSqlPropertyItemD0Ev @ 191 NONAME
	_ZN18CCmSqlPropertyItemD1Ev @ 192 NONAME
	_ZN18CCmSqlPropertyItemD2Ev @ 193 NONAME
	_ZN20CCmFillRuleContainer12AddFillRuleLEP11CCmFillRule @ 194 NONAME
	_ZN20CCmFillRuleContainer12InternalizeLER11RReadStream @ 195 NONAME
	_ZN20CCmFillRuleContainer14DeleteFillRuleEi @ 196 NONAME
	_ZN20CCmFillRuleContainer4NewLEv @ 197 NONAME
	_ZN20CCmFillRuleContainer5NewLCEv @ 198 NONAME
	_ZN20CCmFillRuleContainerD0Ev @ 199 NONAME
	_ZN20CCmFillRuleContainerD1Ev @ 200 NONAME
	_ZN20CCmFillRuleContainerD2Ev @ 201 NONAME
	_ZN21CCmSearchResponseHash12SetItemCountEi @ 202 NONAME
	_ZN21CCmSearchResponseHash13SetStartIndexEi @ 203 NONAME
	_ZN21CCmSearchResponseHash4NewLEiiRK6TDesC8 @ 204 NONAME
	_ZN21CCmSearchResponseHash4NewLEv @ 205 NONAME
	_ZN21CCmSearchResponseHash8SetHashLERK6TDesC8 @ 206 NONAME
	_ZN21CCmStoreRuleContainer12InternalizeLER11RReadStream @ 207 NONAME
	_ZN21CCmStoreRuleContainer13AddStoreRuleLEP12CCmStoreRule @ 208 NONAME
	_ZN21CCmStoreRuleContainer15DeleteStoreRuleEi @ 209 NONAME
	_ZN21CCmStoreRuleContainer4NewLEv @ 210 NONAME
	_ZN21CCmStoreRuleContainer5NewLCEv @ 211 NONAME
	_ZN21CCmStoreRuleContainer9StoreRuleEi @ 212 NONAME
	_ZN21CCmStoreRuleContainerD0Ev @ 213 NONAME
	_ZN21CCmStoreRuleContainerD1Ev @ 214 NONAME
	_ZN21CCmStoreRuleContainerD2Ev @ 215 NONAME
	_ZN23CCmSqlPropertyCollector12InternalizeLER11RReadStream @ 216 NONAME
	_ZN23CCmSqlPropertyCollector17PropertyContainerEi @ 217 NONAME
	_ZN23CCmSqlPropertyCollector21AddPropertyContainerLEP23CCmSqlPropertyContainer @ 218 NONAME
	_ZN23CCmSqlPropertyCollector23DeletePropertyContainerEi @ 219 NONAME
	_ZN23CCmSqlPropertyCollector4NewLEv @ 220 NONAME
	_ZN23CCmSqlPropertyCollector5NewLCEv @ 221 NONAME
	_ZN23CCmSqlPropertyCollectorD0Ev @ 222 NONAME
	_ZN23CCmSqlPropertyCollectorD1Ev @ 223 NONAME
	_ZN23CCmSqlPropertyCollectorD2Ev @ 224 NONAME
	_ZN23CCmSqlPropertyContainer11IsDuplicateER18CCmSqlPropertyItem @ 225 NONAME
	_ZN23CCmSqlPropertyContainer12InternalizeLER11RReadStream @ 226 NONAME
	_ZN23CCmSqlPropertyContainer12PropertyItemEi @ 227 NONAME
	_ZN23CCmSqlPropertyContainer16AddPropertyItemLEP18CCmSqlPropertyItem @ 228 NONAME
	_ZN23CCmSqlPropertyContainer16SortPropertyItemEv @ 229 NONAME
	_ZN23CCmSqlPropertyContainer18DeletePropertyItemEi @ 230 NONAME
	_ZN23CCmSqlPropertyContainer4NewLEv @ 231 NONAME
	_ZN23CCmSqlPropertyContainer4TypeEv @ 232 NONAME
	_ZN23CCmSqlPropertyContainer5NewLCEv @ 233 NONAME
	_ZN23CCmSqlPropertyContainer7SetTypeE16TCmMetadataField @ 234 NONAME
	_ZN23CCmSqlPropertyContainerD0Ev @ 235 NONAME
	_ZN23CCmSqlPropertyContainerD1Ev @ 236 NONAME
	_ZN23CCmSqlPropertyContainerD2Ev @ 237 NONAME
	_ZN28CCmSqlResolutionPropertyItem12InternalizeLER11RReadStream @ 238 NONAME
	_ZN28CCmSqlResolutionPropertyItem13SetPixelCountEi @ 239 NONAME
	_ZN28CCmSqlResolutionPropertyItem18CompareItemsByNameERKS_S1_ @ 240 NONAME
	_ZN28CCmSqlResolutionPropertyItem4NewLEv @ 241 NONAME
	_ZN28CCmSqlResolutionPropertyItem5NewLCEv @ 242 NONAME
	_ZN28CCmSqlResolutionPropertyItem8SetWidthEi @ 243 NONAME
	_ZN28CCmSqlResolutionPropertyItem9SetHeightEi @ 244 NONAME
	_ZN28CCmSqlResolutionPropertyItemD0Ev @ 245 NONAME
	_ZN28CCmSqlResolutionPropertyItemD1Ev @ 246 NONAME
	_ZN28CCmSqlResolutionPropertyItemD2Ev @ 247 NONAME
	_ZNK11CCmFillRule10TemplateIdEv @ 248 NONAME
	_ZNK11CCmFillRule11ParamCountLEi @ 249 NONAME
	_ZNK11CCmFillRule12ExcPlayListsEv @ 250 NONAME
	_ZNK11CCmFillRule13ListRealCountEv @ 251 NONAME
	_ZNK11CCmFillRule16MediaServerCountEv @ 252 NONAME
	_ZNK11CCmFillRule19ListRealSizeInBytesEv @ 253 NONAME
	_ZNK11CCmFillRule4NameEv @ 254 NONAME
	_ZNK11CCmFillRule6AmountEv @ 255 NONAME
	_ZNK11CCmFillRule6ListIdEv @ 256 NONAME
	_ZNK11CCmFillRule6MethodEv @ 257 NONAME
	_ZNK11CCmFillRule6StatusEv @ 258 NONAME
	_ZNK11CCmFillRule8PriorityEv @ 259 NONAME
	_ZNK11CCmFillRule8SelectedEv @ 260 NONAME
	_ZNK11CCmFillRule9ExcAlbumsEv @ 261 NONAME
	_ZNK11CCmFillRule9LimitTypeEv @ 262 NONAME
	_ZNK11CCmFillRule9MediaTypeEv @ 263 NONAME
	_ZNK11CCmFillRule9RuleCountEv @ 264 NONAME
	_ZNK12CCmDriveInfo10DriveQuotaEv @ 265 NONAME
	_ZNK12CCmDriveInfo11DriveNumberEv @ 266 NONAME
	_ZNK12CCmDriveInfo12ExternalizeLER12RWriteStream @ 267 NONAME
	_ZNK12CCmDriveInfo14UsedDriveQuotaEv @ 268 NONAME
	_ZNK12CCmDriveInfo6StatusEv @ 269 NONAME
	_ZNK12CCmDriveInfo7DriveIdEv @ 270 NONAME
	_ZNK12CCmDriveInfo9DriveNameEv @ 271 NONAME
	_ZNK12CCmDriveInfo9DriveSizeEv @ 272 NONAME
	_ZNK12CCmDriveInfo9DriveTypeEv @ 273 NONAME
	_ZNK12CCmStoreRule16MediaServerCountEv @ 274 NONAME
	_ZNK12CCmStoreRule4NameEv @ 275 NONAME
	_ZNK12CCmStoreRule6ListIdEv @ 276 NONAME
	_ZNK12CCmStoreRule6StatusEv @ 277 NONAME
	_ZNK12CCmStoreRule8DefCountEv @ 278 NONAME
	_ZNK12CCmStoreRule8SelectedEv @ 279 NONAME
	_ZNK14CCmMediaServer11MediaServerEv @ 280 NONAME
	_ZNK14CCmMediaServer14SystemUpdateIDEv @ 281 NONAME
	_ZNK14CCmMediaServer4DbIdEv @ 282 NONAME
	_ZNK14CCmSqlBaseItem2IdEv @ 283 NONAME
	_ZNK14CCmSqlBaseItem4HashEv @ 284 NONAME
	_ZNK14CCmSqlBaseItem5CdsIdEv @ 285 NONAME
	_ZNK14CCmSqlBaseItem8SearchIdEv @ 286 NONAME
	_ZNK15CCmBaseListItem11PrimaryTextEv @ 287 NONAME
	_ZNK15CCmBaseListItem12ExternalizeLER12RWriteStream @ 288 NONAME
	_ZNK15CCmBaseListItem13SecondaryTextEv @ 289 NONAME
	_ZNK15CCmBaseListItem4DateEv @ 290 NONAME
	_ZNK15CCmBaseListItem4DbIdEv @ 291 NONAME
	_ZNK15CCmBaseListItem4PathEv @ 292 NONAME
	_ZNK15CCmBaseListItem4SizeEv @ 293 NONAME
	_ZNK15CCmBaseListItem5RefIdEv @ 294 NONAME
	_ZNK15CCmBaseListItem6StatusEv @ 295 NONAME
	_ZNK15CCmBaseListItem9MediaTypeEv @ 296 NONAME
	_ZNK15CCmFillListItem11DriveNumberEv @ 297 NONAME
	_ZNK15CCmFillListItem12ExternalizeLER12RWriteStream @ 298 NONAME
	_ZNK15CCmFillListItem3UriEv @ 299 NONAME
	_ZNK15CCmFillListItem5DevIdEv @ 300 NONAME
	_ZNK15CCmFillListItem6ItemIdEv @ 301 NONAME
	_ZNK15CCmFillListItem6ListIdEv @ 302 NONAME
	_ZNK15CCmFillListItem7DriveIdEv @ 303 NONAME
	_ZNK15CCmFillListItem8PriorityEv @ 304 NONAME
	_ZNK15CCmFillListItem8SelectedEv @ 305 NONAME
	_ZNK15CCmFillListItem9UpnpClassEv @ 306 NONAME
	_ZNK15CCmSqlAudioItem11AlbumArtUriEv @ 307 NONAME
	_ZNK15CCmSqlAudioItem11TrackNumberEv @ 308 NONAME
	_ZNK15CCmSqlAudioItem7AlbumIdEv @ 309 NONAME
	_ZNK15CCmSqlAudioItem7BitrateEv @ 310 NONAME
	_ZNK15CCmSqlAudioItem7GenreIdEv @ 311 NONAME
	_ZNK15CCmSqlAudioItem8ArtistIdEv @ 312 NONAME
	_ZNK15CCmSqlAudioItem8DurationEv @ 313 NONAME
	_ZNK15CCmSqlImageItem11DescriptionEv @ 314 NONAME
	_ZNK15CCmSqlImageItem12ResolutionIdEv @ 315 NONAME
	_ZNK15CCmSqlVideoItem7GenreIdEv @ 316 NONAME
	_ZNK16CCmStoreListItem12ExternalizeLER12RWriteStream @ 317 NONAME
	_ZNK16CCmStoreListItem12StatusValuesEv @ 318 NONAME
	_ZNK16CCmStoreListItem6DevIdsEv @ 319 NONAME
	_ZNK16CCmStoreListItem6ListIdEv @ 320 NONAME
	_ZNK17CCmSqlGenericItem11HarvestDateEv @ 321 NONAME
	_ZNK17CCmSqlGenericItem11UpnpclassIdEv @ 322 NONAME
	_ZNK17CCmSqlGenericItem13ResourceCountEv @ 323 NONAME
	_ZNK17CCmSqlGenericItem13UpnpProfileIdEv @ 324 NONAME
	_ZNK17CCmSqlGenericItem3UriEv @ 325 NONAME
	_ZNK17CCmSqlGenericItem4DateEv @ 326 NONAME
	_ZNK17CCmSqlGenericItem4SizeEv @ 327 NONAME
	_ZNK17CCmSqlGenericItem5TitleEv @ 328 NONAME
	_ZNK17CCmSqlGenericItem9MediaTypeEv @ 329 NONAME
	_ZNK18CCmMediaServerFull11VisibleDateEv @ 330 NONAME
	_ZNK18CCmMediaServerFull12ExternalizeLER12RWriteStream @ 331 NONAME
	_ZNK18CCmMediaServerFull14CopyCapabilityEv @ 332 NONAME
	_ZNK18CCmMediaServerFull15MediaServerNameEv @ 333 NONAME
	_ZNK18CCmMediaServerFull8IsActiveEv @ 334 NONAME
	_ZNK18CCmSqlPropertyItem12ExternalizeLER12RWriteStream @ 335 NONAME
	_ZNK18CCmSqlPropertyItem2IdEv @ 336 NONAME
	_ZNK18CCmSqlPropertyItem4NameEv @ 337 NONAME
	_ZNK18CCmSqlPropertyItem6StatusEv @ 338 NONAME
	_ZNK20CCmFillRuleContainer12ExternalizeLER12RWriteStream @ 339 NONAME
	_ZNK20CCmFillRuleContainer13FillRuleCountEv @ 340 NONAME
	_ZNK20CCmFillRuleContainer8FillRuleEi @ 341 NONAME
	_ZNK21CCmSearchResponseHash10StartIndexEv @ 342 NONAME
	_ZNK21CCmSearchResponseHash4HashEv @ 343 NONAME
	_ZNK21CCmSearchResponseHash9ItemCountEv @ 344 NONAME
	_ZNK21CCmStoreRuleContainer12ExternalizeLER12RWriteStream @ 345 NONAME
	_ZNK21CCmStoreRuleContainer14StoreRuleCountEv @ 346 NONAME
	_ZNK23CCmSqlPropertyCollector12ExternalizeLER12RWriteStream @ 347 NONAME
	_ZNK23CCmSqlPropertyCollector22PropertyContainerCountEv @ 348 NONAME
	_ZNK23CCmSqlPropertyContainer12ExternalizeLER12RWriteStream @ 349 NONAME
	_ZNK23CCmSqlPropertyContainer17PropertyItemCountEv @ 350 NONAME
	_ZNK28CCmSqlResolutionPropertyItem10PixelCountEv @ 351 NONAME
	_ZNK28CCmSqlResolutionPropertyItem12ExternalizeLER12RWriteStream @ 352 NONAME
	_ZNK28CCmSqlResolutionPropertyItem5WidthEv @ 353 NONAME
	_ZNK28CCmSqlResolutionPropertyItem6HeightEv @ 354 NONAME
	_ZTI11CCmFillRule @ 355 NONAME ; #<TI>#
	_ZTI12CCmDriveInfo @ 356 NONAME ; #<TI>#
	_ZTI12CCmStoreRule @ 357 NONAME ; #<TI>#
	_ZTI14CCmMediaServer @ 358 NONAME ; #<TI>#
	_ZTI14CCmSqlBaseItem @ 359 NONAME ; #<TI>#
	_ZTI15CCmBaseListItem @ 360 NONAME ; #<TI>#
	_ZTI15CCmFillListItem @ 361 NONAME ; #<TI>#
	_ZTI15CCmSqlAudioItem @ 362 NONAME ; #<TI>#
	_ZTI15CCmSqlImageItem @ 363 NONAME ; #<TI>#
	_ZTI15CCmSqlVideoItem @ 364 NONAME ; #<TI>#
	_ZTI16CCmStoreListItem @ 365 NONAME ; #<TI>#
	_ZTI17CCmSqlGenericItem @ 366 NONAME ; #<TI>#
	_ZTI18CCmMediaServerFull @ 367 NONAME ; #<TI>#
	_ZTI18CCmSqlPropertyItem @ 368 NONAME ; #<TI>#
	_ZTI20CCmFillRuleContainer @ 369 NONAME ; #<TI>#
	_ZTI21CCmSearchResponseHash @ 370 NONAME ; #<TI>#
	_ZTI21CCmStoreRuleContainer @ 371 NONAME ; #<TI>#
	_ZTI23CCmSqlPropertyCollector @ 372 NONAME ; #<TI>#
	_ZTI23CCmSqlPropertyContainer @ 373 NONAME ; #<TI>#
	_ZTI28CCmSqlResolutionPropertyItem @ 374 NONAME ; #<TI>#
	_ZTV11CCmFillRule @ 375 NONAME ; #<VT>#
	_ZTV12CCmDriveInfo @ 376 NONAME ; #<VT>#
	_ZTV12CCmStoreRule @ 377 NONAME ; #<VT>#
	_ZTV14CCmMediaServer @ 378 NONAME ; #<VT>#
	_ZTV14CCmSqlBaseItem @ 379 NONAME ; #<VT>#
	_ZTV15CCmBaseListItem @ 380 NONAME ; #<VT>#
	_ZTV15CCmFillListItem @ 381 NONAME ; #<VT>#
	_ZTV15CCmSqlAudioItem @ 382 NONAME ; #<VT>#
	_ZTV15CCmSqlImageItem @ 383 NONAME ; #<VT>#
	_ZTV15CCmSqlVideoItem @ 384 NONAME ; #<VT>#
	_ZTV16CCmStoreListItem @ 385 NONAME ; #<VT>#
	_ZTV17CCmSqlGenericItem @ 386 NONAME ; #<VT>#
	_ZTV18CCmMediaServerFull @ 387 NONAME ; #<VT>#
	_ZTV18CCmSqlPropertyItem @ 388 NONAME ; #<VT>#
	_ZTV20CCmFillRuleContainer @ 389 NONAME ; #<VT>#
	_ZTV21CCmSearchResponseHash @ 390 NONAME ; #<VT>#
	_ZTV21CCmStoreRuleContainer @ 391 NONAME ; #<VT>#
	_ZTV23CCmSqlPropertyCollector @ 392 NONAME ; #<VT>#
	_ZTV23CCmSqlPropertyContainer @ 393 NONAME ; #<VT>#
	_ZTV28CCmSqlResolutionPropertyItem @ 394 NONAME ; #<VT>#

