EXPORTS
	?BrowseHomeNetworkL@CUpnpBrowseCommand@@QAEXXZ @ 1 NONAME ; void CUpnpBrowseCommand::BrowseHomeNetworkL(void)
	?CopyFilesL@CUpnpCopyCommand@@QAEXPAVCDesC16ArrayFlat@@@Z @ 2 NONAME ; void CUpnpCopyCommand::CopyFilesL(class CDesC16ArrayFlat *)
	?CopyPlaylistL@CUpnpCopyCommand@@QAEXABVTDesC16@@PAVCDesC16ArrayFlat@@@Z @ 3 NONAME ; void CUpnpCopyCommand::CopyPlaylistL(class TDesC16 const &, class CDesC16ArrayFlat *)
	?IsAvailableL@CUpnpBrowseCommand@@SAHXZ @ 4 NONAME ; int CUpnpBrowseCommand::IsAvailableL(void)
	?IsAvailableL@CUpnpCopyCommand@@SAHXZ @ 5 NONAME ; int CUpnpCopyCommand::IsAvailableL(void)
	?IsAvailableL@CUpnpMoveCommand@@SAHXZ @ 6 NONAME ; int CUpnpMoveCommand::IsAvailableL(void)
	?IsAvailableL@CUpnpRunSetupCommand@@SAHXZ @ 7 NONAME ; int CUpnpRunSetupCommand::IsAvailableL(void)
	?IsAvailableL@CUpnpShowCommand@@SAHXZ @ 8 NONAME ; int CUpnpShowCommand::IsAvailableL(void)
	?MoveFilesL@CUpnpMoveCommand@@QAEXPAVCDesC16ArrayFlat@@@Z @ 9 NONAME ; void CUpnpMoveCommand::MoveFilesL(class CDesC16ArrayFlat *)
	?NewL@CUpnpBrowseCommand@@SAPAV1@XZ @ 10 NONAME ; class CUpnpBrowseCommand * CUpnpBrowseCommand::NewL(void)
	?UpnpCommandReserved1@@YAXXZ @ 11 NONAME ; void UpnpCommandReserved1(void)
	?UpnpCommandReserved2@@YAXXZ @ 12 NONAME ; void UpnpCommandReserved2(void)
	?NewL@CUpnpCopyCommand@@SAPAV1@XZ @ 13 NONAME ; class CUpnpCopyCommand * CUpnpCopyCommand::NewL(void)
	?NewL@CUpnpMoveCommand@@SAPAV1@XZ @ 14 NONAME ; class CUpnpMoveCommand * CUpnpMoveCommand::NewL(void)
	?NewL@CUpnpRunSetupCommand@@SAPAV1@XZ @ 15 NONAME ; class CUpnpRunSetupCommand * CUpnpRunSetupCommand::NewL(void)
	?NewL@CUpnpShowCommand@@SAPAV1@PAVMUpnpCommandObserver@@@Z @ 16 NONAME ; class CUpnpShowCommand * CUpnpShowCommand::NewL(class MUpnpCommandObserver *)
	?NewL@CUpnpShowCommand@@SAPAV1@XZ @ 17 NONAME ; class CUpnpShowCommand * CUpnpShowCommand::NewL(void)
	?RunSetupL@CUpnpRunSetupCommand@@QAEXXZ @ 18 NONAME ; void CUpnpRunSetupCommand::RunSetupL(void)
	?ShowImageL@CUpnpShowCommand@@QAEXABVTDesC16@@@Z @ 19 NONAME ; void CUpnpShowCommand::ShowImageL(class TDesC16 const &)
	?ShowVideoL@CUpnpShowCommand@@QAEXABVTDesC16@@@Z @ 20 NONAME ; void CUpnpShowCommand::ShowVideoL(class TDesC16 const &)
	?StartShowingL@CUpnpShowCommand@@QAEXXZ @ 21 NONAME ; void CUpnpShowCommand::StartShowingL(void)
	?StopShowingL@CUpnpShowCommand@@QAEXXZ @ 22 NONAME ; void CUpnpShowCommand::StopShowingL(void)

