EXPORTS
	_ZN14EapPluginTools15GetPrivatePathLER3RFsR4TBufILi256EE @ 1 NONAME
	_ZN14EapPluginTools15GetPrivatePathLER4TBufILi256EE @ 2 NONAME
	_ZN14EapPluginTools16CleanupImplArrayEPv @ 3 NONAME
	_ZN14EapPluginTools16CreateDatabaseLCER16RDbNamedDatabaseR3RFsRiRK7TDesC16R4TBufILi256EE @ 4 NONAME
	_ZN14EapPluginTools18ListAllEapPluginsLE10TIndexTypeRK16TEapExpandedTypeR13RPointerArrayIS1_E @ 5 NONAME
	_ZN14EapPluginToolsC1Ev @ 6 NONAME
	_ZN14EapPluginToolsC2Ev @ 7 NONAME
	_ZN14EapPluginToolsD0Ev @ 8 NONAME
	_ZN14EapPluginToolsD1Ev @ 9 NONAME
	_ZN14EapPluginToolsD2Ev @ 10 NONAME
	_ZN16TEapExpandedType8SetValueEPKvj @ 11 NONAME
	_ZN16TEapExpandedType8SetValueEjj @ 12 NONAME
	_ZN16TEapExpandedTypeC1EPKS_ @ 13 NONAME
	_ZN16TEapExpandedTypeC1ERK6TBufC8ILi8EE @ 14 NONAME
	_ZN16TEapExpandedTypeC1ERK6TDesC8 @ 15 NONAME
	_ZN16TEapExpandedTypeC1ERKS_ @ 16 NONAME
	_ZN16TEapExpandedTypeC1Ev @ 17 NONAME
	_ZN16TEapExpandedTypeC2EPKS_ @ 18 NONAME
	_ZN16TEapExpandedTypeC2ERK6TBufC8ILi8EE @ 19 NONAME
	_ZN16TEapExpandedTypeC2ERK6TDesC8 @ 20 NONAME
	_ZN16TEapExpandedTypeC2ERKS_ @ 21 NONAME
	_ZN16TEapExpandedTypeC2Ev @ 22 NONAME
	_ZN16TEapExpandedTypeD0Ev @ 23 NONAME
	_ZN16TEapExpandedTypeD1Ev @ 24 NONAME
	_ZN16TEapExpandedTypeD2Ev @ 25 NONAME
	_ZN16TEapExpandedTypeaSERK6TBufC8ILi8EE @ 26 NONAME
	_ZN16TEapExpandedTypeaSERK6TDesC8 @ 27 NONAME
	_ZN16TEapExpandedTypeaSERKS_ @ 28 NONAME
	_ZNK16TEapExpandedType11GetVendorIdEv @ 29 NONAME
	_ZNK16TEapExpandedType13GetVendorTypeEv @ 30 NONAME
	_ZNK16TEapExpandedType7CompareERKS_ @ 31 NONAME
	_ZNK16TEapExpandedType8GetValueEv @ 32 NONAME
	_ZNK16TEapExpandedTypeeqERKS_ @ 33 NONAME
	_ZNK16TEapExpandedTypeneERKS_ @ 34 NONAME
	_ZTI14EapPluginTools @ 35 NONAME
	_ZTI16TEapExpandedType @ 36 NONAME
	_ZTV14EapPluginTools @ 37 NONAME
	_ZTV16TEapExpandedType @ 38 NONAME

