EXPORTS
	?GetAddressL@RUpnpMediaServerClient@@QAEXAAVTInetAddr@@AAVTRequestStatus@@@Z @ 1 NONAME ; void RUpnpMediaServerClient::GetAddressL(class TInetAddr &, class TRequestStatus &)
	?GetSharedItemL@CUpnpFileSharing@@QAEXHAAVCUpnpItem@@AAVTRequestStatus@@@Z @ 2 NONAME ; void CUpnpFileSharing::GetSharedItemL(int, class CUpnpItem &, class TRequestStatus &)
	?Subscribe@CUpnpMediaServerSettings@@QAEHIPAVMUpnpSettingObserver@@@Z @ 3 NONAME ; int CUpnpMediaServerSettings::Subscribe(unsigned int, class MUpnpSettingObserver *)
	?AddIcon@RUpnpMediaServerClient@@QAEXPAVCUpnpIcon@@AAVTRequestStatus@@@Z @ 4 NONAME ; void RUpnpMediaServerClient::AddIcon(class CUpnpIcon *, class TRequestStatus &)
	?GetAddress@RUpnpMediaServerClient@@QAEHAAVTInetAddr@@@Z @ 5 NONAME ; int RUpnpMediaServerClient::GetAddress(class TInetAddr &)
	?Status@RUpnpMediaServerClient@@QAEHAAH@Z @ 6 NONAME ; int RUpnpMediaServerClient::Status(int &)
	?ShareReferenceL@CUpnpFileSharing@@QAEXHHAAVCUpnpItem@@AAVTRequestStatus@@@Z @ 7 NONAME ; void CUpnpFileSharing::ShareReferenceL(int, int, class CUpnpItem &, class TRequestStatus &)
	??1CUpnpSecurityManager@@UAE@XZ @ 8 NONAME ; CUpnpSecurityManager::~CUpnpSecurityManager(void)
	?Stop@RUpnpMediaServerClient@@QAEHXZ @ 9 NONAME ; int RUpnpMediaServerClient::Stop(void)
	?NewL@CUpnpMediaServerSettings@@SAPAV1@XZ @ 10 NONAME ; class CUpnpMediaServerSettings * CUpnpMediaServerSettings::NewL(void)
	?UpdateIcon@RUpnpMediaServerClient@@QAEXAAVTDes8@@PAVCUpnpIcon@@AAVTRequestStatus@@@Z @ 11 NONAME ; void RUpnpMediaServerClient::UpdateIcon(class TDes8 &, class CUpnpIcon *, class TRequestStatus &)
	?ShareItemListL@CUpnpFileSharing@@QAEXABVTDesC8@@AAVCUpnpItemList@@AAHAAVTRequestStatus@@@Z @ 12 NONAME ; void CUpnpFileSharing::ShareItemListL(class TDesC8 const &, class CUpnpItemList &, int &, class TRequestStatus &)
	??0RUpnpMediaServerClient@@QAE@XZ @ 13 NONAME ; RUpnpMediaServerClient::RUpnpMediaServerClient(void)
	?UnshareContainerL@CUpnpFileSharing@@QAEXHAAVTRequestStatus@@@Z @ 14 NONAME ; void CUpnpFileSharing::UnshareContainerL(int, class TRequestStatus &)
	?GetSharedContainerListL@CUpnpFileSharing@@QAEXHAAVCUpnpBrowseCriteria@@AAVCUpnpContainerList@@AAHAAVTRequestStatus@@@Z @ 15 NONAME ; void CUpnpFileSharing::GetSharedContainerListL(int, class CUpnpBrowseCriteria &, class CUpnpContainerList &, int &, class TRequestStatus &)
	?Start@RUpnpMediaServerClient@@QAEHXZ @ 16 NONAME ; int RUpnpMediaServerClient::Start(void)
	?ShareReferenceListL@CUpnpFileSharing@@QAEXAAVCUpnpItemList@@AAHAAVTRequestStatus@@@Z @ 17 NONAME ; void CUpnpFileSharing::ShareReferenceListL(class CUpnpItemList &, int &, class TRequestStatus &)
	?Stop@RUpnpMediaServerClient@@QAEHW4TServerStopMode@1@@Z @ 18 NONAME ; int RUpnpMediaServerClient::Stop(enum RUpnpMediaServerClient::TServerStopMode)
	?RemoveIcon@RUpnpMediaServerClient@@QAEXAAVTDes8@@AAVTRequestStatus@@@Z @ 19 NONAME ; void RUpnpMediaServerClient::RemoveIcon(class TDes8 &, class TRequestStatus &)
	?GetL@CUpnpMediaServerSettings@@QAEPAVHBufC8@@I@Z @ 20 NONAME ; class HBufC8 * CUpnpMediaServerSettings::GetL(unsigned int)
	?SetUploadDirectoryL@RUpnpMediaServerClient@@QAEXABVTDesC16@@AAVTRequestStatus@@@Z @ 21 NONAME ; void RUpnpMediaServerClient::SetUploadDirectoryL(class TDesC16 const &, class TRequestStatus &)
	?Set@CUpnpMediaServerSettings@@QAEHIABVTDesC16@@@Z @ 22 NONAME ; int CUpnpMediaServerSettings::Set(unsigned int, class TDesC16 const &)
	?Close@RUpnpMediaServerClient@@QAEXXZ @ 23 NONAME ; void RUpnpMediaServerClient::Close(void)
	?Start@RUpnpMediaServerClient@@QAEXAAVTRequestStatus@@@Z @ 24 NONAME ; void RUpnpMediaServerClient::Start(class TRequestStatus &)
	?RemoveIcons@RUpnpMediaServerClient@@QAEXAAVTRequestStatus@@@Z @ 25 NONAME ; void RUpnpMediaServerClient::RemoveIcons(class TRequestStatus &)
	?Restart@RUpnpMediaServerClient@@QAEHXZ @ 26 NONAME ; int RUpnpMediaServerClient::Restart(void)
	?UnshareItemListL@CUpnpFileSharing@@QAEXAAVCUpnpItemList@@AAHAAVTRequestStatus@@@Z @ 27 NONAME ; void CUpnpFileSharing::UnshareItemListL(class CUpnpItemList &, int &, class TRequestStatus &)
	?ShareItemL@CUpnpFileSharing@@QAEXABVTDesC8@@AAVCUpnpItem@@AAVTRequestStatus@@@Z @ 28 NONAME ; void CUpnpFileSharing::ShareItemL(class TDesC8 const &, class CUpnpItem &, class TRequestStatus &)
	?NewInstanceFromUpnpSettingsL@CUpnpSecurityManager@@SAPAV1@XZ @ 29 NONAME ; class CUpnpSecurityManager * CUpnpSecurityManager::NewInstanceFromUpnpSettingsL(void)
	?NewL@CUpnpSecurityManager@@SAPAV1@ABVTDesC8@@@Z @ 30 NONAME ; class CUpnpSecurityManager * CUpnpSecurityManager::NewL(class TDesC8 const &)
	?NewLC@CUpnpMediaServerNotifier@@SAPAV1@PAVMUpnpMediaServerObserver@@@Z @ 31 NONAME ; class CUpnpMediaServerNotifier * CUpnpMediaServerNotifier::NewLC(class MUpnpMediaServerObserver *)
	?SetL@CUpnpMediaServerSettings@@QAEHIABVTDesC8@@@Z @ 32 NONAME ; int CUpnpMediaServerSettings::SetL(unsigned int, class TDesC8 const &)
	?Set@CUpnpMediaServerSettings@@QAEHIABH@Z @ 33 NONAME ; int CUpnpMediaServerSettings::Set(unsigned int, int const &)
	?NewL@CUpnpMediaServerStatusWatcher@@SAPAV1@AAVRUpnpMediaServerClient@@AAVMUpnpMediaServerStatusObserver@@@Z @ 34 NONAME ; class CUpnpMediaServerStatusWatcher * CUpnpMediaServerStatusWatcher::NewL(class RUpnpMediaServerClient &, class MUpnpMediaServerStatusObserver &)
	?MediaServerClient@CUpnpFileSharing@@QAEAAVRUpnpMediaServerClient@@XZ @ 35 NONAME ; class RUpnpMediaServerClient & CUpnpFileSharing::MediaServerClient(void)
	?NewL@CUpnpMediaServerNotifier@@SAPAV1@PAVMUpnpMediaServerObserver@@@Z @ 36 NONAME ; class CUpnpMediaServerNotifier * CUpnpMediaServerNotifier::NewL(class MUpnpMediaServerObserver *)
	?Subscribe@CUpnpMediaServerStatusWatcher@@QAEXXZ @ 37 NONAME ; void CUpnpMediaServerStatusWatcher::Subscribe(void)
	?Get@CUpnpMediaServerSettings@@QAEHIAAH@Z @ 38 NONAME ; int CUpnpMediaServerSettings::Get(unsigned int, int &)
	?Connect@RUpnpMediaServerClient@@QAEHXZ @ 39 NONAME ; int RUpnpMediaServerClient::Connect(void)
	?GetSharedContainerL@CUpnpFileSharing@@QAEXHAAVCUpnpContainer@@AAVTRequestStatus@@@Z @ 40 NONAME ; void CUpnpFileSharing::GetSharedContainerL(int, class CUpnpContainer &, class TRequestStatus &)
	?Get@CUpnpMediaServerSettings@@QAEHIAAVTDes16@@@Z @ 41 NONAME ; int CUpnpMediaServerSettings::Get(unsigned int, class TDes16 &)
	?UnshareItemL@CUpnpFileSharing@@QAEXHAAVTRequestStatus@@@Z @ 42 NONAME ; void CUpnpFileSharing::UnshareItemL(int, class TRequestStatus &)
	?StartOffline@RUpnpMediaServerClient@@QAEHXZ @ 43 NONAME ; int RUpnpMediaServerClient::StartOffline(void)
	?DropAllContentL@CUpnpFileSharing@@QAEXAAVTRequestStatus@@@Z @ 44 NONAME ; void CUpnpFileSharing::DropAllContentL(class TRequestStatus &)
	?NewL@CUpnpFileSharing@@SAPAV1@XZ @ 45 NONAME ; class CUpnpFileSharing * CUpnpFileSharing::NewL(void)
	?GetSharedItemListL@CUpnpFileSharing@@QAEXHAAVCUpnpBrowseCriteria@@AAVCUpnpItemList@@AAHAAVTRequestStatus@@@Z @ 46 NONAME ; void CUpnpFileSharing::GetSharedItemListL(int, class CUpnpBrowseCriteria &, class CUpnpItemList &, int &, class TRequestStatus &)
	?ShareContainerL@CUpnpFileSharing@@QAEXABVTDesC8@@AAVCUpnpContainer@@AAVTRequestStatus@@@Z @ 47 NONAME ; void CUpnpFileSharing::ShareContainerL(class TDesC8 const &, class CUpnpContainer &, class TRequestStatus &)
	?NewL@CUpnpMediaServerStatusWatcher@@SAPAV1@AAVMUpnpMediaServerStatusObserver@@@Z @ 48 NONAME ; class CUpnpMediaServerStatusWatcher * CUpnpMediaServerStatusWatcher::NewL(class MUpnpMediaServerStatusObserver &)
	?NewL@CUpnpFileSharingBody@@SAPAV1@XZ @ 49 NONAME ; class CUpnpFileSharingBody * CUpnpFileSharingBody::NewL(void)

