EXPORTS
	_ZN11EapQtConfigC1Ev @ 1 NONAME
	_ZN11EapQtConfigC2Ev @ 2 NONAME
	_ZN11EapQtConfigD1Ev @ 3 NONAME
	_ZN11EapQtConfigD2Ev @ 4 NONAME
	_ZN19EapQtPacStoreConfigC1Ev @ 5 NONAME
	_ZN19EapQtPacStoreConfigC2Ev @ 6 NONAME
	_ZN19EapQtPacStoreConfigD1Ev @ 7 NONAME
	_ZN19EapQtPacStoreConfigD2Ev @ 8 NONAME
	_ZN20EapQtCertificateInfoC1ERKS_ @ 9 NONAME
	_ZN20EapQtCertificateInfoC1Ev @ 10 NONAME
	_ZN20EapQtCertificateInfoC2ERKS_ @ 11 NONAME
	_ZN20EapQtCertificateInfoC2Ev @ 12 NONAME
	_ZN20EapQtCertificateInfoD1Ev @ 13 NONAME
	_ZN20EapQtCertificateInfoD2Ev @ 14 NONAME
	_ZN20EapQtCertificateInfoaSERKS_ @ 15 NONAME
	_ZN20EapQtConfigInterfaceC1ENS_13EapBearerTypeEi @ 16 NONAME
	_ZN20EapQtConfigInterfaceC1Ev @ 17 NONAME
	_ZN20EapQtConfigInterfaceC2ENS_13EapBearerTypeEi @ 18 NONAME
	_ZN20EapQtConfigInterfaceC2Ev @ 19 NONAME
	_ZN20EapQtConfigInterfaceD1Ev @ 20 NONAME
	_ZN20EapQtConfigInterfaceD2Ev @ 21 NONAME
	_ZNK11EapQtConfig5clearEv @ 22 NONAME
	_ZNK11EapQtConfig5valueENS_10SettingsIdE @ 23 NONAME
	_ZNK11EapQtConfig8setValueENS_10SettingsIdERK8QVariant @ 24 NONAME
	_ZNK19EapQtPacStoreConfig5clearEv @ 25 NONAME
	_ZNK19EapQtPacStoreConfig5valueENS_16PacStoreSettingsE @ 26 NONAME
	_ZNK19EapQtPacStoreConfig8setValueENS_16PacStoreSettingsERK8QVariant @ 27 NONAME
	_ZNK20EapQtCertificateInfo5clearEv @ 28 NONAME
	_ZNK20EapQtCertificateInfo5valueENS_6ItemIdE @ 29 NONAME
	_ZNK20EapQtCertificateInfo8setValueENS_6ItemIdERK8QVariant @ 30 NONAME
	_ZNK20EapQtConfigInterface10uiInstanceERK17EapQtPluginHandleS2_ @ 31 NONAME
	_ZNK20EapQtConfigInterface12validatorEapERK20EapQtExpandedEapTypeN11EapQtConfig10SettingsIdE @ 32 NONAME
	_ZNK20EapQtConfigInterface16userCertificatesEv @ 33 NONAME
	_ZNK20EapQtConfigInterface17readConfigurationERK17EapQtPluginHandleS2_R11EapQtConfig @ 34 NONAME
	_ZNK20EapQtConfigInterface17saveConfigurationERK17EapQtPluginHandleRK11EapQtConfig @ 35 NONAME
	_ZNK20EapQtConfigInterface17validatorPacStoreEN19EapQtPacStoreConfig16PacStoreSettingsE @ 36 NONAME
	_ZNK20EapQtConfigInterface18selectedOuterTypesEv @ 37 NONAME
	_ZNK20EapQtConfigInterface18updateCertificatesEv @ 38 NONAME
	_ZNK20EapQtConfigInterface19deleteConfigurationEv @ 39 NONAME
	_ZNK20EapQtConfigInterface19supportedInnerTypesERK17EapQtPluginHandle @ 40 NONAME
	_ZNK20EapQtConfigInterface19supportedOuterTypesEv @ 41 NONAME
	_ZNK20EapQtConfigInterface20isSupportedInnerTypeERK17EapQtPluginHandleS2_ @ 42 NONAME
	_ZNK20EapQtConfigInterface20isSupportedOuterTypeERK17EapQtPluginHandle @ 43 NONAME
	_ZNK20EapQtConfigInterface21setSelectedOuterTypesERK5QListI17EapQtPluginHandleE @ 44 NONAME
	_ZNK20EapQtConfigInterface25readPacStoreConfigurationER19EapQtPacStoreConfig @ 45 NONAME
	_ZNK20EapQtConfigInterface25savePacStoreConfigurationERK19EapQtPacStoreConfig @ 46 NONAME
	_ZNK20EapQtConfigInterface25setConfigurationReferenceEi @ 47 NONAME
	_ZNK20EapQtConfigInterface32certificateAuthorityCertificatesEv @ 48 NONAME

