EXPORTS
	_ZN10CVpnApItem10ConstructLEv @ 1 NONAME
	_ZN10CVpnApItem10WriteTextLE12TVpnApMemberRK7TDesC16 @ 2 NONAME
	_ZN10CVpnApItem14WriteLongTextLE12TVpnApMemberRK7TDesC16 @ 3 NONAME
	_ZN10CVpnApItem18ReadConstLongTextLE12TVpnApMember @ 4 NONAME
	_ZN10CVpnApItem5NewLCEv @ 5 NONAME
	_ZN10CVpnApItem8ReadBoolE12TVpnApMemberRi @ 6 NONAME
	_ZN10CVpnApItem8ReadUintE12TVpnApMemberRm @ 7 NONAME
	_ZN10CVpnApItem9CopyFromLERKS_ @ 8 NONAME
	_ZN10CVpnApItem9ReadTextLE12TVpnApMemberR6TDes16 @ 9 NONAME
	_ZN10CVpnApItem9WriteBoolE12TVpnApMemberRKi @ 10 NONAME
	_ZN10CVpnApItem9WriteUintE12TVpnApMemberRKm @ 11 NONAME
	_ZN10CVpnApItemC1Ev @ 12 NONAME
	_ZN10CVpnApItemC2Ev @ 13 NONAME
	_ZN10CVpnApItemD0Ev @ 14 NONAME
	_ZN10CVpnApItemD1Ev @ 15 NONAME
	_ZN10CVpnApItemD2Ev @ 16 NONAME
	_ZN11CActiveApDb12AddObserverLEP19MActiveApDbObserver @ 17 NONAME
	_ZN11CActiveApDb14RemoveObserverEP19MActiveApDbObserver @ 18 NONAME
	_ZN11CActiveApDb4NewLE19TCommDbDatabaseType @ 19 NONAME
	_ZN11CActiveApDb8DatabaseEv @ 20 NONAME
	_ZN11CActiveApDbD0Ev @ 21 NONAME
	_ZN11CActiveApDbD1Ev @ 22 NONAME
	_ZN11CActiveApDbD2Ev @ 23 NONAME
	_ZN11CApListItem10BearerTypeEv @ 24 NONAME
	_ZN11CApListItem10ConstructLE15TCommsDbIspTypemRK7TDesC1613TApBearerType @ 25 NONAME
	_ZN11CApListItem10ConstructLE15TCommsDbIspTypemRK7TDesC1613TApBearerTypeS3_ @ 26 NONAME
	_ZN11CApListItem10ConstructLEv @ 27 NONAME
	_ZN11CApListItem3UidEv @ 28 NONAME
	_ZN11CApListItem4NameEv @ 29 NONAME
	_ZN11CApListItem4TypeEv @ 30 NONAME
	_ZN11CApListItem5NewLCE15TCommsDbIspTypemRK7TDesC1613TApBearerType @ 31 NONAME
	_ZN11CApListItem5NewLCE15TCommsDbIspTypemRK7TDesC1613TApBearerTypeS3_i @ 32 NONAME
	_ZN11CApListItem5NewLCEPS_ @ 33 NONAME
	_ZN11CApListItem5NewLCEv @ 34 NONAME
	_ZN11CApListItem8SetItemLE15TCommsDbIspTypemRK7TDesC1613TApBearerType @ 35 NONAME
	_ZN11CApListItem8SetItemLE15TCommsDbIspTypemRK7TDesC1613TApBearerTypeS3_ @ 36 NONAME
	_ZN11CApListItem9CopyFromLERKS_ @ 37 NONAME
	_ZN11CApListItemC1Ev @ 38 NONAME
	_ZN11CApListItemC2Ev @ 39 NONAME
	_ZN11CApListItemD0Ev @ 40 NONAME
	_ZN11CApListItemD1Ev @ 41 NONAME
	_ZN11CApListItemD2Ev @ 42 NONAME
	_ZN11CApNetworks10ConstructLER14CCommsDatabase @ 43 NONAME
	_ZN11CApNetworks16AllListItemDataLER18CApNetworkItemList @ 44 NONAME
	_ZN11CApNetworks5NewLCER14CCommsDatabase @ 45 NONAME
	_ZN11CApNetworksC1Ev @ 46 NONAME
	_ZN11CApNetworksC2Ev @ 47 NONAME
	_ZN11CApNetworksD0Ev @ 48 NONAME
	_ZN11CApNetworksD1Ev @ 49 NONAME
	_ZN11CApNetworksD2Ev @ 50 NONAME
	_ZN12CVpnApEngine10ConstructLEP14CCommsDatabase @ 51 NONAME
	_ZN12CVpnApEngine10DeleteVpnLEm @ 52 NONAME
	_ZN12CVpnApEngine12CreateVpnApLER10CVpnApItem @ 53 NONAME
	_ZN12CVpnApEngine12CreateVpnApLER7TDesC16mS1_PS0_m @ 54 NONAME
	_ZN12CVpnApEngine14UpdateVpnDataLER10CVpnApItem @ 55 NONAME
	_ZN12CVpnApEngine3CvtEv @ 56 NONAME
	_ZN12CVpnApEngine5NewLCEP14CCommsDatabase @ 57 NONAME
	_ZN12CVpnApEngine8IsVpnApLEm @ 58 NONAME
	_ZN12CVpnApEngine8VpnDataLEmR10CVpnApItem @ 59 NONAME
	_ZN12CVpnApEngineC1Ev @ 60 NONAME
	_ZN12CVpnApEngineC2Ev @ 61 NONAME
	_ZN12CVpnApEngineD0Ev @ 62 NONAME
	_ZN12CVpnApEngineD1Ev @ 63 NONAME
	_ZN12CVpnApEngineD2Ev @ 64 NONAME
	_ZN14CApDataHandler10ConstructLER14CCommsDatabase @ 65 NONAME
	_ZN14CApDataHandler12ReadNetworkLEmR14CApNetworkItem @ 66 NONAME
	_ZN14CApDataHandler13SetAsDefaultLEm15TCommsDbIspType @ 67 NONAME
	_ZN14CApDataHandler14CreateNetworkLER14CApNetworkItem @ 68 NONAME
	_ZN14CApDataHandler14RemoveNetworkLEm @ 69 NONAME
	_ZN14CApDataHandler15CreateCopyFromLEm @ 70 NONAME
	_ZN14CApDataHandler15CreateFromDataLER18CApAccessPointItem @ 71 NONAME
	_ZN14CApDataHandler16AccessPointDataLEmR18CApAccessPointItem @ 72 NONAME
	_ZN14CApDataHandler16ReadNetworkPartLER18CApAccessPointItem @ 73 NONAME
	_ZN14CApDataHandler22UpdateAccessPointDataLER18CApAccessPointItemRi @ 74 NONAME
	_ZN14CApDataHandler24GetPreferredIfDbIapTypeLEm26TCommDbConnectionDirectionRmS1_S1_ @ 75 NONAME
	_ZN14CApDataHandler24GetPreferredIfDbIspTypeLEm26TCommDbConnectionDirectionRmS1_S1_S1_ @ 76 NONAME
	_ZN14CApDataHandler24SetPreferredIfDbIapTypeLEm26TCommDbConnectionDirectionm17TCommDbDialogPrefmi @ 77 NONAME
	_ZN14CApDataHandler24SetPreferredIfDbIspTypeLEm26TCommDbConnectionDirectionm17TCommDbDialogPrefmmRK7TDesC16i @ 78 NONAME
	_ZN14CApDataHandler5NewLCER14CCommsDatabase @ 79 NONAME
	_ZN14CApDataHandler9RemoveAPLEm @ 80 NONAME
	_ZN14CApDataHandlerC1Ev @ 81 NONAME
	_ZN14CApDataHandlerC2Ev @ 82 NONAME
	_ZN14CApDataHandlerD0Ev @ 83 NONAME
	_ZN14CApDataHandlerD1Ev @ 84 NONAME
	_ZN14CApDataHandlerD2Ev @ 85 NONAME
	_ZN14CApNetworkItem10ConstructLEmRK7TDesC16 @ 86 NONAME
	_ZN14CApNetworkItem10ConstructLEv @ 87 NONAME
	_ZN14CApNetworkItem5NewLCEPS_ @ 88 NONAME
	_ZN14CApNetworkItem5NewLCEv @ 89 NONAME
	_ZN14CApNetworkItem6SetUidEm @ 90 NONAME
	_ZN14CApNetworkItem8SetNameLERK7TDesC16 @ 91 NONAME
	_ZN14CApNetworkItem9CopyFromLERKS_ @ 92 NONAME
	_ZN14CApNetworkItemC1Ev @ 93 NONAME
	_ZN14CApNetworkItemC2Ev @ 94 NONAME
	_ZN14CApNetworkItemD0Ev @ 95 NONAME
	_ZN14CApNetworkItemD1Ev @ 96 NONAME
	_ZN14CApNetworkItemD2Ev @ 97 NONAME
	_ZN14CApProtHandler12ProtectItemLEP14CCommsDatabasem @ 98 NONAME
	_ZN14CApProtHandler13ProtectTableLEP14CCommsDatabase @ 99 NONAME
	_ZN14CApProtHandler14IsApProtectedLEP14CCommsDatabasem @ 100 NONAME
	_ZN14CApProtHandler14UnprotectItemLEP14CCommsDatabasem @ 101 NONAME
	_ZN14CApProtHandler15UnprotectTableLEP14CCommsDatabase @ 102 NONAME
	_ZN14CApProtHandler17IsTableProtectedLEP14CCommsDatabase @ 103 NONAME
	_ZN14CApProtHandler19ProtectPreferencesLEP14CCommsDatabase @ 104 NONAME
	_ZN14CApProtHandler21UnprotectPreferencesLEP14CCommsDatabase @ 105 NONAME
	_ZN14CApProtHandler23IsPreferencesProtectedLEP14CCommsDatabase @ 106 NONAME
	_ZN14CApProtHandler28RemoveProtectedAccessPointsLEP14CCommsDatabase @ 107 NONAME
	_ZN15CApListItemListC1Ev @ 108 NONAME
	_ZN15CApListItemListC2Ev @ 109 NONAME
	_ZN15CApListItemListD0Ev @ 110 NONAME
	_ZN15CApListItemListD1Ev @ 111 NONAME
	_ZN15CApListItemListD2Ev @ 112 NONAME
	_ZN18CApAccessPointItem10ConstructLEv @ 113 NONAME
	_ZN18CApAccessPointItem10WriteTextLE9TApMemberRK6TDesC8 @ 114 NONAME
	_ZN18CApAccessPointItem10WriteTextLE9TApMemberRK7TDesC16 @ 115 NONAME
	_ZN18CApAccessPointItem11BearerTypeLEv @ 116 NONAME
	_ZN18CApAccessPointItem13ReadLongTextLE9TApMember @ 117 NONAME
	_ZN18CApAccessPointItem13SanityCheckOkEv @ 118 NONAME
	_ZN18CApAccessPointItem14SetBearerTypeLE13TApBearerType @ 119 NONAME
	_ZN18CApAccessPointItem14WriteLongTextLE9TApMemberRK7TDesC16 @ 120 NONAME
	_ZN18CApAccessPointItem15ReadTextLengthLE9TApMember @ 121 NONAME
	_ZN18CApAccessPointItem18ReadConstLongTextLE9TApMember @ 122 NONAME
	_ZN18CApAccessPointItem20HasSameIspAndBearerLERS_ @ 123 NONAME
	_ZN18CApAccessPointItem5NewLCEv @ 124 NONAME
	_ZN18CApAccessPointItem8ReadBoolE9TApMemberRi @ 125 NONAME
	_ZN18CApAccessPointItem8ReadUintE9TApMemberRm @ 126 NONAME
	_ZN18CApAccessPointItem9CopyFromLERKS_ @ 127 NONAME
	_ZN18CApAccessPointItem9ReadTextLE9TApMemberR5TDes8 @ 128 NONAME
	_ZN18CApAccessPointItem9ReadTextLE9TApMemberR6TDes16 @ 129 NONAME
	_ZN18CApAccessPointItem9SetNamesLERK7TDesC16 @ 130 NONAME
	_ZN18CApAccessPointItem9WriteBoolE9TApMemberRKi @ 131 NONAME
	_ZN18CApAccessPointItem9WriteUintE9TApMemberRKm @ 132 NONAME
	_ZN18CApAccessPointItemC1Ev @ 133 NONAME
	_ZN18CApAccessPointItemC2Ev @ 134 NONAME
	_ZN18CApAccessPointItemD0Ev @ 135 NONAME
	_ZN18CApAccessPointItemD1Ev @ 136 NONAME
	_ZN18CApAccessPointItemD2Ev @ 137 NONAME
	_ZN18CApNetworkItemListC1Ev @ 138 NONAME
	_ZN18CApNetworkItemListC2Ev @ 139 NONAME
	_ZN18CApNetworkItemListD0Ev @ 140 NONAME
	_ZN18CApNetworkItemListD1Ev @ 141 NONAME
	_ZN18CApNetworkItemListD2Ev @ 142 NONAME
	_ZN8CApUtils10ConstructLER14CCommsDatabase @ 143 NONAME
	_ZN8CApUtils10IAPExistsLEm @ 144 NONAME
	_ZN8CApUtils10IsAPInUseLEm @ 145 NONAME
	_ZN8CApUtils11BearerTypeLEm @ 146 NONAME
	_ZN8CApUtils11IsReadOnlyLEm @ 147 NONAME
	_ZN8CApUtils11SetISPTypeLEm15TCommsDbIspType @ 148 NONAME
	_ZN8CApUtils12IsValidNameLERK7TDesC16 @ 149 NONAME
	_ZN8CApUtils12IsValidNameLERK7TDesC16m @ 150 NONAME
	_ZN8CApUtils12WapApExistsLEm @ 151 NONAME
	_ZN8CApUtils14MakeValidNameLER6TDes16 @ 152 NONAME
	_ZN8CApUtils14WapBearerTypeLEmR6TDes16 @ 153 NONAME
	_ZN8CApUtils15IapIdFromWapIdLEm @ 154 NONAME
	_ZN8CApUtils15WapIdFromIapIdLEm @ 155 NONAME
	_ZN8CApUtils25HasMandatoryFieldsFilledLEm @ 156 NONAME
	_ZN8CApUtils27DoHasMandatoryFieldsFilledLEmP17CCommsDbTableView13TApBearerType @ 157 NONAME
	_ZN8CApUtils5NameLEmR6TDes16 @ 158 NONAME
	_ZN8CApUtils5NewLCER14CCommsDatabase @ 159 NONAME
	_ZN8CApUtils8ISPTypeLEmR15TCommsDbIspType @ 160 NONAME
	_ZN8CApUtils8SetNameLER6TDes16m @ 161 NONAME
	_ZN8CApUtilsC1Ev @ 162 NONAME
	_ZN8CApUtilsC2Ev @ 163 NONAME
	_ZN8CApUtilsD0Ev @ 164 NONAME
	_ZN8CApUtilsD1Ev @ 165 NONAME
	_ZN8CApUtilsD2Ev @ 166 NONAME
	_ZN9CApSelect10BearerTypeEv @ 167 NONAME
	_ZN9CApSelect10ConstructLER14CCommsDatabaseiii @ 168 NONAME
	_ZN9CApSelect10ConstructLER14CCommsDatabaseiiii @ 169 NONAME
	_ZN9CApSelect10ConstructLER14CCommsDatabaseiiii14TVpnFilterType @ 170 NONAME
	_ZN9CApSelect11MoveToFirstEv @ 171 NONAME
	_ZN9CApSelect11SetFiltersLEiii @ 172 NONAME
	_ZN9CApSelect12BearerFilterEv @ 173 NONAME
	_ZN9CApSelect13IspTypeFilterEv @ 174 NONAME
	_ZN9CApSelect16AllListItemDataLER15CApListItemList @ 175 NONAME
	_ZN9CApSelect3UidEv @ 176 NONAME
	_ZN9CApSelect4NameEv @ 177 NONAME
	_ZN9CApSelect4TypeEv @ 178 NONAME
	_ZN9CApSelect5CountEv @ 179 NONAME
	_ZN9CApSelect5NewLCER14CCommsDatabaseiii @ 180 NONAME
	_ZN9CApSelect5NewLCER14CCommsDatabaseiiii @ 181 NONAME
	_ZN9CApSelect5NewLCER14CCommsDatabaseiiii14TVpnFilterType @ 182 NONAME
	_ZN9CApSelect8MoveLastEv @ 183 NONAME
	_ZN9CApSelect8MoveNextEv @ 184 NONAME
	_ZN9CApSelect8MovePrevEv @ 185 NONAME
	_ZN9CApSelect9SortOrderEv @ 186 NONAME
	_ZN9CApSelectC1Ev @ 187 NONAME
	_ZN9CApSelectC2Ev @ 188 NONAME
	_ZN9CApSelectD0Ev @ 189 NONAME
	_ZN9CApSelectD1Ev @ 190 NONAME
	_ZN9CApSelectD2Ev @ 191 NONAME
	_ZNK10CVpnApItem4NameEv @ 192 NONAME
	_ZNK10CVpnApItem6WapUidEv @ 193 NONAME
	_ZNK10CVpnApItemeqERKS_ @ 194 NONAME
	_ZNK10CVpnApItemneERKS_ @ 195 NONAME
	_ZNK11CApListItem10IsReadOnlyEv @ 196 NONAME
	_ZNK11CApListItem9StartPageEv @ 197 NONAME
	_ZNK11CApNetworks5CountEv @ 198 NONAME
	_ZNK11CApNetworks5NameLEm @ 199 NONAME
	_ZNK14CApDataHandler8DefaultLEi @ 200 NONAME
	_ZNK14CApDataHandler8DefaultLEiRi @ 201 NONAME
	_ZNK14CApNetworkItem3UidEv @ 202 NONAME
	_ZNK14CApNetworkItem4NameEv @ 203 NONAME
	_ZNK15CApListItemList10ItemForUidEm @ 204 NONAME
	_ZNK18CApAccessPointItem10IsReadOnlyEv @ 205 NONAME
	_ZNK18CApAccessPointItem14ConnectionNameEv @ 206 NONAME
	_ZNK18CApAccessPointItem6WapUidEv @ 207 NONAME
	_ZNK18CApAccessPointItem9WapBearerEv @ 208 NONAME
	_ZNK18CApAccessPointItemeqERKS_ @ 209 NONAME
	_ZNK18CApAccessPointItemneERKS_ @ 210 NONAME
	_ZNK18CApNetworkItemList10ItemForUidEm @ 211 NONAME
	_ZNK9CApSelect10IsReadOnlyEv @ 212 NONAME
	_ZTI11CApListItem @ 213 NONAME ; #<TI>#
	_ZTI12CApItemExtra @ 214 NONAME ; #<TI>#
	_ZTI14CApDataHandler @ 215 NONAME ; #<TI>#
	_ZTI15CApItemCdmaData @ 216 NONAME ; #<TI>#
	_ZTI15CApItemWlanData @ 217 NONAME ; #<TI>#
	_ZTI15CApListItemList @ 218 NONAME ; #<TI>#
	_ZTI18CApAccessPointItem @ 219 NONAME ; #<TI>#
	_ZTI18CApNetworkItemList @ 220 NONAME ; #<TI>#
	_ZTI19CActiveApDbNotifier @ 221 NONAME ; #<TI>#
	_ZTI8CApUtils @ 222 NONAME ; #<TI>#
	_ZTI9CApSelect @ 223 NONAME ; #<TI>#
	_ZTV11CApListItem @ 224 NONAME ; #<VT>#
	_ZTV12CApItemExtra @ 225 NONAME ; #<VT>#
	_ZTV14CApDataHandler @ 226 NONAME ; #<VT>#
	_ZTV15CApItemCdmaData @ 227 NONAME ; #<VT>#
	_ZTV15CApItemWlanData @ 228 NONAME ; #<VT>#
	_ZTV15CApListItemList @ 229 NONAME ; #<VT>#
	_ZTV18CApAccessPointItem @ 230 NONAME ; #<VT>#
	_ZTV18CApNetworkItemList @ 231 NONAME ; #<VT>#
	_ZTV19CActiveApDbNotifier @ 232 NONAME ; #<VT>#
	_ZTV8CApUtils @ 233 NONAME ; #<VT>#
	_ZTV9CApSelect @ 234 NONAME ; #<VT>#
	_ZN9CApSelect10ConstructLER14CCommsDatabaseiiii14TVpnFilterTypei @ 235 NONAME
	_ZN9CApSelect5NewLCER14CCommsDatabaseiiii14TVpnFilterTypei @ 236 NONAME

