EXPORTS
	??1CDRMHelper@@UAE@XZ @ 1 NONAME ; CDRMHelper::~CDRMHelper(void)
	??1CDRMHelperRightsConstraints@@UAE@XZ @ 2 NONAME ; CDRMHelperRightsConstraints::~CDRMHelperRightsConstraints(void)
	?ActivateContentL@CDRMHelper@@QAEXAAVCData@ContentAccess@@@Z @ 3 NONAME ; void CDRMHelper::ActivateContentL(class ContentAccess::CData &)
	?ActivateContentL@CDRMHelper@@QAEXAAVTDesC16@@@Z @ 4 NONAME ; void CDRMHelper::ActivateContentL(class TDesC16 &)
	?CanSetAutomated@CDRMHelper@@QAEHAAVRFile@@AAH@Z @ 5 NONAME ; int CDRMHelper::CanSetAutomated(class RFile &, int &)
	?CanSetAutomated@CDRMHelper@@QAEHABVTDesC16@@AAH@Z @ 6 NONAME ; int CDRMHelper::CanSetAutomated(class TDesC16 const &, int &)
	?CanSetAutomated@CDRMHelper@@QAEHABVTDesC8@@AAH@Z @ 7 NONAME ; int CDRMHelper::CanSetAutomated(class TDesC8 const &, int &)
	?CheckRightsAmountL@CDRMHelper@@QAEHAAVRFile@@HH@Z @ 8 NONAME ; int CDRMHelper::CheckRightsAmountL(class RFile &, int, int)
	?CheckRightsAmountL@CDRMHelper@@QAEHABVTDesC16@@HH@Z @ 9 NONAME ; int CDRMHelper::CheckRightsAmountL(class TDesC16 const &, int, int)
	?CheckRightsAmountL@CDRMHelper@@QAEHABVTDesC8@@HH@Z @ 10 NONAME ; int CDRMHelper::CheckRightsAmountL(class TDesC8 const &, int, int)
	?CheckRightsPercentL@CDRMHelper@@QAEHAAVRFile@@H@Z @ 11 NONAME ; int CDRMHelper::CheckRightsPercentL(class RFile &, int)
	?CheckRightsPercentL@CDRMHelper@@QAEHABVTDesC16@@H@Z @ 12 NONAME ; int CDRMHelper::CheckRightsPercentL(class TDesC16 const &, int)
	?Consume2@CDRMHelper@@QAEHABVTDesC8@@KW4TDRMHelperConsumeAction@1@@Z @ 13 NONAME ; int CDRMHelper::Consume2(class TDesC8 const &, unsigned long, enum CDRMHelper::TDRMHelperConsumeAction)
	?UnRegisterDataType@CDRMHelper@@QAEHH@Z @ 14 NONAME ; int CDRMHelper::UnRegisterDataType(int)
	?ConsumeFile2@CDRMHelper@@QAEHAAVRFile@@KW4TDRMHelperConsumeAction@1@@Z @ 15 NONAME ; int CDRMHelper::ConsumeFile2(class RFile &, unsigned long, enum CDRMHelper::TDRMHelperConsumeAction)
	?ConsumeFile2@CDRMHelper@@QAEHABVTDesC16@@KW4TDRMHelperConsumeAction@1@@Z @ 16 NONAME ; int CDRMHelper::ConsumeFile2(class TDesC16 const &, unsigned long, enum CDRMHelper::TDRMHelperConsumeAction)
	?SupportedDataType@CDRMHelper@@QAEHHAAVTDataType@@@Z @ 17 NONAME ; int CDRMHelper::SupportedDataType(int, class TDataType &)
	?DataTypesCount@CDRMHelper@@QAEHAAH@Z @ 18 NONAME ; int CDRMHelper::DataTypesCount(int &)
	?EmbeddedPreviewCompletedL@CDRMHelper@@QAEHAAVCData@ContentAccess@@@Z @ 19 NONAME ; int CDRMHelper::EmbeddedPreviewCompletedL(class ContentAccess::CData &)
	?EmbeddedPreviewCompletedL@CDRMHelper@@QAEHAAVTDesC16@@@Z @ 20 NONAME ; int CDRMHelper::EmbeddedPreviewCompletedL(class TDesC16 &)
	?FullRights@CDRMHelperRightsConstraints@@QAEHXZ @ 21 NONAME ; int CDRMHelperRightsConstraints::FullRights(void)
	?GetAccumulatedTimeL@CDRMHelperRightsConstraints@@QAEXAAVTTimeIntervalSeconds@@@Z @ 22 NONAME ; void CDRMHelperRightsConstraints::GetAccumulatedTimeL(class TTimeIntervalSeconds &)
	?GetContentURIList@CDRMHelper@@QAEHAAPAV?$RPointerArray@VHBufC8@@@@@Z @ 23 NONAME ; int CDRMHelper::GetContentURIList(class RPointerArray<class HBufC8> * &)
	?GetCountersL@CDRMHelperRightsConstraints@@QAEXAAK0@Z @ 24 NONAME ; void CDRMHelperRightsConstraints::GetCountersL(unsigned long &, unsigned long &)
	?GetEndTimeL@CDRMHelperRightsConstraints@@QAEXAAVTTime@@@Z @ 25 NONAME ; void CDRMHelperRightsConstraints::GetEndTimeL(class TTime &)
	?GetIntervalL@CDRMHelperRightsConstraints@@QAEXAAVTTimeIntervalSeconds@@@Z @ 26 NONAME ; void CDRMHelperRightsConstraints::GetIntervalL(class TTimeIntervalSeconds &)
	?GetIntervalStartL@CDRMHelperRightsConstraints@@QAEXAAVTTime@@@Z @ 27 NONAME ; void CDRMHelperRightsConstraints::GetIntervalStartL(class TTime &)
	?GetPreviewRightsL@CDRMHelper@@QAEXAAVCData@ContentAccess@@@Z @ 28 NONAME ; void CDRMHelper::GetPreviewRightsL(class ContentAccess::CData &)
	?GetPreviewRightsL@CDRMHelper@@QAEXAAVTDesC16@@@Z @ 29 NONAME ; void CDRMHelper::GetPreviewRightsL(class TDesC16 &)
	?GetRightsDetailsL@CDRMHelper@@QAEXAAVRFile@@KAAH1AAPAVCDRMHelperRightsConstraints@@222@Z @ 30 NONAME ; void CDRMHelper::GetRightsDetailsL(class RFile &, unsigned long, int &, int &, class CDRMHelperRightsConstraints * &, class CDRMHelperRightsConstraints * &, class CDRMHelperRightsConstraints * &, class CDRMHelperRightsConstraints * &)
	?GetRightsDetailsL@CDRMHelper@@QAEXABVTDesC16@@KAAH1AAPAVCDRMHelperRightsConstraints@@222@Z @ 31 NONAME ; void CDRMHelper::GetRightsDetailsL(class TDesC16 const &, unsigned long, int &, int &, class CDRMHelperRightsConstraints * &, class CDRMHelperRightsConstraints * &, class CDRMHelperRightsConstraints * &, class CDRMHelperRightsConstraints * &)
	?GetRightsDetailsL@CDRMHelper@@QAEXABVTDesC16@@KAAH1AAPAVCDRMRightsConstraints@@222@Z @ 32 NONAME ; void CDRMHelper::GetRightsDetailsL(class TDesC16 const &, unsigned long, int &, int &, class CDRMRightsConstraints * &, class CDRMRightsConstraints * &, class CDRMRightsConstraints * &, class CDRMRightsConstraints * &)
	?GetStartTimeL@CDRMHelperRightsConstraints@@QAEXAAVTTime@@@Z @ 33 NONAME ; void CDRMHelperRightsConstraints::GetStartTimeL(class TTime &)
	?GetTimedCountL@CDRMHelperRightsConstraints@@QAEXAAK0AAVTTimeIntervalSeconds@@@Z @ 34 NONAME ; void CDRMHelperRightsConstraints::GetTimedCountL(unsigned long &, unsigned long &, class TTimeIntervalSeconds &)
	?HandleErrorL@CDRMHelper@@QAEHHAAVRFile@@@Z @ 35 NONAME ; int CDRMHelper::HandleErrorL(int, class RFile &)
	?HandleErrorL@CDRMHelper@@QAEHHABVTDesC16@@@Z @ 36 NONAME ; int CDRMHelper::HandleErrorL(int, class TDesC16 const &)
	?HandleErrorL@CDRMHelper@@QAEHHABVTDesC8@@@Z @ 37 NONAME ; int CDRMHelper::HandleErrorL(int, class TDesC8 const &)
	?HasInfoUrlL@CDRMHelper@@QAEHAAVCData@ContentAccess@@AAPAVHBufC8@@@Z @ 38 NONAME ; int CDRMHelper::HasInfoUrlL(class ContentAccess::CData &, class HBufC8 * &)
	?HasInfoUrlL@CDRMHelper@@QAEHAAVTDesC16@@AAPAVHBufC8@@@Z @ 39 NONAME ; int CDRMHelper::HasInfoUrlL(class TDesC16 &, class HBufC8 * &)
	?HasPreviewL@CDRMHelper@@QAE?AW4TDRMHelperPreviewType@1@AAVCData@ContentAccess@@AAPAVHBufC8@@@Z @ 40 NONAME ; enum CDRMHelper::TDRMHelperPreviewType CDRMHelper::HasPreviewL(class ContentAccess::CData &, class HBufC8 * &)
	?HasPreviewL@CDRMHelper@@QAE?AW4TDRMHelperPreviewType@1@AAVTDesC16@@AAPAVHBufC8@@@Z @ 41 NONAME ; enum CDRMHelper::TDRMHelperPreviewType CDRMHelper::HasPreviewL(class TDesC16 &, class HBufC8 * &)
	?IndicateIdle@CDRMHelper@@QAEXXZ @ 42 NONAME ; void CDRMHelper::IndicateIdle(void)
	?IsPreview@CDRMHelperRightsConstraints@@QAEHXZ @ 43 NONAME ; int CDRMHelperRightsConstraints::IsPreview(void)
	?LaunchDetailsViewEmbeddedL@CDRMHelper@@QAEXAAVRFile@@@Z @ 44 NONAME ; void CDRMHelper::LaunchDetailsViewEmbeddedL(class RFile &)
	?LaunchDetailsViewEmbeddedL@CDRMHelper@@QAEXABVTDesC16@@@Z @ 45 NONAME ; void CDRMHelper::LaunchDetailsViewEmbeddedL(class TDesC16 const &)
	?LaunchDetailsViewEmbeddedL@CDRMHelper@@QAEXABVTDesC8@@@Z @ 46 NONAME ; void CDRMHelper::LaunchDetailsViewEmbeddedL(class TDesC8 const &)
	?LaunchDetailsViewEmbeddedL@CDRMHelper@@QAEXPBVHBufC8@@@Z @ 47 NONAME ; void CDRMHelper::LaunchDetailsViewEmbeddedL(class HBufC8 const *)
	?NewL@CDRMHelper@@SAPAV1@AAVCCoeEnv@@@Z @ 48 NONAME ; class CDRMHelper * CDRMHelper::NewL(class CCoeEnv &)
	?NewL@CDRMHelper@@SAPAV1@XZ @ 49 NONAME ; class CDRMHelper * CDRMHelper::NewL(void)
	?NewLC@CDRMHelper@@SAPAV1@AAVCCoeEnv@@@Z @ 50 NONAME ; class CDRMHelper * CDRMHelper::NewLC(class CCoeEnv &)
	?NewLC@CDRMHelper@@SAPAV1@XZ @ 51 NONAME ; class CDRMHelper * CDRMHelper::NewLC(void)
	?OpenInfoUrlL@CDRMHelper@@QAEXAAVCData@ContentAccess@@@Z @ 52 NONAME ; void CDRMHelper::OpenInfoUrlL(class ContentAccess::CData &)
	?OpenInfoUrlL@CDRMHelper@@QAEXAAVTDesC16@@@Z @ 53 NONAME ; void CDRMHelper::OpenInfoUrlL(class TDesC16 &)
	?RegisterDataType@CDRMHelper@@QAEHABVTDataType@@@Z @ 54 NONAME ; int CDRMHelper::RegisterDataType(class TDataType const &)
	?RemoveAutomated@CDRMHelper@@QAEHAAVRFile@@@Z @ 55 NONAME ; int CDRMHelper::RemoveAutomated(class RFile &)
	?RemoveAutomated@CDRMHelper@@QAEHABVTDesC16@@@Z @ 56 NONAME ; int CDRMHelper::RemoveAutomated(class TDesC16 const &)
	?RemoveAutomated@CDRMHelper@@QAEHABVTDesC8@@@Z @ 57 NONAME ; int CDRMHelper::RemoveAutomated(class TDesC8 const &)
	?RemoveAutomatedPassive@CDRMHelper@@QAEHAAVRFile@@@Z @ 58 NONAME ; int CDRMHelper::RemoveAutomatedPassive(class RFile &)
	?RemoveAutomatedPassive@CDRMHelper@@QAEHABVTDesC16@@@Z @ 59 NONAME ; int CDRMHelper::RemoveAutomatedPassive(class TDesC16 const &)
	?RemoveAutomatedPassive@CDRMHelper@@QAEHABVTDesC8@@@Z @ 60 NONAME ; int CDRMHelper::RemoveAutomatedPassive(class TDesC8 const &)
	?SetAutomated@CDRMHelper@@QAEHAAVRFile@@@Z @ 61 NONAME ; int CDRMHelper::SetAutomated(class RFile &)
	?SetAutomated@CDRMHelper@@QAEHABVTDesC16@@@Z @ 62 NONAME ; int CDRMHelper::SetAutomated(class TDesC16 const &)
	?SetAutomated@CDRMHelper@@QAEHABVTDesC8@@@Z @ 63 NONAME ; int CDRMHelper::SetAutomated(class TDesC8 const &)
	?SetAutomatedPassive@CDRMHelper@@QAEHAAVRFile@@@Z @ 64 NONAME ; int CDRMHelper::SetAutomatedPassive(class RFile &)
	?SetAutomatedPassive@CDRMHelper@@QAEHABVTDesC16@@@Z @ 65 NONAME ; int CDRMHelper::SetAutomatedPassive(class TDesC16 const &)
	?SetAutomatedPassive@CDRMHelper@@QAEHABVTDesC8@@@Z @ 66 NONAME ; int CDRMHelper::SetAutomatedPassive(class TDesC8 const &)
	?SetAutomatedSilent@CDRMHelper@@QAEHAAVRFile@@H@Z @ 67 NONAME ; int CDRMHelper::SetAutomatedSilent(class RFile &, int)
	?SetAutomatedSilent@CDRMHelper@@QAEHABVTDesC16@@H@Z @ 68 NONAME ; int CDRMHelper::SetAutomatedSilent(class TDesC16 const &, int)
	?SetAutomatedSilent@CDRMHelper@@QAEHABVTDesC8@@H@Z @ 69 NONAME ; int CDRMHelper::SetAutomatedSilent(class TDesC8 const &, int)
	?SetAutomatedType@CDRMHelper@@QAEHW4TDRMHelperAutomatedType@1@@Z @ 70 NONAME ; int CDRMHelper::SetAutomatedType(enum CDRMHelper::TDRMHelperAutomatedType)
	?SetCountLimitL@CDRMHelper@@QAEXI@Z @ 71 NONAME ; void CDRMHelper::SetCountLimitL(unsigned int)
	?SetPercentageLimitL@CDRMHelper@@QAEXI@Z @ 72 NONAME ; void CDRMHelper::SetPercentageLimitL(unsigned int)
	?SetTimeLimitL@CDRMHelper@@QAEXI@Z @ 73 NONAME ; void CDRMHelper::SetTimeLimitL(unsigned int)
	?ShowAutomatedNote@CDRMHelper@@QAEHAAVRFile@@@Z @ 74 NONAME ; int CDRMHelper::ShowAutomatedNote(class RFile &)
	?ShowAutomatedNote@CDRMHelper@@QAEHABVTDesC16@@@Z @ 75 NONAME ; int CDRMHelper::ShowAutomatedNote(class TDesC16 const &)
	?ShowAutomatedNote@CDRMHelper@@QAEHABVTDesC8@@@Z @ 76 NONAME ; int CDRMHelper::ShowAutomatedNote(class TDesC8 const &)
	?ShowDRMUINotification2L@CDRMHelper@@QAEHW4TDRMHelperNotificationID@1@ABVTDesC16@@@Z @ 77 NONAME ; int CDRMHelper::ShowDRMUINotification2L(enum CDRMHelper::TDRMHelperNotificationID, class TDesC16 const &)
	?ShowDRMUINotification2L@CDRMHelper@@QAEHW4TDRMHelperNotificationID@1@ABVTDesC8@@@Z @ 78 NONAME ; int CDRMHelper::ShowDRMUINotification2L(enum CDRMHelper::TDRMHelperNotificationID, class TDesC8 const &)
	?SupportedDRMMethods2@CDRMHelper@@QAEHAAHAAW4TDRMHelperOMALevel@1@@Z @ 79 NONAME ; int CDRMHelper::SupportedDRMMethods2(int &, enum CDRMHelper::TDRMHelperOMALevel &)
	?NewL@CDRMHelper@@SAPAV1@AAVCCoeEnv@@AAVRFs@@@Z @ 80 NONAME ; class CDRMHelper * CDRMHelper::NewL(class CCoeEnv &, class RFs &)
	?NewL@CDRMHelper@@SAPAV1@AAVRFs@@@Z @ 81 NONAME ; class CDRMHelper * CDRMHelper::NewL(class RFs &)
	?NewLC@CDRMHelper@@SAPAV1@AAVCCoeEnv@@AAVRFs@@@Z @ 82 NONAME ; class CDRMHelper * CDRMHelper::NewLC(class CCoeEnv &, class RFs &)
	?NewLC@CDRMHelper@@SAPAV1@AAVRFs@@@Z @ 83 NONAME ; class CDRMHelper * CDRMHelper::NewLC(class RFs &)
	?HandleErrorOrPreviewL@CDRMHelper@@QAEHHAAVRFile@@AAPAVHBufC8@@@Z @ 84 NONAME ; int CDRMHelper::HandleErrorOrPreviewL(int, class RFile &, class HBufC8 * &)
	?SetPreviewMediaType@CDRMHelper@@QAEHW4TDRMHelperPreviewMediaType@@@Z @ 85 NONAME ; int CDRMHelper::SetPreviewMediaType(enum TDRMHelperPreviewMediaType)
	?HandleErrorOrPreviewL@CDRMHelper@@QAEHHABVTDesC16@@AAPAVHBufC8@@@Z @ 86 NONAME ; int CDRMHelper::HandleErrorOrPreviewL(int, class TDesC16 const &, class HBufC8 * &)
	?GetRightsDetailsL@CDRMHelper@@QAEXAAVRFile@@KAAH1AAPAVCDRMRightsConstraints@@222@Z @ 87 NONAME ; void CDRMHelper::GetRightsDetailsL(class RFile &, unsigned long, int &, int &, class CDRMRightsConstraints * &, class CDRMRightsConstraints * &, class CDRMRightsConstraints * &, class CDRMRightsConstraints * &)

