EXPORTS
	??0DRMCommon@@IAE@XZ @ 1 NONAME ; DRMCommon::DRMCommon(void)
	??1DRMCommon@@UAE@XZ @ 2 NONAME ; DRMCommon::~DRMCommon(void)
	?CheckContentRights@DRMCommon@@QAEHABVTDesC8@@K@Z @ 3 NONAME ; int DRMCommon::CheckContentRights(class TDesC8 const &, unsigned long)
	?CheckFileRights@DRMCommon@@QAEHAAVRFile@@K@Z @ 4 NONAME ; int DRMCommon::CheckFileRights(class RFile &, unsigned long)
	?CheckFileRights@DRMCommon@@QAEHABVTDesC16@@K@Z @ 5 NONAME ; int DRMCommon::CheckFileRights(class TDesC16 const &, unsigned long)
	?Connect@DRMCommon@@QAEHXZ @ 6 NONAME ; int DRMCommon::Connect(void)
	?ConstructL@DRMCommon@@IAEXXZ @ 7 NONAME ; void DRMCommon::ConstructL(void)
	?DataTypesCount@DRMCommon@@QAEHAAH@Z @ 8 NONAME ; int DRMCommon::DataTypesCount(int &)
	?Disconnect@DRMCommon@@QAEHXZ @ 9 NONAME ; int DRMCommon::Disconnect(void)
	?GetActiveRights@DRMCommon@@QAEHABVTDesC8@@KAAPAVCDRMRights@@@Z @ 10 NONAME ; int DRMCommon::GetActiveRights(class TDesC8 const &, unsigned long, class CDRMRights * &)
	?GetContentHeader@DRMCommon@@QAEHABVTDesC8@@0AAPAVHBufC8@@@Z @ 11 NONAME ; int DRMCommon::GetContentHeader(class TDesC8 const &, class TDesC8 const &, class HBufC8 * &)
	?GetContentInfo@DRMCommon@@QAEHABVTDesC8@@AAW4TContentProtection@1@AAPAVHBufC8@@2AAI@Z @ 12 NONAME ; int DRMCommon::GetContentInfo(class TDesC8 const &, enum DRMCommon::TContentProtection &, class HBufC8 * &, class HBufC8 * &, unsigned int &)
	?GetContentURIList@DRMCommon@@QAEHAAPAV?$RPointerArray@VHBufC8@@@@@Z @ 13 NONAME ; int DRMCommon::GetContentURIList(class RPointerArray<class HBufC8> * &)
	?GetDetailedContentRights@DRMCommon@@QAEHABVTDesC8@@AAPAV?$RPointerArray@VCDRMRights@@@@@Z @ 14 NONAME ; int DRMCommon::GetDetailedContentRights(class TDesC8 const &, class RPointerArray<class CDRMRights> * &)
	?GetDetailedFileRights@DRMCommon@@QAEHAAVRFile@@AAPAV?$RPointerArray@VCDRMRights@@@@@Z @ 15 NONAME ; int DRMCommon::GetDetailedFileRights(class RFile &, class RPointerArray<class CDRMRights> * &)
	?GetDetailedFileRights@DRMCommon@@QAEHABVTDesC16@@AAPAV?$RPointerArray@VCDRMRights@@@@@Z @ 16 NONAME ; int DRMCommon::GetDetailedFileRights(class TDesC16 const &, class RPointerArray<class CDRMRights> * &)
	?GetFileHeader@DRMCommon@@QAEHAAVRFile@@ABVTDesC8@@AAPAVHBufC8@@@Z @ 17 NONAME ; int DRMCommon::GetFileHeader(class RFile &, class TDesC8 const &, class HBufC8 * &)
	?GetFileHeader@DRMCommon@@QAEHABV?$TBuf@$0BAA@@@ABVTDesC8@@AAPAVHBufC8@@@Z @ 18 NONAME ; int DRMCommon::GetFileHeader(class TBuf<256> const &, class TDesC8 const &, class HBufC8 * &)
	?GetFileInfo@DRMCommon@@QAEHAAVRFile@@AAW4TContentProtection@1@AAPAVHBufC8@@2AAI@Z @ 19 NONAME ; int DRMCommon::GetFileInfo(class RFile &, enum DRMCommon::TContentProtection &, class HBufC8 * &, class HBufC8 * &, unsigned int &)
	?GetFileInfo@DRMCommon@@QAEHABVTDesC16@@AAW4TContentProtection@1@AAPAVHBufC8@@2AAI@Z @ 20 NONAME ; int DRMCommon::GetFileInfo(class TDesC16 const &, enum DRMCommon::TContentProtection &, class HBufC8 * &, class HBufC8 * &, unsigned int &)
	?GetSingleRightsObject@DRMCommon@@QAEHABVTDesC8@@KAAPAVCDRMRights@@@Z @ 21 NONAME ; int DRMCommon::GetSingleRightsObject(class TDesC8 const &, unsigned long, class CDRMRights * &)
	?IsProtectedContent@DRMCommon@@QAEHABVTDesC8@@AAH@Z @ 22 NONAME ; int DRMCommon::IsProtectedContent(class TDesC8 const &, int &)
	?IsProtectedFile@DRMCommon@@QAEHAAVRFile@@AAH@Z @ 23 NONAME ; int DRMCommon::IsProtectedFile(class RFile &, int &)
	?IsProtectedFile@DRMCommon@@QAEHABVTDesC16@@AAH@Z @ 24 NONAME ; int DRMCommon::IsProtectedFile(class TDesC16 const &, int &)
	?MapErrorCode@DRMCommon@@IAEHH@Z @ 25 NONAME ; int DRMCommon::MapErrorCode(int)
	?NewL@DRMCommon@@SAPAV1@XZ @ 26 NONAME ; class DRMCommon * DRMCommon::NewL(void)
	?RegisterDataType@DRMCommon@@QAEHABVTDataType@@@Z @ 27 NONAME ; int DRMCommon::RegisterDataType(class TDataType const &)
	?ServerVersion@DRMCommon@@SA?AVTVersion@@XZ @ 28 NONAME ; class TVersion DRMCommon::ServerVersion(void)
	?SetContentHeader@DRMCommon@@QAEHAAPAVHBufC8@@ABVTDesC8@@1@Z @ 29 NONAME ; int DRMCommon::SetContentHeader(class HBufC8 * &, class TDesC8 const &, class TDesC8 const &)
	?SetFileHeader@DRMCommon@@QAEHAAVRFile@@ABVTDesC8@@1@Z @ 30 NONAME ; int DRMCommon::SetFileHeader(class RFile &, class TDesC8 const &, class TDesC8 const &)
	?SetFileHeader@DRMCommon@@QAEHABVTDesC16@@ABVTDesC8@@1@Z @ 31 NONAME ; int DRMCommon::SetFileHeader(class TDesC16 const &, class TDesC8 const &, class TDesC8 const &)
	?StaticDataTypesCount@DRMCommon@@QAEHAAH@Z @ 32 NONAME ; int DRMCommon::StaticDataTypesCount(int &)
	?SupportedDRMMethods@DRMCommon@@QAEHAAHAAW4TOMALevel@1@@Z @ 33 NONAME ; int DRMCommon::SupportedDRMMethods(int &, enum DRMCommon::TOMALevel &)
	?SupportedDataType@DRMCommon@@QAEHHAAVTDataType@@@Z @ 34 NONAME ; int DRMCommon::SupportedDataType(int, class TDataType &)
	?UnRegisterDataType@DRMCommon@@QAEHH@Z @ 35 NONAME ; int DRMCommon::UnRegisterDataType(int)
	?Version@DRMCommon@@SA?AVTVersion@@XZ @ 36 NONAME ; class TVersion DRMCommon::Version(void)
	?MergeParentAndChild@DRMCommon@@QAEXPAVCDRMRights@@@Z @ 37 NONAME ; void DRMCommon::MergeParentAndChild(class CDRMRights *)

