EXPORTS
	??0COma1DcfCreator@@IAE@XZ @ 1 NONAME ; COma1DcfCreator::COma1DcfCreator(void)
	??1CDRMMessageParser@@UAE@XZ @ 2 NONAME ; CDRMMessageParser::~CDRMMessageParser(void)
	??1CDrmProtectedRoParser@@UAE@XZ @ 3 NONAME ; CDrmProtectedRoParser::~CDrmProtectedRoParser(void)
	??1CDrmRightsParser@@UAE@XZ @ 4 NONAME ; CDrmRightsParser::~CDrmRightsParser(void)
	??1COma1DcfCreator@@UAE@XZ @ 5 NONAME ; COma1DcfCreator::~COma1DcfCreator(void)
	?ConstructL@COma1DcfCreator@@AAEXXZ @ 6 NONAME ; void COma1DcfCreator::ConstructL(void)
	?EncryptContentL@COma1DcfCreator@@QAEXAAPAVHBufC8@@ABVTDesC8@@PAVCDRMRights@@@Z @ 7 NONAME ; void COma1DcfCreator::EncryptContentL(class HBufC8 * &, class TDesC8 const &, class CDRMRights *)
	?EncryptContentToFileL@COma1DcfCreator@@QAEXABVTDesC8@@ABVTDesC16@@0PAVCDRMRights@@@Z @ 8 NONAME ; void COma1DcfCreator::EncryptContentToFileL(class TDesC8 const &, class TDesC16 const &, class TDesC8 const &, class CDRMRights *)
	?EncryptFileL@COma1DcfCreator@@QAEXABVTDesC16@@0ABVTDesC8@@PAVCDRMRights@@@Z @ 9 NONAME ; void COma1DcfCreator::EncryptFileL(class TDesC16 const &, class TDesC16 const &, class TDesC8 const &, class CDRMRights *)
	?EncryptFinalizeL@COma1DcfCreator@@QAEXXZ @ 10 NONAME ; void COma1DcfCreator::EncryptFinalizeL(void)
	?EncryptInitializeL@COma1DcfCreator@@QAEXAAVRWriteStream@@ABVTDesC8@@PAVCDRMRights@@@Z @ 11 NONAME ; void COma1DcfCreator::EncryptInitializeL(class RWriteStream &, class TDesC8 const &, class CDRMRights *)
	?EncryptUpdateL@COma1DcfCreator@@QAEXABVTDesC8@@@Z @ 12 NONAME ; void COma1DcfCreator::EncryptUpdateL(class TDesC8 const &)
	?FinalizeMessageParserL@CDRMMessageParser@@QAEXXZ @ 13 NONAME ; void CDRMMessageParser::FinalizeMessageParserL(void)
	?InitializeMessageParserL@CDRMMessageParser@@QAEXAAVRWriteStream@@@Z @ 14 NONAME ; void CDRMMessageParser::InitializeMessageParserL(class RWriteStream &)
	?NewL@CDRMMessageParser@@SAPAV1@XZ @ 15 NONAME ; class CDRMMessageParser * CDRMMessageParser::NewL(void)
	?NewL@CDrmProtectedRoParser@@SAPAV1@XZ @ 16 NONAME ; class CDrmProtectedRoParser * CDrmProtectedRoParser::NewL(void)
	?NewL@CDrmRightsParser@@SAPAV1@W4TParserType@1@@Z @ 17 NONAME ; class CDrmRightsParser * CDrmRightsParser::NewL(enum CDrmRightsParser::TParserType)
	?NewL@COma1DcfCreator@@SAPAV1@XZ @ 18 NONAME ; class COma1DcfCreator * COma1DcfCreator::NewL(void)
	?ParseAndStoreL@CDrmProtectedRoParser@@QAEXABVTDesC8@@AAV?$RPointerArray@VCDRMRights@@@@@Z @ 19 NONAME ; void CDrmProtectedRoParser::ParseAndStoreL(class TDesC8 const &, class RPointerArray<class CDRMRights> &)
	?ParseAndStoreL@CDrmRightsParser@@QAEXABVTDesC8@@AAV?$RPointerArray@VCDRMRights@@@@@Z @ 20 NONAME ; void CDrmRightsParser::ParseAndStoreL(class TDesC8 const &, class RPointerArray<class CDRMRights> &)
	?ProcessMessage@CDRMMessageParser@@QAEHAAPAVHBufC8@@@Z @ 21 NONAME ; int CDRMMessageParser::ProcessMessage(class HBufC8 * &)
	?ProcessMessageDataL@CDRMMessageParser@@QAEXABVTDesC8@@@Z @ 22 NONAME ; void CDRMMessageParser::ProcessMessageDataL(class TDesC8 const &)
	?ProcessRightsObject@CDRMMessageParser@@QAEHABVTDesC8@@AAV?$RPointerArray@VCDRMRights@@@@@Z @ 23 NONAME ; int CDRMMessageParser::ProcessRightsObject(class TDesC8 const &, class RPointerArray<class CDRMRights> &)
	?GetRiUrlL@CDrmProtectedRoParser@@QAEPAVHBufC8@@ABVTDesC8@@@Z @ 24 NONAME ; class HBufC8 * CDrmProtectedRoParser::GetRiUrlL(class TDesC8 const &)
	?GetDomainIdL@CDrmProtectedRoParser@@QAEPAVHBufC8@@ABVTDesC8@@@Z @ 25 NONAME ; class HBufC8 * CDrmProtectedRoParser::GetDomainIdL(class TDesC8 const &)
	?GetRiIdL@CDrmProtectedRoParser@@QAEPAVHBufC8@@ABVTDesC8@@@Z @ 26 NONAME ; class HBufC8 * CDrmProtectedRoParser::GetRiIdL(class TDesC8 const &)
	?ParseL@CDrmRightsParser@@QAEXABVTDesC8@@AAV?$RPointerArray@VCDRMRights@@@@@Z @ 27 NONAME ; void CDrmRightsParser::ParseL(class TDesC8 const &, class RPointerArray<class CDRMRights> &)

