EXPORTS
	??0CDRMConstraint@@IAE@XZ @ 1 NONAME ; CDRMConstraint::CDRMConstraint(void)
	??0CDRMPermission@@IAE@XZ @ 2 NONAME ; CDRMPermission::CDRMPermission(void)
	??0CDRMRights@@IAE@XZ @ 3 NONAME ; CDRMRights::CDRMRights(void)
	??0CDRMRightsConstraints@@IAE@XZ @ 4 NONAME ; CDRMRightsConstraints::CDRMRightsConstraints(void)
	??1CDRMAsset@@UAE@XZ @ 5 NONAME ; CDRMAsset::~CDRMAsset(void)
	??1CDRMConstraint@@UAE@XZ @ 6 NONAME ; CDRMConstraint::~CDRMConstraint(void)
	??1CDRMPermission@@UAE@XZ @ 7 NONAME ; CDRMPermission::~CDRMPermission(void)
	??1CDRMRights@@UAE@XZ @ 8 NONAME ; CDRMRights::~CDRMRights(void)
	??1CDRMRightsConstraints@@UAE@XZ @ 9 NONAME ; CDRMRightsConstraints::~CDRMRightsConstraints(void)
	??4CDRMRights@@QAEAAV0@AAV0@@Z @ 10 NONAME ; class CDRMRights & CDRMRights::operator=(class CDRMRights &)
	??4CDRMRightsConstraints@@QAEAAV0@AAV0@@Z @ 11 NONAME ; class CDRMRightsConstraints & CDRMRightsConstraints::operator=(class CDRMRightsConstraints &)
	?Child@CDRMPermission@@QBEHXZ @ 12 NONAME ; int CDRMPermission::Child(void) const
	?ConstraintForIntent@CDRMPermission@@QAEPAVCDRMConstraint@@W4TIntent@ContentAccess@@@Z @ 13 NONAME ; class CDRMConstraint * CDRMPermission::ConstraintForIntent(enum ContentAccess::TIntent)
	?ConstructL@CDRMRights@@IAEXXZ @ 14 NONAME ; void CDRMRights::ConstructL(void)
	?ConstructL@CDRMRightsConstraints@@IAEXXZ @ 15 NONAME ; void CDRMRightsConstraints::ConstructL(void)
	?Consume@CDRMConstraint@@QAEXABVTTime@@@Z @ 16 NONAME ; void CDRMConstraint::Consume(class TTime const &)
	?ConsumeRights@CDRMPermission@@QAEXW4TIntent@ContentAccess@@ABVTTime@@@Z @ 17 NONAME ; void CDRMPermission::ConsumeRights(enum ContentAccess::TIntent, class TTime const &)
	?DuplicateL@CDRMAsset@@QAEXAAV1@@Z @ 18 NONAME ; void CDRMAsset::DuplicateL(class CDRMAsset &)
	?DuplicateL@CDRMConstraint@@QAEXABV1@@Z @ 19 NONAME ; void CDRMConstraint::DuplicateL(class CDRMConstraint const &)
	?DuplicateL@CDRMPermission@@QAEXABV1@@Z @ 20 NONAME ; void CDRMPermission::DuplicateL(class CDRMPermission const &)
	?Expired@CDRMConstraint@@QBEHABVTTime@@@Z @ 21 NONAME ; int CDRMConstraint::Expired(class TTime const &) const
	?ExportL@CDRMPermission@@QBEPAVHBufC8@@XZ @ 22 NONAME ; class HBufC8 * CDRMPermission::ExportL(void) const
	?ExternalizeL@CDRMAsset@@QAEXAAVRWriteStream@@@Z @ 23 NONAME ; void CDRMAsset::ExternalizeL(class RWriteStream &)
	?ExternalizeL@CDRMConstraint@@QBEXAAVRWriteStream@@@Z @ 24 NONAME ; void CDRMConstraint::ExternalizeL(class RWriteStream &) const
	?ExternalizeL@CDRMPermission@@QBEXAAVRWriteStream@@@Z @ 25 NONAME ; void CDRMPermission::ExternalizeL(class RWriteStream &) const
	?ExternalizeL@CDRMRights@@UBEXAAVRWriteStream@@@Z @ 26 NONAME ; void CDRMRights::ExternalizeL(class RWriteStream &) const
	?FullRights@CDRMRightsConstraints@@QAEHXZ @ 27 NONAME ; int CDRMRightsConstraints::FullRights(void)
	?GetAddTime@CDRMRights@@QAEXAAVTTime@@@Z @ 28 NONAME ; void CDRMRights::GetAddTime(class TTime &)
	?GetAsset@CDRMRights@@QAEAAVCDRMAsset@@XZ @ 29 NONAME ; class CDRMAsset & CDRMRights::GetAsset(void)
	?GetConstraint@CDRMRightsConstraints@@QAEAAVCDRMConstraint@@XZ @ 30 NONAME ; class CDRMConstraint & CDRMRightsConstraints::GetConstraint(void)
	?GetConstraintInfo@CDRMRightsConstraints@@QAEHAAK0@Z @ 31 NONAME ; int CDRMRightsConstraints::GetConstraintInfo(unsigned long &, unsigned long &)
	?GetContentURI@CDRMRights@@QAEHAAPAVHBufC8@@@Z @ 32 NONAME ; int CDRMRights::GetContentURI(class HBufC8 * &)
	?GetCounters@CDRMRightsConstraints@@QAEHAAK0@Z @ 33 NONAME ; int CDRMRightsConstraints::GetCounters(unsigned long &, unsigned long &)
	?GetDisplayRight@CDRMRights@@QAEHAAPAVCDRMRightsConstraints@@@Z @ 34 NONAME ; int CDRMRights::GetDisplayRight(class CDRMRightsConstraints * &)
	?GetEndTime@CDRMRightsConstraints@@QAEHAAVTTime@@@Z @ 35 NONAME ; int CDRMRightsConstraints::GetEndTime(class TTime &)
	?GetExecuteRight@CDRMRights@@QAEHAAPAVCDRMRightsConstraints@@@Z @ 36 NONAME ; int CDRMRights::GetExecuteRight(class CDRMRightsConstraints * &)
	?GetExpirationDetails@CDRMRights@@QAEHKAAVTTime@@AAH@Z @ 37 NONAME ; int CDRMRights::GetExpirationDetails(unsigned long, class TTime &, int &)
	?GetExpirationDetails@CDRMRightsConstraints@@QAEHAAVTTime@@AAH@Z @ 38 NONAME ; int CDRMRightsConstraints::GetExpirationDetails(class TTime &, int &)
	?GetInterval@CDRMRightsConstraints@@QAEHAAVTTimeIntervalSeconds@@@Z @ 39 NONAME ; int CDRMRightsConstraints::GetInterval(class TTimeIntervalSeconds &)
	?GetIntervalStart@CDRMRightsConstraints@@QAEHAAVTTime@@@Z @ 40 NONAME ; int CDRMRightsConstraints::GetIntervalStart(class TTime &)
	?GetLocalID@CDRMRights@@QAEKXZ @ 41 NONAME ; unsigned long CDRMRights::GetLocalID(void)
	?GetPermission@CDRMRights@@QAEAAVCDRMPermission@@XZ @ 42 NONAME ; class CDRMPermission & CDRMRights::GetPermission(void)
	?GetPlayRight@CDRMRights@@QAEHAAPAVCDRMRightsConstraints@@@Z @ 43 NONAME ; int CDRMRights::GetPlayRight(class CDRMRightsConstraints * &)
	?GetPrintRight@CDRMRights@@QAEHAAPAVCDRMRightsConstraints@@@Z @ 44 NONAME ; int CDRMRights::GetPrintRight(class CDRMRightsConstraints * &)
	?GetRightsInfo@CDRMRights@@QAEHKAAW4TRestriction@1@AAW4TExpiration@1@AAK@Z @ 45 NONAME ; int CDRMRights::GetRightsInfo(unsigned long, enum CDRMRights::TRestriction &, enum CDRMRights::TExpiration &, unsigned long &)
	?GetStartTime@CDRMRightsConstraints@@QAEHAAVTTime@@@Z @ 46 NONAME ; int CDRMRightsConstraints::GetStartTime(class TTime &)
	?ImportL@CDRMPermission@@QAEXABVTDesC8@@@Z @ 47 NONAME ; void CDRMPermission::ImportL(class TDesC8 const &)
	?InternalizeL@CDRMAsset@@QAEXAAVRReadStream@@@Z @ 48 NONAME ; void CDRMAsset::InternalizeL(class RReadStream &)
	?InternalizeL@CDRMConstraint@@QAEXAAVRReadStream@@@Z @ 49 NONAME ; void CDRMConstraint::InternalizeL(class RReadStream &)
	?InternalizeL@CDRMPermission@@QAEXAAVRReadStream@@@Z @ 50 NONAME ; void CDRMPermission::InternalizeL(class RReadStream &)
	?InternalizeL@CDRMRights@@UAEXAAVRReadStream@@@Z @ 51 NONAME ; void CDRMRights::InternalizeL(class RReadStream &)
	?IsPreview@CDRMRightsConstraints@@QAEHXZ @ 52 NONAME ; int CDRMRightsConstraints::IsPreview(void)
	?Merge@CDRMConstraint@@QAEXABV1@@Z @ 53 NONAME ; void CDRMConstraint::Merge(class CDRMConstraint const &)
	?NewL@CDRMAsset@@SAPAV1@XZ @ 54 NONAME ; class CDRMAsset * CDRMAsset::NewL(void)
	?NewL@CDRMConstraint@@SAPAV1@XZ @ 55 NONAME ; class CDRMConstraint * CDRMConstraint::NewL(void)
	?NewL@CDRMPermission@@SAPAV1@XZ @ 56 NONAME ; class CDRMPermission * CDRMPermission::NewL(void)
	?NewL@CDRMRights@@SAPAV1@XZ @ 57 NONAME ; class CDRMRights * CDRMRights::NewL(void)
	?NewL@CDRMRightsConstraints@@SAPAV1@XZ @ 58 NONAME ; class CDRMRightsConstraints * CDRMRightsConstraints::NewL(void)
	?NewLC@CDRMAsset@@SAPAV1@XZ @ 59 NONAME ; class CDRMAsset * CDRMAsset::NewLC(void)
	?NewLC@CDRMConstraint@@SAPAV1@XZ @ 60 NONAME ; class CDRMConstraint * CDRMConstraint::NewLC(void)
	?NewLC@CDRMPermission@@SAPAV1@XZ @ 61 NONAME ; class CDRMPermission * CDRMPermission::NewLC(void)
	?SetAddTime@CDRMRights@@QAEXVTTime@@@Z @ 62 NONAME ; void CDRMRights::SetAddTime(class TTime)
	?SetAssetL@CDRMRights@@QAEXAAVCDRMAsset@@@Z @ 63 NONAME ; void CDRMRights::SetAssetL(class CDRMAsset &)
	?SetConstraint@CDRMRightsConstraints@@QAEXAAVCDRMConstraint@@@Z @ 64 NONAME ; void CDRMRightsConstraints::SetConstraint(class CDRMConstraint &)
	?SetContentURI@CDRMRights@@QAEHPAVHBufC8@@@Z @ 65 NONAME ; int CDRMRights::SetContentURI(class HBufC8 *)
	?SetContentURIAndLocalID@CDRMRights@@QAEHPAVHBufC8@@K@Z @ 66 NONAME ; int CDRMRights::SetContentURIAndLocalID(class HBufC8 *, unsigned long)
	?SetCounters@CDRMRightsConstraints@@QAEHKK@Z @ 67 NONAME ; int CDRMRightsConstraints::SetCounters(unsigned long, unsigned long)
	?SetDisplayRight@CDRMRights@@QAEHPAVCDRMRightsConstraints@@@Z @ 68 NONAME ; int CDRMRights::SetDisplayRight(class CDRMRightsConstraints *)
	?SetEndTime@CDRMRightsConstraints@@QAEHVTTime@@@Z @ 69 NONAME ; int CDRMRightsConstraints::SetEndTime(class TTime)
	?SetExecuteRight@CDRMRights@@QAEHPAVCDRMRightsConstraints@@@Z @ 70 NONAME ; int CDRMRights::SetExecuteRight(class CDRMRightsConstraints *)
	?SetInterval@CDRMRightsConstraints@@QAEHVTTimeIntervalSeconds@@@Z @ 71 NONAME ; int CDRMRightsConstraints::SetInterval(class TTimeIntervalSeconds)
	?SetIntervalStart@CDRMRightsConstraints@@QAEHVTTime@@@Z @ 72 NONAME ; int CDRMRightsConstraints::SetIntervalStart(class TTime)
	?SetLocalID@CDRMRights@@QAEHK@Z @ 73 NONAME ; int CDRMRights::SetLocalID(unsigned long)
	?SetPermissionL@CDRMRights@@QAEXAAVCDRMPermission@@@Z @ 74 NONAME ; void CDRMRights::SetPermissionL(class CDRMPermission &)
	?SetPlayRight@CDRMRights@@QAEHPAVCDRMRightsConstraints@@@Z @ 75 NONAME ; int CDRMRights::SetPlayRight(class CDRMRightsConstraints *)
	?SetPrintRight@CDRMRights@@QAEHPAVCDRMRightsConstraints@@@Z @ 76 NONAME ; int CDRMRights::SetPrintRight(class CDRMRightsConstraints *)
	?SetStartTime@CDRMRightsConstraints@@QAEHVTTime@@@Z @ 77 NONAME ; int CDRMRightsConstraints::SetStartTime(class TTime)
	?Size@CDRMConstraint@@QBEHXZ @ 78 NONAME ; int CDRMConstraint::Size(void) const
	?Size@CDRMPermission@@QBEHXZ @ 79 NONAME ; int CDRMPermission::Size(void) const
	?Stateful@CDRMConstraint@@QBEHXZ @ 80 NONAME ; int CDRMConstraint::Stateful(void) const
	?Stateful@CDRMPermission@@QBEHXZ @ 81 NONAME ; int CDRMPermission::Stateful(void) const
	?TopLevelConstraint@CDRMPermission@@QAEPAVCDRMConstraint@@XZ @ 82 NONAME ; class CDRMConstraint * CDRMPermission::TopLevelConstraint(void)
	?Expired@CDRMPermission@@QAEHABVTTime@@@Z @ 83 NONAME ; int CDRMPermission::Expired(class TTime const &)
	?Valid@CDRMConstraint@@QBEHABVTTime@@ABV?$RPointerArray@VHBufC8@@@@AAK@Z @ 84 NONAME ; int CDRMConstraint::Valid(class TTime const &, class RPointerArray<class HBufC8> const &, unsigned long &) const
	?Valid@CDRMPermission@@QBEHABVTTime@@ABV?$RPointerArray@VHBufC8@@@@AAKW4TRightsType@@@Z @ 85 NONAME ; int CDRMPermission::Valid(class TTime const &, class RPointerArray<class HBufC8> const &, unsigned long &, enum TRightsType) const
	?GetAccumulated@CDRMRightsConstraints@@QAEHAAVTTimeIntervalSeconds@@@Z @ 86 NONAME ; int CDRMRightsConstraints::GetAccumulated(class TTimeIntervalSeconds &)
	?GetTimedCounters@CDRMRightsConstraints@@QAEHAAK0@Z @ 87 NONAME ; int CDRMRightsConstraints::GetTimedCounters(unsigned long &, unsigned long &)
	?Merge@CDRMPermission@@QAEXABV1@@Z @ 88 NONAME ; void CDRMPermission::Merge(class CDRMPermission const &)
	?Merge@CDRMRights@@QAEXABV1@@Z @ 89 NONAME ; void CDRMRights::Merge(class CDRMRights const &)
	?SoftwareConstrained@CDRMPermission@@QBEHXZ @ 90 NONAME ; int CDRMPermission::SoftwareConstrained(void) const

