EXPORTS
	??0RUpnpAVCPEngineMSClient@@QAE@XZ @ 1 NONAME ; RUpnpAVCPEngineMSClient::RUpnpAVCPEngineMSClient(void)
	??0RUpnpAVCPEngineRFSClient@@QAE@XZ @ 2 NONAME ; RUpnpAVCPEngineRFSClient::RUpnpAVCPEngineRFSClient(void)
	?AlbumL@CUpnpMetadata@@QAE?AVTPtrC8@@XZ @ 3 NONAME ; class TPtrC8 CUpnpMetadata::AlbumL(void)
	?ArtistL@CUpnpMetadata@@QAE?AVTPtrC8@@XZ @ 4 NONAME ; class TPtrC8 CUpnpMetadata::ArtistL(void)
	?AsXmlL@CUpnpMetadata@@QAEAAVRXmlEngDocument@@XZ @ 5 NONAME ; class RXmlEngDocument & CUpnpMetadata::AsXmlL(void)
	?ClassL@CUpnpMetadata@@QAE?AVTPtrC8@@XZ @ 6 NONAME ; class TPtrC8 CUpnpMetadata::ClassL(void)
	?CommitL@CUpnpMetadata@@QAEXAAVTRequestStatus@@@Z @ 7 NONAME ; void CUpnpMetadata::CommitL(class TRequestStatus &)
	?CommitL@CUpnpMetadata@@QAEXXZ @ 8 NONAME ; void CUpnpMetadata::CommitL(void)
	?Connect@RUpnpAVCPEngineClient@@UAEHXZ @ 9 NONAME ; int RUpnpAVCPEngineClient::Connect(void)
	?CreateFileL@RUpnpAVCPEngineRFSClient@@QAEHABVTDesC8@@ABVTDesC16@@@Z @ 10 NONAME ; int RUpnpAVCPEngineRFSClient::CreateFileL(class TDesC8 const &, class TDesC16 const &)
	?CreatorL@CUpnpMetadata@@QAE?AVTPtrC8@@XZ @ 11 NONAME ; class TPtrC8 CUpnpMetadata::CreatorL(void)
	?DeleteDirectoryL@RUpnpAVCPEngineRFSClient@@QAEHABVTDesC8@@ABVTDesC16@@@Z @ 12 NONAME ; int RUpnpAVCPEngineRFSClient::DeleteDirectoryL(class TDesC8 const &, class TDesC16 const &)
	?DeleteFileL@RUpnpAVCPEngineRFSClient@@QAEHABVTDesC8@@ABVTDesC16@@@Z @ 13 NONAME ; int RUpnpAVCPEngineRFSClient::DeleteFileL(class TDesC8 const &, class TDesC16 const &)
	?FetchL@CUpnpMetadata@@QAEXABVTDesC16@@@Z @ 14 NONAME ; void CUpnpMetadata::FetchL(class TDesC16 const &)
	?FetchL@CUpnpMetadata@@QAEXABVTDesC16@@AAVTRequestStatus@@@Z @ 15 NONAME ; void CUpnpMetadata::FetchL(class TDesC16 const &, class TRequestStatus &)
	?GenreL@CUpnpMetadata@@QAE?AVTPtrC8@@XZ @ 16 NONAME ; class TPtrC8 CUpnpMetadata::GenreL(void)
	?GetDeviceListL@RUpnpAVCPEngineMSClient@@QAEHAAV?$RArray@VTAVDevice@@@@@Z @ 17 NONAME ; int RUpnpAVCPEngineMSClient::GetDeviceListL(class RArray<class TAVDevice> &)
	?GetDirectoryAttributeL@RUpnpAVCPEngineRFSClient@@QAEHABVTDesC8@@ABVTDesC16@@AAPAVCRsfwDirEntAttr@@@Z @ 18 NONAME ; int RUpnpAVCPEngineRFSClient::GetDirectoryAttributeL(class TDesC8 const &, class TDesC16 const &, class CRsfwDirEntAttr * &)
	?GetDirectoryL@RUpnpAVCPEngineRFSClient@@QAEHABVTDesC8@@ABVTDesC16@@AAV?$RPointerArray@VCRsfwDirEnt@@@@@Z @ 19 NONAME ; int RUpnpAVCPEngineRFSClient::GetDirectoryL(class TDesC8 const &, class TDesC16 const &, class RPointerArray<class CRsfwDirEnt> &)
	?GetFileAttributeL@RUpnpAVCPEngineRFSClient@@QAEHABVTDesC8@@ABVTDesC16@@AAPAVCRsfwDirEntAttr@@@Z @ 20 NONAME ; int RUpnpAVCPEngineRFSClient::GetFileAttributeL(class TDesC8 const &, class TDesC16 const &, class CRsfwDirEntAttr * &)
	?GetFileL@RUpnpAVCPEngineRFSClient@@QAEHABVTDesC8@@ABVTDesC16@@1HHIAAH@Z @ 21 NONAME ; int RUpnpAVCPEngineRFSClient::GetFileL(class TDesC8 const &, class TDesC16 const &, class TDesC16 const &, int, int, unsigned int, int &)
	?IdL@CUpnpMetadata@@QAE?AVTPtrC8@@XZ @ 22 NONAME ; class TPtrC8 CUpnpMetadata::IdL(void)
	?MakeDirectoryL@RUpnpAVCPEngineRFSClient@@QAEHABVTDesC8@@ABVTDesC16@@@Z @ 23 NONAME ; int RUpnpAVCPEngineRFSClient::MakeDirectoryL(class TDesC8 const &, class TDesC16 const &)
	?NewL@CUpnpMetadata@@SAPAV1@AAVRUpnpAVCPEngineMSClient@@@Z @ 24 NONAME ; class CUpnpMetadata * CUpnpMetadata::NewL(class RUpnpAVCPEngineMSClient &)
	?PutFileL@RUpnpAVCPEngineRFSClient@@QAEHABVTDesC8@@ABVTDesC16@@1@Z @ 25 NONAME ; int RUpnpAVCPEngineRFSClient::PutFileL(class TDesC8 const &, class TDesC16 const &, class TDesC16 const &)
	?SetAlbumL@CUpnpMetadata@@QAEXABVTDesC8@@@Z @ 26 NONAME ; void CUpnpMetadata::SetAlbumL(class TDesC8 const &)
	?SetArtistL@CUpnpMetadata@@QAEXABVTDesC8@@@Z @ 27 NONAME ; void CUpnpMetadata::SetArtistL(class TDesC8 const &)
	?SetClassL@CUpnpMetadata@@QAEXABVTDesC8@@@Z @ 28 NONAME ; void CUpnpMetadata::SetClassL(class TDesC8 const &)
	?SetCreatorL@CUpnpMetadata@@QAEXABVTDesC8@@@Z @ 29 NONAME ; void CUpnpMetadata::SetCreatorL(class TDesC8 const &)
	?SetGenreL@CUpnpMetadata@@QAEXABVTDesC8@@@Z @ 30 NONAME ; void CUpnpMetadata::SetGenreL(class TDesC8 const &)
	?SetTitleL@CUpnpMetadata@@QAEXABVTDesC8@@@Z @ 31 NONAME ; void CUpnpMetadata::SetTitleL(class TDesC8 const &)
	?TitleL@CUpnpMetadata@@QAE?AVTPtrC8@@XZ @ 32 NONAME ; class TPtrC8 CUpnpMetadata::TitleL(void)

