EXPORTS
	?trUtf8@FtuWizard@@SA?AVQString@@PBD0@Z @ 1 NONAME ; class QString FtuWizard::trUtf8(char const *, char const *)
	?qt_metacall@FtuWizard@@UAEHW4Call@QMetaObject@@HPAPAX@Z @ 2 NONAME ; int FtuWizard::qt_metacall(enum QMetaObject::Call, int, void * *)
	?tr@FtuWizard@@SA?AVQString@@PBD0H@Z @ 3 NONAME ; class QString FtuWizard::tr(char const *, char const *, int)
	?staticMetaObject@FtuWizard@@2UQMetaObject@@B @ 4 NONAME ; struct QMetaObject const FtuWizard::staticMetaObject
	?overlayAdded@FtuWizard@@IAEXPAV1@PAVQGraphicsWidget@@@Z @ 5 NONAME ; void FtuWizard::overlayAdded(class FtuWizard *, class QGraphicsWidget *)
	?shutdownCompleted@FtuWizard@@IAEXPAV1@@Z @ 6 NONAME ; void FtuWizard::shutdownCompleted(class FtuWizard *)
	?qt_metacast@FtuWizard@@UAEPAXPBD@Z @ 7 NONAME ; void * FtuWizard::qt_metacast(char const *)
	?overlayRemoved@FtuWizard@@IAEXPAV1@PAVQGraphicsWidget@@@Z @ 8 NONAME ; void FtuWizard::overlayRemoved(class FtuWizard *, class QGraphicsWidget *)
	?metaObject@FtuWizard@@UBEPBUQMetaObject@@XZ @ 9 NONAME ; struct QMetaObject const * FtuWizard::metaObject(void) const
	?tr@FtuWizard@@SA?AVQString@@PBD0@Z @ 10 NONAME ; class QString FtuWizard::tr(char const *, char const *)
	?getStaticMetaObject@FtuWizard@@SAABUQMetaObject@@XZ @ 11 NONAME ; struct QMetaObject const & FtuWizard::getStaticMetaObject(void)
	?progressUpdated@FtuWizard@@IAEXPAV1@_NH@Z @ 12 NONAME ; void FtuWizard::progressUpdated(class FtuWizard *, bool, int)
	?viewChanged@FtuWizard@@IAEXPAV1@PAVQGraphicsWidget@@@Z @ 13 NONAME ; void FtuWizard::viewChanged(class FtuWizard *, class QGraphicsWidget *)
	?updateMainMenu@FtuWizard@@IAEXPAV1@PAVHbMenu@@@Z @ 14 NONAME ; void FtuWizard::updateMainMenu(class FtuWizard *, class HbMenu *)
	??1FtuWizard@@UAE@XZ @ 15 NONAME ; FtuWizard::~FtuWizard(void)
	??_EFtuWizard@@UAE@I@Z @ 16 NONAME ; FtuWizard::~FtuWizard(unsigned int)
	?wizardDeactivated@FtuWizard@@IAEXPAV1@@Z @ 17 NONAME ; void FtuWizard::wizardDeactivated(class FtuWizard *)
	?wizardInitialized@FtuWizard@@IAEXPAV1@_N@Z @ 18 NONAME ; void FtuWizard::wizardInitialized(class FtuWizard *, bool)
	??0FtuWizard@@IAE@XZ @ 19 NONAME ; FtuWizard::FtuWizard(void)
	?infoTextUpdated@FtuWizard@@IAEXPAV1@VQString@@@Z @ 20 NONAME ; void FtuWizard::infoTextUpdated(class FtuWizard *, class QString)
	?trUtf8@FtuWizard@@SA?AVQString@@PBD0H@Z @ 21 NONAME ; class QString FtuWizard::trUtf8(char const *, char const *, int)
	?wizardSettingsChanged@FtuWizard@@IAEXPAV1@@Z @ 22 NONAME ; void FtuWizard::wizardSettingsChanged(class FtuWizard *)

