EXPORTS
	_ZN12CTzLocalizer10GetCitiesLENS_12TTzSortOrderE @ 1 NONAME
	_ZN12CTzLocalizer10GetCitiesLERK16CTzLocalizedCityNS_12TTzSortOrderE @ 2 NONAME
	_ZN12CTzLocalizer10GetCitiesLERK20CTzLocalizedTimeZoneNS_12TTzSortOrderE @ 3 NONAME
	_ZN12CTzLocalizer10GetCitiesLEiNS_12TTzSortOrderE @ 4 NONAME
	_ZN12CTzLocalizer11RemoveCityLEP16CTzLocalizedCity @ 5 NONAME
	_ZN12CTzLocalizer12SetTimeZoneLEi @ 6 NONAME
	_ZN12CTzLocalizer13CheckLanguageEv @ 7 NONAME
	_ZN12CTzLocalizer22GetFrequentlyUsedZoneLEN20CTzLocalizedTimeZone21TTzFrequentlyUsedZoneE @ 8 NONAME
	_ZN12CTzLocalizer22SetFrequentlyUsedZoneLERK16CTzLocalizedCityN20CTzLocalizedTimeZone21TTzFrequentlyUsedZoneE @ 9 NONAME
	_ZN12CTzLocalizer22SetFrequentlyUsedZoneLERK20CTzLocalizedTimeZoneNS0_21TTzFrequentlyUsedZoneE @ 10 NONAME
	_ZN12CTzLocalizer22SetFrequentlyUsedZoneLEiN20CTzLocalizedTimeZone21TTzFrequentlyUsedZoneE @ 11 NONAME
	_ZN12CTzLocalizer15FindCityByNameLERK7TDesC16i @ 12 NONAME
	_ZN12CTzLocalizer16GetAllTimeZonesLENS_12TTzSortOrderE @ 13 NONAME
	_ZN12CTzLocalizer17GetCitiesInGroupLERK16CTzLocalizedCityNS_12TTzSortOrderE @ 14 NONAME
	_ZN12CTzLocalizer17GetCitiesInGroupLERK21CTzLocalizedCityGroupNS_12TTzSortOrderE @ 15 NONAME
	_ZN12CTzLocalizer17GetCitiesInGroupLEiNS_12TTzSortOrderE @ 16 NONAME
	_ZN12CTzLocalizer26GetFrequentlyUsedZoneCityLEN20CTzLocalizedTimeZone21TTzFrequentlyUsedZoneE @ 17 NONAME
	_ZN12CTzLocalizer19FindTimeZoneByNameLERK7TDesC16 @ 18 NONAME
	_ZN12CTzLocalizer20FindCityGroupByNameLERK7TDesC16 @ 19 NONAME
	_ZN12CTzLocalizer23GetCitiesWithUTCOffsetLEiNS_12TTzSortOrderE @ 20 NONAME
	_ZN12CTzLocalizer26GetTimeZonesWithUTCOffsetLEiNS_12TTzSortOrderE @ 21 NONAME
	_ZN12CTzLocalizer4NewLEv @ 22 NONAME
	_ZN12CTzLocalizer5NewLCEv @ 23 NONAME
	_ZN12CTzLocalizer8AddCityLEiRK7TDesC16i @ 24 NONAME
	_ZN12CTzLocalizerD0Ev @ 25 NONAME
	_ZN12CTzLocalizerD1Ev @ 26 NONAME
	_ZN12CTzLocalizerD2Ev @ 27 NONAME
	_ZN21CTzLocalizedCityArray4FindEP16CTzLocalizedCity17TIdentityRelationIS0_E @ 28 NONAME
	_ZN21CTzLocalizedCityArray4NewLEv @ 29 NONAME
	_ZN21CTzLocalizedCityArray4SortE12TLinearOrderI16CTzLocalizedCityE @ 30 NONAME
	_ZN21CTzLocalizedCityArray5NewLCEv @ 31 NONAME
	_ZN21CTzLocalizedCityArray6RemoveEi @ 32 NONAME
	_ZN21CTzLocalizedCityArray7AppendLEP16CTzLocalizedCity @ 33 NONAME
	_ZN25CTzLocalizedTimeZoneArray4FindEP20CTzLocalizedTimeZone17TIdentityRelationIS0_E @ 34 NONAME
	_ZN25CTzLocalizedTimeZoneArray4NewLEv @ 35 NONAME
	_ZN25CTzLocalizedTimeZoneArray4SortE12TLinearOrderI20CTzLocalizedTimeZoneE @ 36 NONAME
	_ZN25CTzLocalizedTimeZoneArray5NewLCEv @ 37 NONAME
	_ZN25CTzLocalizedTimeZoneArray6RemoveEi @ 38 NONAME
	_ZN25CTzLocalizedTimeZoneArray7AppendLEP20CTzLocalizedTimeZone @ 39 NONAME
	_ZN26CTzLocalizedCityGroupArray4FindEP21CTzLocalizedCityGroup17TIdentityRelationIS0_E @ 40 NONAME
	_ZN26CTzLocalizedCityGroupArray4NewLEv @ 41 NONAME
	_ZN26CTzLocalizedCityGroupArray4SortE12TLinearOrderI21CTzLocalizedCityGroupE @ 42 NONAME
	_ZN26CTzLocalizedCityGroupArray5NewLCEv @ 43 NONAME
	_ZN26CTzLocalizedCityGroupArray6RemoveEi @ 44 NONAME
	_ZN26CTzLocalizedCityGroupArray7AppendLEP21CTzLocalizedCityGroup @ 45 NONAME
	_ZNK12CTzLocalizer13GetCityGroupLERK16CTzLocalizedCity @ 46 NONAME
	_ZNK12CTzLocalizer13GetCityGroupLEi @ 47 NONAME
	_ZNK12CTzLocalizer15GetDefaultCityLERK16CTzLocalizedCity @ 48 NONAME
	_ZNK12CTzLocalizer15GetDefaultCityLERK20CTzLocalizedTimeZone @ 49 NONAME
	_ZNK12CTzLocalizer15GetDefaultCityLEi @ 50 NONAME
	_ZNK12CTzLocalizer17GetAllCityGroupsLENS_12TTzSortOrderE @ 51 NONAME
	_ZNK12CTzLocalizer21GetLocalizedTimeZoneLERK16CTzLocalizedCity @ 52 NONAME
	_ZNK12CTzLocalizer21GetLocalizedTimeZoneLEi @ 53 NONAME
	_ZNK16CTzLocalizedCity10TimeZoneIdEv @ 54 NONAME
	_ZNK16CTzLocalizedCity4NameEv @ 55 NONAME
	_ZNK16CTzLocalizedCity7GroupIdEv @ 56 NONAME
	_ZNK20CTzLocalizedTimeZone10TimeZoneIdEv @ 57 NONAME
	_ZNK20CTzLocalizedTimeZone12DaylightNameEv @ 58 NONAME
	_ZNK20CTzLocalizedTimeZone12StandardNameEv @ 59 NONAME
	_ZNK20CTzLocalizedTimeZone17ShortDaylightNameEv @ 60 NONAME
	_ZNK20CTzLocalizedTimeZone17ShortStandardNameEv @ 61 NONAME
	_ZNK21CTzLocalizedCityArray2AtEi @ 62 NONAME
	_ZNK21CTzLocalizedCityArray5CountEv @ 63 NONAME
	_ZNK21CTzLocalizedCityGroup2IdEv @ 64 NONAME
	_ZNK21CTzLocalizedCityGroup4NameEv @ 65 NONAME
	_ZNK25CTzLocalizedTimeZoneArray2AtEi @ 66 NONAME
	_ZNK25CTzLocalizedTimeZoneArray5CountEv @ 67 NONAME
	_ZNK26CTzLocalizedCityGroupArray2AtEi @ 68 NONAME
	_ZNK26CTzLocalizedCityGroupArray5CountEv @ 69 NONAME
	_ZTI12CTzLocalizer @ 70 NONAME ; #<TI>#
	_ZTI16CTzLocalizedCity @ 71 NONAME ; #<TI>#
	_ZTI20CTzLocalizedTimeZone @ 72 NONAME ; #<TI>#
	_ZTI21CTzLocalizedCityGroup @ 73 NONAME ; #<TI>#
	_ZTI25CTzLocalizationDbAccessor @ 74 NONAME ; #<TI>#
	_ZTI29CTzLocalizationResourceReader @ 75 NONAME ; #<TI>#
	_ZTI34CTzLocalizationPersistedDataReader @ 76 NONAME ABSENT; #<TI>#
	_ZTI34CTzLocalizationPersistedDataWriter @ 77 NONAME ABSENT; #<TI>#
	_ZTV12CTzLocalizer @ 78 NONAME ; #<VT>#
	_ZTV16CTzLocalizedCity @ 79 NONAME ; #<VT>#
	_ZTV20CTzLocalizedTimeZone @ 80 NONAME ; #<VT>#
	_ZTV21CTzLocalizedCityGroup @ 81 NONAME ; #<VT>#
	_ZTV25CTzLocalizationDbAccessor @ 82 NONAME ; #<VT>#
	_ZTV29CTzLocalizationResourceReader @ 83 NONAME ; #<VT>#
	_ZTV34CTzLocalizationPersistedDataReader @ 84 NONAME ABSENT; #<VT>#
	_ZTV34CTzLocalizationPersistedDataWriter @ 85 NONAME ABSENT; #<VT>#
	_ZN12CTzLocalizer13SetDataSourceEj @ 86 NONAME
	_ZTI29CTzLocalizationUserDataReader @ 87 NONAME ABSENT
	_ZTV29CTzLocalizationUserDataReader @ 88 NONAME ABSENT

