EXPORTS
	_ZN10CDRMHelper16SetAutomatedTypeENS_23TDRMHelperAutomatedTypeE @ 1 NONAME
	_ZTV27CDRMHelperRightsConstraints @ 2 NONAME ; #<VT>#
	_ZN10CDRMHelper11HasInfoUrlLER7TDesC16RP6HBufC8 @ 3 NONAME
	_ZN10CDRMHelper11HasInfoUrlLERN13ContentAccess5CDataERP6HBufC8 @ 4 NONAME
	_ZN10CDRMHelper11HasPreviewLER7TDesC16RP6HBufC8 @ 5 NONAME
	_ZN10CDRMHelper11HasPreviewLERN13ContentAccess5CDataERP6HBufC8 @ 6 NONAME
	_ZN10CDRMHelper12ConsumeFile2ER5RFilemNS_23TDRMHelperConsumeActionE @ 7 NONAME
	_ZN10CDRMHelper12ConsumeFile2ERK7TDesC16mNS_23TDRMHelperConsumeActionE @ 8 NONAME
	_ZN10CDRMHelper12HandleErrorLEiR5RFile @ 9 NONAME
	_ZN10CDRMHelper12HandleErrorLEiRK6TDesC8 @ 10 NONAME
	_ZN10CDRMHelper12HandleErrorLEiRK7TDesC16 @ 11 NONAME
	_ZN10CDRMHelper12IndicateIdleEv @ 12 NONAME
	_ZN10CDRMHelper12OpenInfoUrlLER7TDesC16 @ 13 NONAME
	_ZN10CDRMHelper12OpenInfoUrlLERN13ContentAccess5CDataE @ 14 NONAME
	_ZN10CDRMHelper12SetAutomatedER5RFile @ 15 NONAME
	_ZN10CDRMHelper12SetAutomatedERK6TDesC8 @ 16 NONAME
	_ZN10CDRMHelper12SetAutomatedERK7TDesC16 @ 17 NONAME
	_ZN10CDRMHelper13SetTimeLimitLEj @ 18 NONAME
	_ZN10CDRMHelper14DataTypesCountERi @ 19 NONAME
	_ZN10CDRMHelper14SetCountLimitLEj @ 20 NONAME
	_ZN10CDRMHelper15CanSetAutomatedER5RFileRi @ 21 NONAME
	_ZN10CDRMHelper15CanSetAutomatedERK6TDesC8Ri @ 22 NONAME
	_ZN10CDRMHelper15CanSetAutomatedERK7TDesC16Ri @ 23 NONAME
	_ZN10CDRMHelper15RemoveAutomatedER5RFile @ 24 NONAME
	_ZN10CDRMHelper15RemoveAutomatedERK6TDesC8 @ 25 NONAME
	_ZN10CDRMHelper15RemoveAutomatedERK7TDesC16 @ 26 NONAME
	_ZN10CDRMHelper16ActivateContentLER7TDesC16 @ 27 NONAME
	_ZN10CDRMHelper16ActivateContentLERN13ContentAccess5CDataE @ 28 NONAME
	_ZN10CDRMHelper16RegisterDataTypeERK9TDataType @ 29 NONAME
	_ZN10CDRMHelper17GetContentURIListERP13RPointerArrayI6HBufC8E @ 30 NONAME
	_ZN10CDRMHelper17GetPreviewRightsLER7TDesC16 @ 31 NONAME
	_ZN10CDRMHelper17GetPreviewRightsLERN13ContentAccess5CDataE @ 32 NONAME
	_ZN10CDRMHelper17GetRightsDetailsLER5RFilemRiS2_RP27CDRMHelperRightsConstraintsS5_S5_S5_ @ 33 NONAME
	_ZN10CDRMHelper17GetRightsDetailsLERK7TDesC16mRiS3_RP21CDRMRightsConstraintsS6_S6_S6_ @ 34 NONAME
	_ZN10CDRMHelper17GetRightsDetailsLERK7TDesC16mRiS3_RP27CDRMHelperRightsConstraintsS6_S6_S6_ @ 35 NONAME
	_ZN10CDRMHelper17ShowAutomatedNoteER5RFile @ 36 NONAME
	_ZN10CDRMHelper17ShowAutomatedNoteERK6TDesC8 @ 37 NONAME
	_ZN10CDRMHelper17ShowAutomatedNoteERK7TDesC16 @ 38 NONAME
	_ZN10CDRMHelper17SupportedDataTypeEiR9TDataType @ 39 NONAME
	_ZN10CDRMHelper18CheckRightsAmountLER5RFileii @ 40 NONAME
	_ZN10CDRMHelper18CheckRightsAmountLERK6TDesC8ii @ 41 NONAME
	_ZN10CDRMHelper18CheckRightsAmountLERK7TDesC16ii @ 42 NONAME
	_ZN10CDRMHelper18SetAutomatedSilentER5RFilei @ 43 NONAME
	_ZN10CDRMHelper18SetAutomatedSilentERK6TDesC8i @ 44 NONAME
	_ZN10CDRMHelper18SetAutomatedSilentERK7TDesC16i @ 45 NONAME
	_ZN10CDRMHelper18UnRegisterDataTypeEi @ 46 NONAME
	_ZN10CDRMHelper19CheckRightsPercentLER5RFilei @ 47 NONAME
	_ZN10CDRMHelper19CheckRightsPercentLERK7TDesC16i @ 48 NONAME
	_ZN10CDRMHelper19SetAutomatedPassiveER5RFile @ 49 NONAME
	_ZN10CDRMHelper19SetAutomatedPassiveERK6TDesC8 @ 50 NONAME
	_ZN10CDRMHelper19SetAutomatedPassiveERK7TDesC16 @ 51 NONAME
	_ZN10CDRMHelper19SetPercentageLimitLEj @ 52 NONAME
	_ZTV27CDRMHelperGlobalNoteWrapper @ 53 NONAME ; #<VT>#
	_ZN10CDRMHelper20SupportedDRMMethods2ERiRNS_18TDRMHelperOMALevelE @ 54 NONAME
	_ZN10CDRMHelper22RemoveAutomatedPassiveER5RFile @ 55 NONAME
	_ZN10CDRMHelper22RemoveAutomatedPassiveERK6TDesC8 @ 56 NONAME
	_ZN10CDRMHelper22RemoveAutomatedPassiveERK7TDesC16 @ 57 NONAME
	_ZTI27CDRMHelperRightsConstraints @ 58 NONAME ; #<TI>#
	_ZTV10CDRMHelper @ 59 NONAME ; #<VT>#
	_ZN10CDRMHelper23ShowDRMUINotification2LENS_24TDRMHelperNotificationIDERK6TDesC8 @ 60 NONAME
	_ZN10CDRMHelper23ShowDRMUINotification2LENS_24TDRMHelperNotificationIDERK7TDesC16 @ 61 NONAME
	_ZN10CDRMHelper25EmbeddedPreviewCompletedLER7TDesC16 @ 62 NONAME
	_ZN10CDRMHelper25EmbeddedPreviewCompletedLERN13ContentAccess5CDataE @ 63 NONAME
	_ZN10CDRMHelper26LaunchDetailsViewEmbeddedLEPK6HBufC8 @ 64 NONAME
	_ZN10CDRMHelper26LaunchDetailsViewEmbeddedLER5RFile @ 65 NONAME
	_ZN10CDRMHelper26LaunchDetailsViewEmbeddedLERK6TDesC8 @ 66 NONAME
	_ZN10CDRMHelper26LaunchDetailsViewEmbeddedLERK7TDesC16 @ 67 NONAME
	_ZN10CDRMHelper4NewLER7CCoeEnv @ 68 NONAME
	_ZN10CDRMHelper4NewLEv @ 69 NONAME
	_ZN10CDRMHelper5NewLCER7CCoeEnv @ 70 NONAME
	_ZN10CDRMHelper5NewLCEv @ 71 NONAME
	_ZTI27CDRMHelperGlobalNoteWrapper @ 72 NONAME ; #<TI>#
	_ZN10CDRMHelper8Consume2ERK6TDesC8mNS_23TDRMHelperConsumeActionE @ 73 NONAME
	_ZN10CDRMHelperD0Ev @ 74 NONAME
	_ZN10CDRMHelperD1Ev @ 75 NONAME
	_ZN10CDRMHelperD2Ev @ 76 NONAME
	_ZN27CDRMHelperRightsConstraints10FullRightsEv @ 77 NONAME
	_ZN27CDRMHelperRightsConstraints11GetEndTimeLER5TTime @ 78 NONAME
	_ZN27CDRMHelperRightsConstraints12GetCountersLERmS0_ @ 79 NONAME
	_ZN27CDRMHelperRightsConstraints12GetIntervalLER20TTimeIntervalSeconds @ 80 NONAME
	_ZN27CDRMHelperRightsConstraints13GetStartTimeLER5TTime @ 81 NONAME
	_ZN27CDRMHelperRightsConstraints14GetTimedCountLERmS0_R20TTimeIntervalSeconds @ 82 NONAME
	_ZN27CDRMHelperRightsConstraints17GetIntervalStartLER5TTime @ 83 NONAME
	_ZN27CDRMHelperRightsConstraints19GetAccumulatedTimeLER20TTimeIntervalSeconds @ 84 NONAME
	_ZN27CDRMHelperRightsConstraints9IsPreviewEv @ 85 NONAME
	_ZN27CDRMHelperRightsConstraintsD0Ev @ 86 NONAME
	_ZN27CDRMHelperRightsConstraintsD1Ev @ 87 NONAME
	_ZN27CDRMHelperRightsConstraintsD2Ev @ 88 NONAME
	_ZTI10CDRMHelper @ 89 NONAME ; #<TI>#
	_ZN10CDRMHelper4NewLER3RFs @ 90 NONAME
	_ZN10CDRMHelper4NewLER7CCoeEnvR3RFs @ 91 NONAME
	_ZN10CDRMHelper5NewLCER3RFs @ 92 NONAME
	_ZN10CDRMHelper5NewLCER7CCoeEnvR3RFs @ 93 NONAME
	_ZN10CDRMHelper19SetPreviewMediaTypeE26TDRMHelperPreviewMediaType @ 94 NONAME
	_ZN10CDRMHelper21HandleErrorOrPreviewLEiR5RFileRP6HBufC8 @ 95 NONAME
	_ZN10CDRMHelper21HandleErrorOrPreviewLEiRK7TDesC16RP6HBufC8 @ 96 NONAME
	_ZN10CDRMHelper17GetRightsDetailsLER5RFilemRiS2_RP21CDRMRightsConstraintsS5_S5_S5_ @ 97 NONAME

