EXPORTS
	_ZN13CCDMIP4Record12CreateTableLERN8CommsDat11CMDBSessionE @ 1 NONAME
	_ZN13CCDMIP4Record13GetRecordInfoEv @ 2 NONAME
	_ZN13CCDMIP4Record8TableIdLERN8CommsDat11CMDBSessionE @ 3 NONAME
	_ZN13CCDMIP4RecordC1Em @ 4 NONAME
	_ZN13CCDMIP4RecordC2Em @ 5 NONAME
	_ZN13CCDMIP6Record12CreateTableLERN8CommsDat11CMDBSessionE @ 6 NONAME
	_ZN13CCDMIP6Record13GetRecordInfoEv @ 7 NONAME
	_ZN13CCDMIP6Record8TableIdLERN8CommsDat11CMDBSessionE @ 8 NONAME
	_ZN13CCDMIP6RecordC1Em @ 9 NONAME
	_ZN13CCDMIP6RecordC2Em @ 10 NONAME
	_ZN14CCDDestNWTable12CreateTableLERN8CommsDat11CMDBSessionE @ 11 NONAME
	_ZN14CCDDestNWTable13GetRecordInfoEv @ 12 NONAME
	_ZN14CCDDestNWTable8TableIdLERN8CommsDat11CMDBSessionE @ 13 NONAME
	_ZN14CCDDestNWTableC1Em @ 14 NONAME
	_ZN14CCDDestNWTableC2Em @ 15 NONAME
	_ZN19CCDWLANSecSSIDTable12CreateTableLERN8CommsDat11CMDBSessionE @ 16 NONAME
	_ZN19CCDWLANSecSSIDTable13GetRecordInfoEv @ 17 NONAME
	_ZN19CCDWLANSecSSIDTable8TableIdLERN8CommsDat11CMDBSessionE @ 18 NONAME
	_ZN19CCDWLANSecSSIDTableC1Em @ 19 NONAME
	_ZN19CCDWLANSecSSIDTableC2Em @ 20 NONAME
	_ZN20CCDIAPMetadataRecord12CreateTableLERN8CommsDat11CMDBSessionE @ 21 NONAME
	_ZN20CCDIAPMetadataRecord13GetRecordInfoEv @ 22 NONAME
	_ZN20CCDIAPMetadataRecord8TableIdLERN8CommsDat11CMDBSessionE @ 23 NONAME
	_ZN20CCDIAPMetadataRecordC1Em @ 24 NONAME
	_ZN20CCDIAPMetadataRecordC2Em @ 25 NONAME
	_ZN20CCDWlanServiceRecord12CreateTableLERN8CommsDat11CMDBSessionE @ 26 NONAME
	_ZN20CCDWlanServiceRecord13GetRecordInfoEv @ 27 NONAME
	_ZN20CCDWlanServiceRecord8TableIdLERN8CommsDat11CMDBSessionE @ 28 NONAME
	_ZN20CCDWlanServiceRecordC1Em @ 29 NONAME
	_ZN20CCDWlanServiceRecordC2Em @ 30 NONAME
	_ZN21CCDSNAPMetadataRecord12CreateTableLERN8CommsDat11CMDBSessionE @ 31 NONAME
	_ZN21CCDSNAPMetadataRecord13GetRecordInfoEv @ 32 NONAME
	_ZN21CCDSNAPMetadataRecord8TableIdLERN8CommsDat11CMDBSessionE @ 33 NONAME
	_ZN21CCDSNAPMetadataRecordC1Em @ 34 NONAME
	_ZN21CCDSNAPMetadataRecordC2Em @ 35 NONAME
	_ZN22CCDMIPServiceExtRecord12CreateTableLERN8CommsDat11CMDBSessionE @ 36 NONAME
	_ZN22CCDMIPServiceExtRecord13GetRecordInfoEv @ 37 NONAME
	_ZN22CCDMIPServiceExtRecord8TableIdLERN8CommsDat11CMDBSessionE @ 38 NONAME
	_ZN22CCDMIPServiceExtRecordC1Em @ 39 NONAME
	_ZN22CCDMIPServiceExtRecordC2Em @ 40 NONAME
	_ZN27CCDWlanDeviceSettingsRecord12CreateTableLERN8CommsDat11CMDBSessionE @ 41 NONAME
	_ZN27CCDWlanDeviceSettingsRecord13GetRecordInfoEv @ 42 NONAME
	_ZN27CCDWlanDeviceSettingsRecord8TableIdLERN8CommsDat11CMDBSessionE @ 43 NONAME
	_ZN27CCDWlanDeviceSettingsRecordC1Em @ 44 NONAME
	_ZN27CCDWlanDeviceSettingsRecordC2Em @ 45 NONAME
	_ZN28CCDVirtualIAPNextLayerRecord12CreateTableLERN8CommsDat11CMDBSessionE @ 46 NONAME
	_ZN28CCDVirtualIAPNextLayerRecord13GetRecordInfoEv @ 47 NONAME
	_ZN28CCDVirtualIAPNextLayerRecord8TableIdLERN8CommsDat11CMDBSessionE @ 48 NONAME
	_ZN28CCDVirtualIAPNextLayerRecordC1Em @ 49 NONAME
	_ZN28CCDVirtualIAPNextLayerRecordC2Em @ 50 NONAME
	_ZN36CCDDataMobilitySelectionPolicyRecord12CreateTableLERN8CommsDat11CMDBSessionE @ 51 NONAME
	_ZN36CCDDataMobilitySelectionPolicyRecord13GetRecordInfoEv @ 52 NONAME
	_ZN36CCDDataMobilitySelectionPolicyRecord8TableIdLERN8CommsDat11CMDBSessionE @ 53 NONAME
	_ZN36CCDDataMobilitySelectionPolicyRecordC1Em @ 54 NONAME
	_ZN36CCDDataMobilitySelectionPolicyRecordC2Em @ 55 NONAME
	_ZN37CCDGlobalBearerTypePriorizationRecord12CreateTableLERN8CommsDat11CMDBSessionE @ 56 NONAME
	_ZN37CCDGlobalBearerTypePriorizationRecord13GetRecordInfoEv @ 57 NONAME
	_ZN37CCDGlobalBearerTypePriorizationRecord8TableIdLERN8CommsDat11CMDBSessionE @ 58 NONAME
	_ZN37CCDGlobalBearerTypePriorizationRecordC1Em @ 59 NONAME
	_ZN37CCDGlobalBearerTypePriorizationRecordC2Em @ 60 NONAME
	_ZN16CCDDefConnRecord12CreateTableLERN8CommsDat11CMDBSessionE @ 61 NONAME
	_ZN16CCDDefConnRecord13GetRecordInfoEv @ 62 NONAME
	_ZN16CCDDefConnRecord8TableIdLERN8CommsDat11CMDBSessionE @ 63 NONAME
	_ZN16CCDDefConnRecordC1Em @ 64 NONAME
	_ZN16CCDDefConnRecordC2Em @ 65 NONAME

