EXPORTS
	??1CSearchSubscriptionItem@@UAE@XZ @ 1 NONAME ; CSearchSubscriptionItem::~CSearchSubscriptionItem(void)
	?CleanExpired@CSearchDataCache@@QAEXXZ @ 2 NONAME ; void CSearchDataCache::CleanExpired(void)
	?CleanResources@CSearchDataCache@@QAEXAAVMXIMPPscContext@@@Z @ 3 NONAME ; void CSearchDataCache::CleanResources(class MXIMPPscContext &)
	?InfoLinearOrder@CSearchInfoImp@@SAHABV1@0@Z @ 4 NONAME ; int CSearchInfoImp::InfoLinearOrder(class CSearchInfoImp const &, class CSearchInfoImp const &)
	?InternalizeL@CSearchElementImp@@QAEXAAVRReadStream@@@Z @ 5 NONAME ; void CSearchElementImp::InternalizeL(class RReadStream &)
	?InternalizeL@CSearchInfoImp@@QAEXAAVRReadStream@@@Z @ 6 NONAME ; void CSearchInfoImp::InternalizeL(class RReadStream &)
	?NewFromStreamLC@CSearchElementImp@@SAPAVCXIMPApiDataObjBase@@AAVRReadStream@@@Z @ 7 NONAME ; class CXIMPApiDataObjBase * CSearchElementImp::NewFromStreamLC(class RReadStream &)
	?NewFromStreamLC@CSearchInfoImp@@SAPAVCXIMPApiDataObjBase@@AAVRReadStream@@@Z @ 8 NONAME ; class CXIMPApiDataObjBase * CSearchInfoImp::NewFromStreamLC(class RReadStream &)
	?NewL@CSearchApiDataObjFactoryAccessor@@SAPAV1@XZ @ 9 NONAME ; class CSearchApiDataObjFactoryAccessor * CSearchApiDataObjFactoryAccessor::NewL(void)
	?NewL@CSearchDataCache@@SAPAV1@AAVMXIMPHost@@@Z @ 10 NONAME ; class CSearchDataCache * CSearchDataCache::NewL(class MXIMPHost &)
	?NewL@CSearchElementImp@@SAPAV1@XZ @ 11 NONAME ; class CSearchElementImp * CSearchElementImp::NewL(void)
	?NewL@CSearchInfoImp@@SAPAV1@XZ @ 12 NONAME ; class CSearchInfoImp * CSearchInfoImp::NewL(void)
	?NewL@CSearchObjectFactoryImp@@SAPAV1@XZ @ 13 NONAME ; class CSearchObjectFactoryImp * CSearchObjectFactoryImp::NewL(void)
	?NewLC@CSearchElementImp@@SAPAV1@XZ @ 14 NONAME ; class CSearchElementImp * CSearchElementImp::NewLC(void)
	?NewLC@CSearchEventImp@@SAPAV1@AAVCXIMPIdentityImp@@PAV?$RXIMPObjOwningPtrArray@VCSearchInfoImp@@@@@Z @ 15 NONAME ; class CSearchEventImp * CSearchEventImp::NewLC(class CXIMPIdentityImp &, class RXIMPObjOwningPtrArray<class CSearchInfoImp> *)
	?NewLC@CSearchInfoImp@@SAPAV1@XZ @ 16 NONAME ; class CSearchInfoImp * CSearchInfoImp::NewLC(void)
	?RemoveMe@?$@VCSearchSubscriptionItem@@@CSearchDataCache@@CAXAAPAV1@PAV1@@Z @ 17 NONAME ; void CSearchDataCache::RemoveMe<class CSearchSubscriptionItem>(class CSearchSubscriptionItem * &, class CSearchSubscriptionItem *)
	?SearchSubscriptionItemLC@CSearchDataCache@@QAEAAVCSearchSubscriptionItem@@XZ @ 18 NONAME ; class CSearchSubscriptionItem & CSearchDataCache::SearchSubscriptionItemLC(void)
	?SetSearchIdL@CSearchSubscriptionItem@@QAEXAAVCXIMPIdentityImp@@@Z @ 19 NONAME ; void CSearchSubscriptionItem::SetSearchIdL(class CXIMPIdentityImp &)
	?SetSearchResults@CSearchSubscriptionItem@@QAEXPAV?$RXIMPObjOwningPtrArray@VCSearchInfoImp@@@@@Z @ 20 NONAME ; void CSearchSubscriptionItem::SetSearchResults(class RXIMPObjOwningPtrArray<class CSearchInfoImp> *)
	??1CSearchKeysSubscriptionItem@@UAE@XZ @ 21 NONAME ; CSearchKeysSubscriptionItem::~CSearchKeysSubscriptionItem(void)
	?RemoveMe@?$@VCSearchKeysSubscriptionItem@@@CSearchDataCache@@CAXAAPAV1@PAV1@@Z @ 22 NONAME ; void CSearchDataCache::RemoveMe<class CSearchKeysSubscriptionItem>(class CSearchKeysSubscriptionItem * &, class CSearchKeysSubscriptionItem *)
	?SearchKeysSubscriptionItemLC@CSearchDataCache@@QAEAAVCSearchKeysSubscriptionItem@@XZ @ 23 NONAME ; class CSearchKeysSubscriptionItem & CSearchDataCache::SearchKeysSubscriptionItemLC(void)
	?InternalizeL@CSearchKeyInfoImp@@QAEXAAVRReadStream@@@Z @ 24 NONAME ; void CSearchKeyInfoImp::InternalizeL(class RReadStream &)
	?LinearOrder@CSearchKeyInfoImp@@SAHABV1@0@Z @ 25 NONAME ; int CSearchKeyInfoImp::LinearOrder(class CSearchKeyInfoImp const &, class CSearchKeyInfoImp const &)
	?NewFromStreamLC@CSearchKeyInfoImp@@SAPAVCXIMPApiDataObjBase@@AAVRReadStream@@@Z @ 26 NONAME ; class CXIMPApiDataObjBase * CSearchKeyInfoImp::NewFromStreamLC(class RReadStream &)
	?NewL@CSearchKeyInfoImp@@SAPAV1@XZ @ 27 NONAME ; class CSearchKeyInfoImp * CSearchKeyInfoImp::NewL(void)
	?NewLC@CSearchKeyInfoImp@@SAPAV1@XZ @ 28 NONAME ; class CSearchKeyInfoImp * CSearchKeyInfoImp::NewLC(void)
	?NewLC@CSearchKeysEventImp@@SAPAV1@PAV?$RXIMPObjOwningPtrArray@VCSearchKeyInfoImp@@@@@Z @ 29 NONAME ; class CSearchKeysEventImp * CSearchKeysEventImp::NewLC(class RXIMPObjOwningPtrArray<class CSearchKeyInfoImp> *)
	?SetKeyInfoArray@CSearchKeysSubscriptionItem@@QAEXPAV?$RXIMPObjOwningPtrArray@VCSearchKeyInfoImp@@@@@Z @ 30 NONAME ; void CSearchKeysSubscriptionItem::SetKeyInfoArray(class RXIMPObjOwningPtrArray<class CSearchKeyInfoImp> *)

