EXPORTS
	_ZN15HsWidgetFactory11qt_metacallEN11QMetaObject4CallEiPPv @ 1 NONAME
	_ZN15HsWidgetFactory11qt_metacastEPKc @ 2 NONAME
	_ZN15HsWidgetFactory12createWidgetERK13HsWidgetToken @ 3 NONAME
	_ZN15HsWidgetFactory16staticMetaObjectE @ 4 NONAME DATA 16
	_ZN15HsWidgetFactory19getStaticMetaObjectEv @ 5 NONAME
	_ZN15HsWidgetFactoryC1EP7QObject @ 6 NONAME
	_ZN15HsWidgetFactoryC2EP7QObject @ 7 NONAME
	_ZN15HsWidgetFactoryD0Ev @ 8 NONAME
	_ZN15HsWidgetFactoryD1Ev @ 9 NONAME
	_ZN15HsWidgetFactoryD2Ev @ 10 NONAME
	_ZN16HsPluginUnloader11qt_metacallEN11QMetaObject4CallEiPPv @ 11 NONAME
	_ZN16HsPluginUnloader11qt_metacastEPKc @ 12 NONAME
	_ZN16HsPluginUnloader16staticMetaObjectE @ 13 NONAME DATA 16
	_ZN16HsPluginUnloader19getStaticMetaObjectEv @ 14 NONAME
	_ZN16HsPluginUnloaderC1EP13QPluginLoaderP7QObject @ 15 NONAME
	_ZN16HsPluginUnloaderC2EP13QPluginLoaderP7QObject @ 16 NONAME
	_ZN16HsPluginUnloaderD0Ev @ 17 NONAME
	_ZN16HsPluginUnloaderD1Ev @ 18 NONAME
	_ZN16HsPluginUnloaderD2Ev @ 19 NONAME
	_ZN24HsWidgetProviderManifest11loadFromXmlERK7QString @ 20 NONAME
	_ZN24HsWidgetProviderManifest11qt_metacallEN11QMetaObject4CallEiPPv @ 21 NONAME
	_ZN24HsWidgetProviderManifest11qt_metacastEPKc @ 22 NONAME
	_ZN24HsWidgetProviderManifest16staticMetaObjectE @ 23 NONAME DATA 16
	_ZN24HsWidgetProviderManifest19getStaticMetaObjectEv @ 24 NONAME
	_ZN24HsWidgetProviderManifestC1EP7QObject @ 25 NONAME
	_ZN24HsWidgetProviderManifestC2EP7QObject @ 26 NONAME
	_ZN24HsWidgetProviderManifestD0Ev @ 27 NONAME
	_ZN24HsWidgetProviderManifestD1Ev @ 28 NONAME
	_ZN24HsWidgetProviderManifestD2Ev @ 29 NONAME
	_ZN8HsWidget10setFaultedEv @ 30 NONAME
	_ZN8HsWidget11qt_metacallEN11QMetaObject4CallEiPPv @ 31 NONAME
	_ZN8HsWidget11qt_metacastEPKc @ 32 NONAME
	_ZN8HsWidget11setFaultingEv @ 33 NONAME
	_ZN8HsWidget11setFinishedEv @ 34 NONAME
	_ZN8HsWidget16staticMetaObjectE @ 35 NONAME DATA 16
	_ZN8HsWidget19getStaticMetaObjectEv @ 36 NONAME
	_ZN8HsWidget4stopEv @ 37 NONAME
	_ZN8HsWidget5startEv @ 38 NONAME
	_ZN8HsWidget6resumeEv @ 39 NONAME
	_ZN8HsWidget7faultedEv @ 40 NONAME
	_ZN8HsWidget7stoppedEv @ 41 NONAME
	_ZN8HsWidget7suspendEv @ 42 NONAME
	_ZN8HsWidget8onResumeEv @ 43 NONAME
	_ZN8HsWidget9onSuspendEv @ 44 NONAME
	_ZN8HsWidget9succeededEv @ 45 NONAME
	_ZN8HsWidgetC2EP13QGraphicsItem6QFlagsIN2Qt10WindowTypeEE @ 46 NONAME
	_ZN8HsWidgetD0Ev @ 47 NONAME
	_ZN8HsWidgetD1Ev @ 48 NONAME
	_ZN8HsWidgetD2Ev @ 49 NONAME
	_ZNK15HsWidgetFactory10metaObjectEv @ 50 NONAME
	_ZNK16HsPluginUnloader10metaObjectEv @ 51 NONAME
	_ZNK24HsWidgetProviderManifest10metaObjectEv @ 52 NONAME
	_ZNK24HsWidgetProviderManifest11loadOnQueryEv @ 53 NONAME
	_ZNK24HsWidgetProviderManifest7widgetsEv @ 54 NONAME
	_ZNK8HsWidget10metaObjectEv @ 55 NONAME
	_ZNK8HsWidget23widgetPreferenceServiceEv @ 56 NONAME
	_ZTI15HsWidgetFactory @ 57 NONAME
	_ZTI16HsPluginUnloader @ 58 NONAME
	_ZTI24HsWidgetProviderManifest @ 59 NONAME
	_ZTI8HsWidget @ 60 NONAME
	_ZTV15HsWidgetFactory @ 61 NONAME
	_ZTV16HsPluginUnloader @ 62 NONAME
	_ZTV24HsWidgetProviderManifest @ 63 NONAME
	_ZTV8HsWidget @ 64 NONAME
	_ZThn16_N8HsWidgetD0Ev @ 65 NONAME
	_ZThn16_N8HsWidgetD1Ev @ 66 NONAME
	_ZThn8_N8HsWidgetD0Ev @ 67 NONAME
	_ZThn8_N8HsWidgetD1Ev @ 68 NONAME

