EXPORTS
	??1CConnectionUiUtilities@@UAE@XZ @ 1 NONAME ; CConnectionUiUtilities::~CConnectionUiUtilities(void)
	?AlwaysAskPageL@CConnectionUiUtilities@@QAEHAAW4TCuuAlwaysAskResults@@@Z @ 2 NONAME ; int CConnectionUiUtilities::AlwaysAskPageL(enum TCuuAlwaysAskResults &)
	?CancelChangingConnectionToNote@CConnectionUiUtilities@@QAEXXZ @ 3 NONAME ; void CConnectionUiUtilities::CancelChangingConnectionToNote(void)
	?CancelConfirmMethodUsageQuery@CConnectionUiUtilities@@QAEXXZ @ 4 NONAME ; void CConnectionUiUtilities::CancelConfirmMethodUsageQuery(void)
	?CancelConnectedViaConnMethodNote@CConnectionUiUtilities@@QAEXXZ @ 5 NONAME ; void CConnectionUiUtilities::CancelConnectedViaConnMethodNote(void)
	?CancelConnectedViaDestAndConnMethodNote@CConnectionUiUtilities@@QAEXXZ @ 6 NONAME ; void CConnectionUiUtilities::CancelConnectedViaDestAndConnMethodNote(void)
	?CancelEasyWepDlg@CConnectionUiUtilities@@QAEXXZ @ 7 NONAME ; void CConnectionUiUtilities::CancelEasyWepDlg(void)
	?CancelEasyWpaDlg@CConnectionUiUtilities@@QAEXXZ @ 8 NONAME ; void CConnectionUiUtilities::CancelEasyWpaDlg(void)
	?CancelOffLineWlanNote@CConnectionUiUtilities@@QAEXXZ @ 9 NONAME ; void CConnectionUiUtilities::CancelOffLineWlanNote(void)
	?CancelReconnectToMethodQuery@CConnectionUiUtilities@@QAEXXZ @ 10 NONAME ; void CConnectionUiUtilities::CancelReconnectToMethodQuery(void)
	?CancelRoamingToMorePrefMethodQuery@CConnectionUiUtilities@@QAEXXZ @ 11 NONAME ; void CConnectionUiUtilities::CancelRoamingToMorePrefMethodQuery(void)
	?CancelSearchWLANNetwork@CConnectionUiUtilities@@QAEXXZ @ 12 NONAME ; void CConnectionUiUtilities::CancelSearchWLANNetwork(void)
	?ChangeConnectionL@CConnectionUiUtilities@@QAEHAAKVTConnectionPrefs@@@Z @ 13 NONAME ; int CConnectionUiUtilities::ChangeConnectionL(unsigned long &, class TConnectionPrefs)
	?ChangingConnectionToNote@CConnectionUiUtilities@@QAEXK@Z @ 14 NONAME ; void CConnectionUiUtilities::ChangingConnectionToNote(unsigned long)
	?ChangingConnectionToNote@CConnectionUiUtilities@@QAEXKAAVTRequestStatus@@@Z @ 15 NONAME ; void CConnectionUiUtilities::ChangingConnectionToNote(unsigned long, class TRequestStatus &)
	?ConfirmMethodUsageQuery@CConnectionUiUtilities@@QAEXKKAAHAAVTRequestStatus@@@Z @ 16 NONAME ; void CConnectionUiUtilities::ConfirmMethodUsageQuery(unsigned long, unsigned long, int &, class TRequestStatus &)
	?ConfirmMethodUsageQuery@CConnectionUiUtilities@@QAEXKKHAAW4TMsgQueryLinkedResults@@AAVTRequestStatus@@@Z @ 17 NONAME ABSENT ; void CConnectionUiUtilities::ConfirmMethodUsageQuery(unsigned long, unsigned long, int, enum TMsgQueryLinkedResults &, class TRequestStatus &)
	?ConnectedViaConnMethodNote@CConnectionUiUtilities@@QAEXK@Z @ 18 NONAME ; void CConnectionUiUtilities::ConnectedViaConnMethodNote(unsigned long)
	?ConnectedViaConnMethodNote@CConnectionUiUtilities@@QAEXKAAVTRequestStatus@@@Z @ 19 NONAME ; void CConnectionUiUtilities::ConnectedViaConnMethodNote(unsigned long, class TRequestStatus &)
	?ConnectedViaDestAndConnMethodNote@CConnectionUiUtilities@@QAEXKK@Z @ 20 NONAME ; void CConnectionUiUtilities::ConnectedViaDestAndConnMethodNote(unsigned long, unsigned long)
	?ConnectedViaDestAndConnMethodNote@CConnectionUiUtilities@@QAEXKKAAVTRequestStatus@@@Z @ 21 NONAME ; void CConnectionUiUtilities::ConnectedViaDestAndConnMethodNote(unsigned long, unsigned long, class TRequestStatus &)
	?EasyWepDlg@CConnectionUiUtilities@@QAEHPAVTDes16@@@Z @ 22 NONAME ; int CConnectionUiUtilities::EasyWepDlg(class TDes16 *)
	?EasyWepDlg@CConnectionUiUtilities@@QAEHPAVTDes16@@AAH@Z @ 23 NONAME ; int CConnectionUiUtilities::EasyWepDlg(class TDes16 *, int &)
	?EasyWpaDlg@CConnectionUiUtilities@@QAEHPAVTDes16@@@Z @ 24 NONAME ; int CConnectionUiUtilities::EasyWpaDlg(class TDes16 *)
	?NewL@CConnectionUiUtilities@@SAPAV1@XZ @ 25 NONAME ; class CConnectionUiUtilities * CConnectionUiUtilities::NewL(void)
	?OffLineWlanDisabledNote@CConnectionUiUtilities@@QAEXXZ @ 26 NONAME ; void CConnectionUiUtilities::OffLineWlanDisabledNote(void)
	?OffLineWlanNote@CConnectionUiUtilities@@QAEHXZ @ 27 NONAME ; int CConnectionUiUtilities::OffLineWlanNote(void)
	?OffLineWlanNote@CConnectionUiUtilities@@QAEXAAVTRequestStatus@@@Z @ 28 NONAME ; void CConnectionUiUtilities::OffLineWlanNote(class TRequestStatus &)
	?ReconnectToMethodQuery@CConnectionUiUtilities@@QAEXKAAHAAVTRequestStatus@@@Z @ 29 NONAME ; void CConnectionUiUtilities::ReconnectToMethodQuery(unsigned long, int &, class TRequestStatus &)
	?ReconnectToMethodQuery@CConnectionUiUtilities@@QAEXKKHAAW4TMsgQueryLinkedResults@@AAVTRequestStatus@@@Z @ 30 NONAME ; void CConnectionUiUtilities::ReconnectToMethodQuery(unsigned long, unsigned long, int, enum TMsgQueryLinkedResults &, class TRequestStatus &)
	?RoamingToMorePrefMethodQuery@CConnectionUiUtilities@@QAEXKAAHAAVTRequestStatus@@@Z @ 31 NONAME ; void CConnectionUiUtilities::RoamingToMorePrefMethodQuery(unsigned long, int &, class TRequestStatus &)
	?RoamingToMorePrefMethodQuery@CConnectionUiUtilities@@QAEXKKHAAW4TMsgQueryLinkedResults@@AAVTRequestStatus@@@Z @ 32 NONAME ; void CConnectionUiUtilities::RoamingToMorePrefMethodQuery(unsigned long, unsigned long, int, enum TMsgQueryLinkedResults &, class TRequestStatus &)
	?SearchWLANNetwork@CConnectionUiUtilities@@QAEHAAV?$TBuf8@$0CA@@@@Z @ 33 NONAME ; int CConnectionUiUtilities::SearchWLANNetwork(class TBuf8<32> &)
	?SearchWLANNetwork@CConnectionUiUtilities@@QAEHAAV?$TBuf8@$0CA@@@AAW4TWlanConnectionMode@@AAW4TWlanConnectionSecurityMode@@@Z @ 34 NONAME ; int CConnectionUiUtilities::SearchWLANNetwork(class TBuf8<32> &, enum TWlanConnectionMode &, enum TWlanConnectionSecurityMode &)
	?SearchWLANNetwork@CConnectionUiUtilities@@QAEHAAV?$TBuf8@$0CA@@@AAW4TWlanConnectionMode@@AAW4TWlanConnectionSecurityMode@@AAH@Z @ 35 NONAME ; int CConnectionUiUtilities::SearchWLANNetwork(class TBuf8<32> &, enum TWlanConnectionMode &, enum TWlanConnectionSecurityMode &, int &)
	?SearchWLANNetworkAsync@CConnectionUiUtilities@@QAEXAAVTRequestStatus@@AAV?$TBuf8@$0CA@@@AAW4TWlanConnectionMode@@AAW4TWlanConnectionSecurityMode@@@Z @ 36 NONAME ; void CConnectionUiUtilities::SearchWLANNetworkAsync(class TRequestStatus &, class TBuf8<32> &, enum TWlanConnectionMode &, enum TWlanConnectionSecurityMode &)
	?SearchWLANNetworkAsync@CConnectionUiUtilities@@QAEXAAVTRequestStatus@@AAV?$TBuf8@$0CA@@@AAW4TWlanConnectionMode@@AAW4TWlanConnectionSecurityMode@@AAH@Z @ 37 NONAME ; void CConnectionUiUtilities::SearchWLANNetworkAsync(class TRequestStatus &, class TBuf8<32> &, enum TWlanConnectionMode &, enum TWlanConnectionSecurityMode &, int &)
	?SearchWLANNetworkSync@CConnectionUiUtilities@@QAEHAAV?$TBuf8@$0CA@@@AAW4TWlanConnectionMode@@AAW4TWlanConnectionSecurityMode@@@Z @ 38 NONAME ; int CConnectionUiUtilities::SearchWLANNetworkSync(class TBuf8<32> &, enum TWlanConnectionMode &, enum TWlanConnectionSecurityMode &)
	?SearchWLANNetworkSync@CConnectionUiUtilities@@QAEHAAV?$TBuf8@$0CA@@@AAW4TWlanConnectionMode@@AAW4TWlanConnectionSecurityMode@@AAH@Z @ 39 NONAME ; int CConnectionUiUtilities::SearchWLANNetworkSync(class TBuf8<32> &, enum TWlanConnectionMode &, enum TWlanConnectionSecurityMode &, int &)
	?ShowConnectionChangedNoteL@CConnectionUiUtilities@@QAEXABK@Z @ 40 NONAME ; void CConnectionUiUtilities::ShowConnectionChangedNoteL(unsigned long const &)
	?WLANNetworkUnavailableNote@CConnectionUiUtilities@@QAEXXZ @ 41 NONAME ; void CConnectionUiUtilities::WLANNetworkUnavailableNote(void)
	?EasyWepDlg@CConnectionUiUtilities@@QAEXAAVTRequestStatus@@PAVTDes16@@AAH@Z @ 42 NONAME ; void CConnectionUiUtilities::EasyWepDlg(class TRequestStatus &, class TDes16 *, int &)
	?EasyWpaDlg@CConnectionUiUtilities@@QAEXAAVTRequestStatus@@PAVTDes16@@@Z @ 43 NONAME ; void CConnectionUiUtilities::EasyWpaDlg(class TRequestStatus &, class TDes16 *)
	?SearchWLANNetwork@CConnectionUiUtilities@@QAEHAAV?$TBuf8@$0CA@@@AAW4TWlanConnectionMode@@AAW4TWlanConnectionExtentedSecurityMode@@@Z @ 44 NONAME ; int CConnectionUiUtilities::SearchWLANNetwork(class TBuf8<32> &, enum TWlanConnectionMode &, enum TWlanConnectionExtentedSecurityMode &)
	?SearchWLANNetworkAsync@CConnectionUiUtilities@@QAEXAAVTRequestStatus@@AAV?$TBuf8@$0CA@@@AAW4TWlanConnectionMode@@AAW4TWlanConnectionExtentedSecurityMode@@@Z @ 45 NONAME ; void CConnectionUiUtilities::SearchWLANNetworkAsync(class TRequestStatus &, class TBuf8<32> &, enum TWlanConnectionMode &, enum TWlanConnectionExtentedSecurityMode &)
	?SearchWLANNetworkAsync@CConnectionUiUtilities@@QAEXAAVTRequestStatus@@AAV?$TBuf8@$0CA@@@AAW4TWlanConnectionMode@@AAW4TWlanConnectionExtentedSecurityMode@@AAH@Z @ 46 NONAME ; void CConnectionUiUtilities::SearchWLANNetworkAsync(class TRequestStatus &, class TBuf8<32> &, enum TWlanConnectionMode &, enum TWlanConnectionExtentedSecurityMode &, int &)
	?SearchWLANNetwork@CConnectionUiUtilities@@QAEHAAV?$TBuf8@$0CA@@@AAW4TWlanConnectionMode@@AAW4TWlanConnectionExtentedSecurityMode@@AAH@Z @ 47 NONAME ; int CConnectionUiUtilities::SearchWLANNetwork(class TBuf8<32> &, enum TWlanConnectionMode &, enum TWlanConnectionExtentedSecurityMode &, int &)
	?CancelWlanPowerSaveTestNote@CConnectionUiUtilities@@QAEXXZ @ 48 NONAME ; void CConnectionUiUtilities::CancelWlanPowerSaveTestNote(void)
	?WlanPowerSaveTestNote@CConnectionUiUtilities@@QAEXAAHAAVTRequestStatus@@@Z @ 49 NONAME ; void CConnectionUiUtilities::WlanPowerSaveTestNote(int &, class TRequestStatus &)
	?EasyWapiDlg@CConnectionUiUtilities@@QAEHPAVTDes16@@@Z @ 50 NONAME ; int CConnectionUiUtilities::EasyWapiDlg(class TDes16 *)
	?NoWLANNetworksAvailableNote@CConnectionUiUtilities@@QAEXXZ @ 51 NONAME ; void CConnectionUiUtilities::NoWLANNetworksAvailableNote(void)
	?ConfirmMethodUsageQuery@CConnectionUiUtilities@@QAEXAAW4TMsgQueryLinkedResults@@HAAVTRequestStatus@@@Z @ 52 NONAME ; void CConnectionUiUtilities::ConfirmMethodUsageQuery(enum TMsgQueryLinkedResults &, int, class TRequestStatus &)
	?ConnectingViaDiscreetPopup@CConnectionUiUtilities@@QAEXABKH@Z @ 53 NONAME ; void CConnectionUiUtilities::ConnectingViaDiscreetPopup(unsigned long const &, int)
	?ConnectionErrorDiscreetPopup@CConnectionUiUtilities@@QAEXABH@Z @ 54 NONAME ; void CConnectionUiUtilities::ConnectionErrorDiscreetPopup(int const &)
	?CancelConnectingViaDiscreetPopup@CConnectionUiUtilities@@QAEXXZ @ 55 NONAME ; void CConnectionUiUtilities::CancelConnectingViaDiscreetPopup(void)
	?ConnectingViaDiscreetPopup@CConnectionUiUtilities@@QAEXXZ @ 56 NONAME ; void CConnectionUiUtilities::ConnectingViaDiscreetPopup(void)

