EXPORTS
	?qt_metacall@BtAbstractDelegate@@UAEHW4Call@QMetaObject@@HPAPAX@Z @ 1 NONAME ; int BtAbstractDelegate::qt_metacall(enum QMetaObject::Call, int, void * *)
	?beginUiEditMode@BtAbstractDelegate@@IAEXXZ @ 2 NONAME ; void BtAbstractDelegate::beginUiEditMode(void)
	?delegateCompleted@BtAbstractDelegate@@IAEXHPAV1@@Z @ 3 NONAME ; void BtAbstractDelegate::delegateCompleted(int, class BtAbstractDelegate *)
	?settingModel@BtAbstractDelegate@@IAEPAVBtSettingModel@@XZ @ 4 NONAME ; class BtSettingModel * BtAbstractDelegate::settingModel(void)
	??1BtAbstractDelegate@@UAE@XZ @ 5 NONAME ; BtAbstractDelegate::~BtAbstractDelegate(void)
	?metaObject@BtAbstractDelegate@@UBEPBUQMetaObject@@XZ @ 6 NONAME ; struct QMetaObject const * BtAbstractDelegate::metaObject(void) const
	?deviceModel@BtAbstractDelegate@@IAEPAVBtDeviceModel@@XZ @ 7 NONAME ; class BtDeviceModel * BtAbstractDelegate::deviceModel(void)
	?tr@BtAbstractDelegate@@SA?AVQString@@PBD0H@Z @ 8 NONAME ; class QString BtAbstractDelegate::tr(char const *, char const *, int)
	?tr@BtAbstractDelegate@@SA?AVQString@@PBD0@Z @ 9 NONAME ; class QString BtAbstractDelegate::tr(char const *, char const *)
	?qt_metacast@BtAbstractDelegate@@UAEPAXPBD@Z @ 10 NONAME ; void * BtAbstractDelegate::qt_metacast(char const *)
	?getStaticMetaObject@BtAbstractDelegate@@SAABUQMetaObject@@XZ @ 11 NONAME ; struct QMetaObject const & BtAbstractDelegate::getStaticMetaObject(void)
	??0BtAbstractDelegate@@QAE@PAVBtSettingModel@@PAVBtDeviceModel@@PAVQObject@@@Z @ 12 NONAME ; BtAbstractDelegate::BtAbstractDelegate(class BtSettingModel *, class BtDeviceModel *, class QObject *)
	?staticMetaObject@BtAbstractDelegate@@2UQMetaObject@@B @ 13 NONAME ; struct QMetaObject const BtAbstractDelegate::staticMetaObject
	?newDelegate@BtDelegateFactory@@SAPAVBtAbstractDelegate@@W4EditorType@BtDelegate@@PAVBtSettingModel@@PAVBtDeviceModel@@PAVQObject@@@Z @ 14 NONAME ; class BtAbstractDelegate * BtDelegateFactory::newDelegate(enum BtDelegate::EditorType, class BtSettingModel *, class BtDeviceModel *, class QObject *)
	?endUiEditMode@BtAbstractDelegate@@IAEXXZ @ 15 NONAME ; void BtAbstractDelegate::endUiEditMode(void)
	??_EBtAbstractDelegate@@UAE@I@Z @ 16 NONAME ; BtAbstractDelegate::~BtAbstractDelegate(unsigned int)
	?isExecuting@BtAbstractDelegate@@QAE_NXZ @ 17 NONAME ; bool BtAbstractDelegate::isExecuting(void)
	?setExecuting@BtAbstractDelegate@@IAEX_N@Z @ 18 NONAME ; void BtAbstractDelegate::setExecuting(bool)
	?isBtPowerOn@BtAbstractDelegate@@IAE_NXZ @ 19 NONAME ; bool BtAbstractDelegate::isBtPowerOn(void)
	?completeDelegateExecution@BtAbstractDelegate@@IAEXH@Z @ 20 NONAME ; void BtAbstractDelegate::completeDelegateExecution(int)
	?cancel@BtAbstractDelegate@@UAEXXZ @ 21 NONAME ; void BtAbstractDelegate::cancel(void)
	?trUtf8@BtAbstractDelegate@@SA?AVQString@@PBD0@Z @ 22 NONAME ; class QString BtAbstractDelegate::trUtf8(char const *, char const *)
	?trUtf8@BtAbstractDelegate@@SA?AVQString@@PBD0H@Z @ 23 NONAME ; class QString BtAbstractDelegate::trUtf8(char const *, char const *, int)

