EXPORTS
	??0RTactileFeedback@@QAE@XZ @ 1 NONAME ; RTactileFeedback::RTactileFeedback(void)
	??1CTactilePlayer@@UAE@XZ @ 2 NONAME ; CTactilePlayer::~CTactilePlayer(void)
	?Close@RTactileFeedback@@QAEXXZ @ 3 NONAME ; void RTactileFeedback::Close(void)
	?Connect@RTactileFeedback@@QAEHXZ @ 4 NONAME ; int RTactileFeedback::Connect(void)
	?FeedbackEnabledForDevice@RTactileFeedback@@QAEXAAW4TTouchFeedbackType@@@Z @ 5 NONAME ; void RTactileFeedback::FeedbackEnabledForDevice(enum TTouchFeedbackType &)
	?MaxLevel@CTactilePlayer@@UAEHXZ @ 6 NONAME ; int CTactilePlayer::MaxLevel(void)
	?ModifyFeedback@CTactilePlayer@@UAEHH@Z @ 7 NONAME ; int CTactilePlayer::ModifyFeedback(int)
	?ModifyFeedback@RTactileFeedback@@QAEXH@Z @ 8 NONAME ; void RTactileFeedback::ModifyFeedback(int)
	?ModifyPreviewFeedback@RTactileFeedback@@QAEXH@Z @ 9 NONAME ; void RTactileFeedback::ModifyPreviewFeedback(int)
	?PlayFeedback@RTactileFeedback@@QAEXW4TTouchLogicalFeedback@@HH@Z @ 10 NONAME ; void RTactileFeedback::PlayFeedback(enum TTouchLogicalFeedback, int, int)
	?PlayPreviewFeedback@CTactilePlayer@@UAEHHW4TTouchLogicalFeedback@@@Z @ 11 NONAME ; int CTactilePlayer::PlayPreviewFeedback(int, enum TTouchLogicalFeedback)
	?PlayPreviewFeedback@RTactileFeedback@@QAEXHW4TTouchLogicalFeedback@@W4TTouchFeedbackType@@@Z @ 12 NONAME ; void RTactileFeedback::PlayPreviewFeedback(int, enum TTouchLogicalFeedback, enum TTouchFeedbackType)
	?SetFeedbackEnabledForDevice@RTactileFeedback@@QAEHW4TTouchFeedbackType@@@Z @ 13 NONAME ; int RTactileFeedback::SetFeedbackEnabledForDevice(enum TTouchFeedbackType)
	?StartFeedback@CTactilePlayer@@UAEHW4TTouchContinuousFeedback@@H@Z @ 14 NONAME ; int CTactilePlayer::StartFeedback(enum TTouchContinuousFeedback, int)
	?StartFeedback@RTactileFeedback@@QAEXW4TTouchContinuousFeedback@@H@Z @ 15 NONAME ; void RTactileFeedback::StartFeedback(enum TTouchContinuousFeedback, int)
	?StartPreviewFeedback@CTactilePlayer@@UAEHHW4TTouchContinuousFeedback@@H@Z @ 16 NONAME ; int CTactilePlayer::StartPreviewFeedback(int, enum TTouchContinuousFeedback, int)
	?StartPreviewFeedback@RTactileFeedback@@QAEXHW4TTouchContinuousFeedback@@HW4TTouchFeedbackType@@@Z @ 17 NONAME ; void RTactileFeedback::StartPreviewFeedback(int, enum TTouchContinuousFeedback, int, enum TTouchFeedbackType)
	?StopFeedback@CTactilePlayer@@UAEXXZ @ 18 NONAME ; void CTactilePlayer::StopFeedback(void)
	?StopFeedback@RTactileFeedback@@QAEXXZ @ 19 NONAME ; void RTactileFeedback::StopFeedback(void)
	?StopPreviewFeedback@CTactilePlayer@@UAEXXZ @ 20 NONAME ; void CTactilePlayer::StopPreviewFeedback(void)
	?StopPreviewFeedback@RTactileFeedback@@QAEXXZ @ 21 NONAME ; void RTactileFeedback::StopPreviewFeedback(void)

