EXPORTS
	?addLogOutput@Logger@@QAE_NPAVLogOutput@@@Z @ 1 NONAME ABSENT ; bool Logger::addLogOutput(class LogOutput *)
	??0CpItemDataHelper@@QAE@PAVHbDataForm@@@Z @ 2 NONAME ; CpItemDataHelper::CpItemDataHelper(class HbDataForm *)
	?trUtf8@LogOutput@@SA?AVQString@@PBD0@Z @ 3 NONAME ABSENT ; class QString LogOutput::trUtf8(char const *, char const *)
	??1CpItemDataHelper@@UAE@XZ @ 4 NONAME ; CpItemDataHelper::~CpItemDataHelper(void)
	??_ECpSettingFormEntryItemData@@UAE@I@Z @ 5 NONAME ; CpSettingFormEntryItemData::~CpSettingFormEntryItemData(unsigned int)
	?staticMetaObject@CpItemDataHelper@@2UQMetaObject@@B @ 6 NONAME ; struct QMetaObject const CpItemDataHelper::staticMetaObject
	?metaObject@CpBaseSettingView@@UBEPBUQMetaObject@@XZ @ 7 NONAME ; struct QMetaObject const * CpBaseSettingView::metaObject(void) const
	?text@CpSettingFormEntryItemData@@QBE?AVQString@@XZ @ 8 NONAME ; class QString CpSettingFormEntryItemData::text(void) const
	?qt_metacast@CpSettingFormItemData@@UAEPAXPBD@Z @ 9 NONAME ; void * CpSettingFormItemData::qt_metacast(char const *)
	??1LogOutput@@UAE@XZ @ 10 NONAME ABSENT ; LogOutput::~LogOutput(void)
	?qt_metacall@Logger@@UAEHW4Call@QMetaObject@@HPAPAX@Z @ 11 NONAME ABSENT ; int Logger::qt_metacall(enum QMetaObject::Call, int, void * *)
	?loadCpLauncherInterface@CpPluginLoader@@SAPAVCpLauncherInterface@@ABVQString@@@Z @ 12 NONAME ; class CpLauncherInterface * CpPluginLoader::loadCpLauncherInterface(class QString const &)
	?loadCpPluginInterface@CpPluginLoader@@SAPAVCpPluginInterface@@ABVQString@@@Z @ 13 NONAME ; class CpPluginInterface * CpPluginLoader::loadCpPluginInterface(class QString const &)
	?staticMetaObject@Logger@@2UQMetaObject@@B @ 14 NONAME ABSENT ; struct QMetaObject const Logger::staticMetaObject
	?loadPlatCpPlugin@CpPluginLoader@@SAPAVCpPluginPlatInterface@@ABVQString@@@Z @ 15 NONAME ABSENT ; class CpPluginPlatInterface * CpPluginLoader::loadPlatCpPlugin(class QString const &)
	?logOutput@Logger@@QAEPAVLogOutput@@ABVQString@@@Z @ 16 NONAME ABSENT ; class LogOutput * Logger::logOutput(class QString const &)
	??_ELogOutput@@UAE@I@Z @ 17 NONAME ABSENT ; LogOutput::~LogOutput(unsigned int)
	?addCpItemPrototype@CpPluginUtility@@SAXPAVHbDataForm@@@Z @ 18 NONAME ; void CpPluginUtility::addCpItemPrototype(class HbDataForm *)
	?qt_metacast@LogOutput@@UAEPAXPBD@Z @ 19 NONAME ABSENT ; void * LogOutput::qt_metacast(char const *)
	?qt_metacast@CpBaseSettingView@@UAEPAXPBD@Z @ 20 NONAME ; void * CpBaseSettingView::qt_metacast(char const *)
	?getStaticMetaObject@CpBaseSettingView@@SAABUQMetaObject@@XZ @ 21 NONAME ; struct QMetaObject const & CpBaseSettingView::getStaticMetaObject(void)
	??1CpSettingFormItemData@@UAE@XZ @ 22 NONAME ; CpSettingFormItemData::~CpSettingFormItemData(void)
	??0CpSettingFormEntryItemData@@QAE@W4EntryItemType@0@PAVHbDataForm@@ABVQString@@22PBVHbDataFormModelItem@@@Z @ 23 NONAME ; CpSettingFormEntryItemData::CpSettingFormEntryItemData(enum CpSettingFormEntryItemData::EntryItemType, class HbDataForm *, class QString const &, class QString const &, class QString const &, class HbDataFormModelItem const *)
	?d_func@CpSettingFormEntryItemData@@ABEPBVCpSettingFormEntryItemDataPrivate@@XZ @ 24 NONAME ; class CpSettingFormEntryItemDataPrivate const * CpSettingFormEntryItemData::d_func(void) const
	?d_func@CpBaseSettingView@@ABEPBVCpBaseSettingViewPrivate@@XZ @ 25 NONAME ; class CpBaseSettingViewPrivate const * CpBaseSettingView::d_func(void) const
	?launchCpPluginView@CpPluginLauncher@@SA_NABVQString@@H@Z @ 26 NONAME ABSENT ; bool CpPluginLauncher::launchCpPluginView(class QString const &, int)
	?aboutToClose@CpBaseSettingView@@IAEXXZ @ 27 NONAME ; void CpBaseSettingView::aboutToClose(void)
	?close@CpBaseSettingView@@MAEXXZ @ 28 NONAME ; void CpBaseSettingView::close(void)
	?modelItemFromModelIndex@CpItemDataHelper@@QAEPAVHbDataFormModelItem@@ABVQModelIndex@@@Z @ 29 NONAME ; class HbDataFormModelItem * CpItemDataHelper::modelItemFromModelIndex(class QModelIndex const &)
	?instance@Logger@@SAPAV1@ABVQString@@@Z @ 30 NONAME ABSENT ; class Logger * Logger::instance(class QString const &)
	?trUtf8@CpSettingFormEntryItemData@@SA?AVQString@@PBD0H@Z @ 31 NONAME ; class QString CpSettingFormEntryItemData::trUtf8(char const *, char const *, int)
	?removeConnection@CpItemDataHelper@@QAEXPAVHbDataFormModelItem@@PBDPAVQObject@@1@Z @ 32 NONAME ; void CpItemDataHelper::removeConnection(class HbDataFormModelItem *, char const *, class QObject *, char const *)
	?returnValueDelivered@CpBaseSettingView@@IAEXABVQVariant@@@Z @ 33 NONAME ; void CpBaseSettingView::returnValueDelivered(class QVariant const &)
	?setDateTimeFormat@Logger@@QAEXABVQString@@@Z @ 34 NONAME ABSENT ; void Logger::setDateTimeFormat(class QString const &)
	?settingForm@CpBaseSettingView@@QBEPAVHbDataForm@@XZ @ 35 NONAME ABSENT ; class HbDataForm * CpBaseSettingView::settingForm(void) const
	??1Logger@@UAE@XZ @ 36 NONAME ABSENT ; Logger::~Logger(void)
	?description@CpSettingFormEntryItemData@@QBE?AVQString@@XZ @ 37 NONAME ; class QString CpSettingFormEntryItemData::description(void) const
	?log@Logger@@QAEXABVQString@@@Z @ 38 NONAME ABSENT ; void Logger::log(class QString const &)
	??_ELogger@@UAE@I@Z @ 39 NONAME ABSENT ; Logger::~Logger(unsigned int)
	?tr@CpItemDataHelper@@SA?AVQString@@PBD0H@Z @ 40 NONAME ; class QString CpItemDataHelper::tr(char const *, char const *, int)
	?setName@LogOutput@@QAEXABVQString@@@Z @ 41 NONAME ABSENT ; void LogOutput::setName(class QString const &)
	?qt_metacall@CpBaseSettingView@@UAEHW4Call@QMetaObject@@HPAPAX@Z @ 42 NONAME ; int CpBaseSettingView::qt_metacall(enum QMetaObject::Call, int, void * *)
	?trUtf8@CpBaseSettingView@@SA?AVQString@@PBD0H@Z @ 43 NONAME ; class QString CpBaseSettingView::trUtf8(char const *, char const *, int)
	?getStaticMetaObject@CpSettingFormEntryItemData@@SAABUQMetaObject@@XZ @ 44 NONAME ; struct QMetaObject const & CpSettingFormEntryItemData::getStaticMetaObject(void)
	?name@Logger@@QBE?AVQString@@XZ @ 45 NONAME ABSENT ; class QString Logger::name(void) const
	?load@LogOutput@@QAE_NAAVQSettings@@@Z @ 46 NONAME ABSENT ; bool LogOutput::load(class QSettings &)
	??0CpSettingFormEntryItemData@@QAE@AAVCpItemDataHelper@@ABVQString@@1ABVHbIcon@@PBVHbDataFormModelItem@@@Z @ 47 NONAME ; CpSettingFormEntryItemData::CpSettingFormEntryItemData(class CpItemDataHelper &, class QString const &, class QString const &, class HbIcon const &, class HbDataFormModelItem const *)
	?setText@CpSettingFormEntryItemData@@QAEXABVQString@@@Z @ 48 NONAME ; void CpSettingFormEntryItemData::setText(class QString const &)
	?close@Logger@@SAXABVQString@@@Z @ 49 NONAME ABSENT ; void Logger::close(class QString const &)
	?disconnectFromForm@CpItemDataHelper@@QAEXPBDPAVQObject@@0@Z @ 50 NONAME ; void CpItemDataHelper::disconnectFromForm(char const *, class QObject *, char const *)
	?metaObject@CpItemDataHelper@@UBEPBUQMetaObject@@XZ @ 51 NONAME ; struct QMetaObject const * CpItemDataHelper::metaObject(void) const
	??_ECpItemDataHelper@@UAE@I@Z @ 52 NONAME ; CpItemDataHelper::~CpItemDataHelper(unsigned int)
	??1CpSettingFormEntryItemData@@UAE@XZ @ 53 NONAME ; CpSettingFormEntryItemData::~CpSettingFormEntryItemData(void)
	?iconName@CpSettingFormEntryItemData@@QBE?AVQString@@XZ @ 54 NONAME ; class QString CpSettingFormEntryItemData::iconName(void) const
	?staticMetaObject@CpSettingFormItemData@@2UQMetaObject@@B @ 55 NONAME ; struct QMetaObject const CpSettingFormItemData::staticMetaObject
	?createLogOutput@LogOutputFactory@@SAPAVLogOutput@@ABVQString@@@Z @ 56 NONAME ABSENT ; class LogOutput * LogOutputFactory::createLogOutput(class QString const &)
	?setEntryItemIcon@CpSettingFormEntryItemData@@QAEXABVHbIcon@@@Z @ 57 NONAME ; void CpSettingFormEntryItemData::setEntryItemIcon(class HbIcon const &)
	?launchSettingView@CpPluginLauncher@@SAPAVCpBaseSettingView@@ABVQString@@ABVQVariant@@@Z @ 58 NONAME ; class CpBaseSettingView * CpPluginLauncher::launchSettingView(class QString const &, class QVariant const &)
	?entryItemIcon@CpSettingFormEntryItemData@@QBE?AVHbIcon@@XZ @ 59 NONAME ; class HbIcon CpSettingFormEntryItemData::entryItemIcon(void) const
	?qt_metacall@CpSettingFormEntryItemData@@UAEHW4Call@QMetaObject@@HPAPAX@Z @ 60 NONAME ; int CpSettingFormEntryItemData::qt_metacall(enum QMetaObject::Call, int, void * *)
	?onLaunchView@CpSettingFormEntryItemData@@UAEXXZ @ 61 NONAME ; void CpSettingFormEntryItemData::onLaunchView(void)
	?setLogDateTime@Logger@@QAEX_N@Z @ 62 NONAME ABSENT ; void Logger::setLogDateTime(bool)
	?configure@Logger@@QAEXABVQString@@W4Format@QSettings@@@Z @ 63 NONAME ABSENT ; void Logger::configure(class QString const &, enum QSettings::Format)
	?tr@Logger@@SA?AVQString@@PBD0@Z @ 64 NONAME ABSENT ; class QString Logger::tr(char const *, char const *)
	?trUtf8@CpItemDataHelper@@SA?AVQString@@PBD0H@Z @ 65 NONAME ; class QString CpItemDataHelper::trUtf8(char const *, char const *, int)
	?metaObject@LogOutput@@UBEPBUQMetaObject@@XZ @ 66 NONAME ABSENT ; struct QMetaObject const * LogOutput::metaObject(void) const
	?trUtf8@CpItemDataHelper@@SA?AVQString@@PBD0@Z @ 67 NONAME ; class QString CpItemDataHelper::trUtf8(char const *, char const *)
	??0CpSettingFormEntryItemData@@QAE@PBVHbDataFormModelItem@@@Z @ 68 NONAME ; CpSettingFormEntryItemData::CpSettingFormEntryItemData(class HbDataFormModelItem const *)
	?logDateTime@Logger@@QBE_NXZ @ 69 NONAME ABSENT ; bool Logger::logDateTime(void) const
	??0CpSettingFormEntryItemData@@QAE@PAVHbDataForm@@ABVQString@@1ABVHbIcon@@PBVHbDataFormModelItem@@@Z @ 70 NONAME ; CpSettingFormEntryItemData::CpSettingFormEntryItemData(class HbDataForm *, class QString const &, class QString const &, class HbIcon const &, class HbDataFormModelItem const *)
	?d_func@CpBaseSettingView@@AAEPAVCpBaseSettingViewPrivate@@XZ @ 71 NONAME ; class CpBaseSettingViewPrivate * CpBaseSettingView::d_func(void)
	??0CpSettingFormItemData@@QAE@W4DataItemType@HbDataFormModelItem@@ABVQString@@PBV2@@Z @ 72 NONAME ; CpSettingFormItemData::CpSettingFormItemData(enum HbDataFormModelItem::DataItemType, class QString const &, class HbDataFormModelItem const *)
	?connectToForm@CpItemDataHelper@@QAEXPBDPAVQObject@@0@Z @ 73 NONAME ; void CpItemDataHelper::connectToForm(char const *, class QObject *, char const *)
	?tr@LogOutput@@SA?AVQString@@PBD0@Z @ 74 NONAME ABSENT ; class QString LogOutput::tr(char const *, char const *)
	?setIconName@CpSettingFormEntryItemData@@QAEXABVQString@@@Z @ 75 NONAME ; void CpSettingFormEntryItemData::setIconName(class QString const &)
	?qt_metacast@CpItemDataHelper@@UAEPAXPBD@Z @ 76 NONAME ; void * CpItemDataHelper::qt_metacast(char const *)
	?metaObject@Logger@@UBEPBUQMetaObject@@XZ @ 77 NONAME ABSENT ; struct QMetaObject const * Logger::metaObject(void) const
	?tr@CpSettingFormEntryItemData@@SA?AVQString@@PBD0@Z @ 78 NONAME ; class QString CpSettingFormEntryItemData::tr(char const *, char const *)
	??0Logger@@AAE@ABVQString@@PAVQObject@@@Z @ 79 NONAME ABSENT ; Logger::Logger(class QString const &, class QObject *)
	?addConnection@CpItemDataHelper@@QAEXPAVHbDataFormModelItem@@PBDPAVQObject@@1@Z @ 80 NONAME ; void CpItemDataHelper::addConnection(class HbDataFormModelItem *, char const *, class QObject *, char const *)
	?d_func@CpSettingFormEntryItemData@@AAEPAVCpSettingFormEntryItemDataPrivate@@XZ @ 81 NONAME ; class CpSettingFormEntryItemDataPrivate * CpSettingFormEntryItemData::d_func(void)
	?dateTimeFormat@Logger@@QBE?AVQString@@XZ @ 82 NONAME ABSENT ; class QString Logger::dateTimeFormat(void) const
	??0CpSettingFormItemData@@QAE@PBVHbDataFormModelItem@@@Z @ 83 NONAME ; CpSettingFormItemData::CpSettingFormItemData(class HbDataFormModelItem const *)
	?clearAllLogOutput@Logger@@QAEXXZ @ 84 NONAME ABSENT ; void Logger::clearAllLogOutput(void)
	?qt_metacall@LogOutput@@UAEHW4Call@QMetaObject@@HPAPAX@Z @ 85 NONAME ABSENT ; int LogOutput::qt_metacall(enum QMetaObject::Call, int, void * *)
	?setDescription@CpSettingFormEntryItemData@@QAEXABVQString@@@Z @ 86 NONAME ; void CpSettingFormEntryItemData::setDescription(class QString const &)
	?tr@CpSettingFormEntryItemData@@SA?AVQString@@PBD0H@Z @ 87 NONAME ; class QString CpSettingFormEntryItemData::tr(char const *, char const *, int)
	?getStaticMetaObject@CpSettingFormItemData@@SAABUQMetaObject@@XZ @ 88 NONAME ; struct QMetaObject const & CpSettingFormItemData::getStaticMetaObject(void)
	?staticMetaObject@CpSettingFormEntryItemData@@2UQMetaObject@@B @ 89 NONAME ; struct QMetaObject const CpSettingFormEntryItemData::staticMetaObject
	?setParentLogger@LogOutput@@QAEXPAVLogger@@@Z @ 90 NONAME ABSENT ; void LogOutput::setParentLogger(class Logger *)
	?parentLogger@LogOutput@@QAEPAVLogger@@XZ @ 91 NONAME ABSENT ; class Logger * LogOutput::parentLogger(void)
	?qt_metacall@CpSettingFormItemData@@UAEHW4Call@QMetaObject@@HPAPAX@Z @ 92 NONAME ; int CpSettingFormItemData::qt_metacall(enum QMetaObject::Call, int, void * *)
	?tr@Logger@@SA?AVQString@@PBD0H@Z @ 93 NONAME ABSENT ; class QString Logger::tr(char const *, char const *, int)
	??_ECpBaseSettingView@@UAE@I@Z @ 94 NONAME ; CpBaseSettingView::~CpBaseSettingView(unsigned int)
	?bindToForm@CpItemDataHelper@@QAEXPAVHbDataForm@@@Z @ 95 NONAME ; void CpItemDataHelper::bindToForm(class HbDataForm *)
	??_ECpSettingFormItemData@@UAE@I@Z @ 96 NONAME ; CpSettingFormItemData::~CpSettingFormItemData(unsigned int)
	?getStaticMetaObject@Logger@@SAABUQMetaObject@@XZ @ 97 NONAME ABSENT ; struct QMetaObject const & Logger::getStaticMetaObject(void)
	?trUtf8@CpSettingFormItemData@@SA?AVQString@@PBD0H@Z @ 98 NONAME ; class QString CpSettingFormItemData::trUtf8(char const *, char const *, int)
	?staticMetaObject@CpBaseSettingView@@2UQMetaObject@@B @ 99 NONAME ; struct QMetaObject const CpBaseSettingView::staticMetaObject
	?tr@CpBaseSettingView@@SA?AVQString@@PBD0H@Z @ 100 NONAME ; class QString CpBaseSettingView::tr(char const *, char const *, int)
	?tr@CpBaseSettingView@@SA?AVQString@@PBD0@Z @ 101 NONAME ; class QString CpBaseSettingView::tr(char const *, char const *)
	?setLogLoggerName@Logger@@QAEX_N@Z @ 102 NONAME ABSENT ; void Logger::setLogLoggerName(bool)
	?tr@CpSettingFormItemData@@SA?AVQString@@PBD0@Z @ 103 NONAME ; class QString CpSettingFormItemData::tr(char const *, char const *)
	?closeAll@Logger@@SAXXZ @ 104 NONAME ABSENT ; void Logger::closeAll(void)
	?setSettingForm@CpBaseSettingView@@QAEXPAVHbDataForm@@@Z @ 105 NONAME ABSENT ; void CpBaseSettingView::setSettingForm(class HbDataForm *)
	?tr@CpSettingFormItemData@@SA?AVQString@@PBD0H@Z @ 106 NONAME ; class QString CpSettingFormItemData::tr(char const *, char const *, int)
	?trUtf8@LogOutput@@SA?AVQString@@PBD0H@Z @ 107 NONAME ABSENT ; class QString LogOutput::trUtf8(char const *, char const *, int)
	?trUtf8@CpSettingFormItemData@@SA?AVQString@@PBD0@Z @ 108 NONAME ; class QString CpSettingFormItemData::trUtf8(char const *, char const *)
	?removeLogOutput@Logger@@QAEXPAVLogOutput@@@Z @ 109 NONAME ABSENT ; void Logger::removeLogOutput(class LogOutput *)
	??0CpBaseSettingView@@QAE@PAVQGraphicsWidget@@PAVQGraphicsItem@@@Z @ 110 NONAME ; CpBaseSettingView::CpBaseSettingView(class QGraphicsWidget *, class QGraphicsItem *)
	?widgetFromModelIndex@CpItemDataHelper@@QAEPAVHbWidget@@ABVQModelIndex@@@Z @ 111 NONAME ; class HbWidget * CpItemDataHelper::widgetFromModelIndex(class QModelIndex const &)
	??0LogOutput@@IAE@PAVLogger@@@Z @ 112 NONAME ABSENT ; LogOutput::LogOutput(class Logger *)
	?staticMetaObject@LogOutput@@2UQMetaObject@@B @ 113 NONAME ABSENT ; struct QMetaObject const LogOutput::staticMetaObject
	?trUtf8@CpSettingFormEntryItemData@@SA?AVQString@@PBD0@Z @ 114 NONAME ; class QString CpSettingFormEntryItemData::trUtf8(char const *, char const *)
	?name@LogOutput@@QBE?AVQString@@XZ @ 115 NONAME ABSENT ; class QString LogOutput::name(void) const
	?tr@CpItemDataHelper@@SA?AVQString@@PBD0@Z @ 116 NONAME ; class QString CpItemDataHelper::tr(char const *, char const *)
	?getStaticMetaObject@CpItemDataHelper@@SAABUQMetaObject@@XZ @ 117 NONAME ; struct QMetaObject const & CpItemDataHelper::getStaticMetaObject(void)
	?qt_metacast@CpSettingFormEntryItemData@@UAEPAXPBD@Z @ 118 NONAME ; void * CpSettingFormEntryItemData::qt_metacast(char const *)
	?logLoggerName@Logger@@QBE_NXZ @ 119 NONAME ABSENT ; bool Logger::logLoggerName(void) const
	?qt_metacall@CpItemDataHelper@@UAEHW4Call@QMetaObject@@HPAPAX@Z @ 120 NONAME ; int CpItemDataHelper::qt_metacall(enum QMetaObject::Call, int, void * *)
	?metaObject@CpSettingFormEntryItemData@@UBEPBUQMetaObject@@XZ @ 121 NONAME ; struct QMetaObject const * CpSettingFormEntryItemData::metaObject(void) const
	?qt_metacast@Logger@@UAEPAXPBD@Z @ 122 NONAME ABSENT ; void * Logger::qt_metacast(char const *)
	?addItemPrototype@CpItemDataHelper@@QAEXPAVHbAbstractViewItem@@@Z @ 123 NONAME ; void CpItemDataHelper::addItemPrototype(class HbAbstractViewItem *)
	?trUtf8@CpBaseSettingView@@SA?AVQString@@PBD0@Z @ 124 NONAME ; class QString CpBaseSettingView::trUtf8(char const *, char const *)
	?getStaticMetaObject@LogOutput@@SAABUQMetaObject@@XZ @ 125 NONAME ABSENT ; struct QMetaObject const & LogOutput::getStaticMetaObject(void)
	?createLogOutput@LogOutputFactory@@SAPAVLogOutput@@ABVQString@@ABV?$QHash@VQString@@VQVariant@@@@@Z @ 126 NONAME ABSENT ; class LogOutput * LogOutputFactory::createLogOutput(class QString const &, class QHash<class QString, class QVariant> const &)
	?addCreateLogOutputEntry@LogOutputFactory@@SAXABVQString@@P6APAVLogOutput@@XZ@Z @ 127 NONAME ABSENT ; void LogOutputFactory::addCreateLogOutputEntry(class QString const &, class LogOutput * (*)(void))
	?configure@Logger@@QAEXAAVQSettings@@@Z @ 128 NONAME ABSENT ; void Logger::configure(class QSettings &)
	?loadCpPlugin@CpPluginLoader@@SAPAVCpPluginInterface@@ABVQString@@@Z @ 129 NONAME ABSENT ; class CpPluginInterface * CpPluginLoader::loadCpPlugin(class QString const &)
	??1CpBaseSettingView@@UAE@XZ @ 130 NONAME ; CpBaseSettingView::~CpBaseSettingView(void)
	??0CpSettingFormEntryItemData@@QAE@W4EntryItemType@0@AAVCpItemDataHelper@@ABVQString@@22PBVHbDataFormModelItem@@@Z @ 131 NONAME ; CpSettingFormEntryItemData::CpSettingFormEntryItemData(enum CpSettingFormEntryItemData::EntryItemType, class CpItemDataHelper &, class QString const &, class QString const &, class QString const &, class HbDataFormModelItem const *)
	?metaObject@CpSettingFormItemData@@UBEPBUQMetaObject@@XZ @ 132 NONAME ; struct QMetaObject const * CpSettingFormItemData::metaObject(void) const
	?tr@LogOutput@@SA?AVQString@@PBD0H@Z @ 133 NONAME ABSENT ; class QString LogOutput::tr(char const *, char const *, int)
	?trUtf8@Logger@@SA?AVQString@@PBD0H@Z @ 134 NONAME ABSENT ; class QString Logger::trUtf8(char const *, char const *, int)
	?trUtf8@Logger@@SA?AVQString@@PBD0@Z @ 135 NONAME ABSENT ; class QString Logger::trUtf8(char const *, char const *)

