EXPORTS
	??0CUpnpAVControlPoint@@IAE@AAVMUpnpAVControlPointObserver@@@Z @ 1 NONAME ; CUpnpAVControlPoint::CUpnpAVControlPoint(class MUpnpAVControlPointObserver &)
	??1CUpnpAVControlPoint@@UAE@XZ @ 2 NONAME ; CUpnpAVControlPoint::~CUpnpAVControlPoint(void)
	?ActionResponseReceivedL@CUpnpAVControlPoint@@MAEXPAVCUpnpAction@@@Z @ 3 NONAME ; void CUpnpAVControlPoint::ActionResponseReceivedL(class CUpnpAction *)
	?AddressChangedL@CUpnpAVControlPoint@@UAEXXZ @ 4 NONAME ABSENT ; void CUpnpAVControlPoint::AddressChangedL(void)
	?AvtDeviceCapabilitiesActionL@CUpnpAVControlPoint@@QAEHABVTDesC8@@H@Z @ 5 NONAME ; int CUpnpAVControlPoint::AvtDeviceCapabilitiesActionL(class TDesC8 const &, int)
	?AvtMediaInfoActionL@CUpnpAVControlPoint@@QAEHABVTDesC8@@H@Z @ 6 NONAME ; int CUpnpAVControlPoint::AvtMediaInfoActionL(class TDesC8 const &, int)
	?AvtNextActionL@CUpnpAVControlPoint@@QAEHABVTDesC8@@H@Z @ 7 NONAME ; int CUpnpAVControlPoint::AvtNextActionL(class TDesC8 const &, int)
	?AvtPauseActionL@CUpnpAVControlPoint@@QAEHABVTDesC8@@H@Z @ 8 NONAME ; int CUpnpAVControlPoint::AvtPauseActionL(class TDesC8 const &, int)
	?AvtPlayActionL@CUpnpAVControlPoint@@QAEHABVTDesC8@@H0@Z @ 9 NONAME ; int CUpnpAVControlPoint::AvtPlayActionL(class TDesC8 const &, int, class TDesC8 const &)
	?AvtPositionInfoActionL@CUpnpAVControlPoint@@QAEHABVTDesC8@@H@Z @ 10 NONAME ; int CUpnpAVControlPoint::AvtPositionInfoActionL(class TDesC8 const &, int)
	?AvtPreviousActionL@CUpnpAVControlPoint@@QAEHABVTDesC8@@H@Z @ 11 NONAME ; int CUpnpAVControlPoint::AvtPreviousActionL(class TDesC8 const &, int)
	?AvtRecordActionL@CUpnpAVControlPoint@@QAEHABVTDesC8@@H@Z @ 12 NONAME ; int CUpnpAVControlPoint::AvtRecordActionL(class TDesC8 const &, int)
	?AvtSeekActionL@CUpnpAVControlPoint@@QAEHABVTDesC8@@H00@Z @ 13 NONAME ; int CUpnpAVControlPoint::AvtSeekActionL(class TDesC8 const &, int, class TDesC8 const &, class TDesC8 const &)
	?AvtSetNextTransportUriActionL@CUpnpAVControlPoint@@QAEHABVTDesC8@@H00@Z @ 14 NONAME ; int CUpnpAVControlPoint::AvtSetNextTransportUriActionL(class TDesC8 const &, int, class TDesC8 const &, class TDesC8 const &)
	?AvtSetPlayModeActionL@CUpnpAVControlPoint@@QAEHABVTDesC8@@H0@Z @ 15 NONAME ; int CUpnpAVControlPoint::AvtSetPlayModeActionL(class TDesC8 const &, int, class TDesC8 const &)
	?AvtSetRecordModeActionL@CUpnpAVControlPoint@@QAEHABVTDesC8@@H0@Z @ 16 NONAME ; int CUpnpAVControlPoint::AvtSetRecordModeActionL(class TDesC8 const &, int, class TDesC8 const &)
	?AvtSetTransportUriActionL@CUpnpAVControlPoint@@QAEHABVTDesC8@@H00@Z @ 17 NONAME ; int CUpnpAVControlPoint::AvtSetTransportUriActionL(class TDesC8 const &, int, class TDesC8 const &, class TDesC8 const &)
	?AvtStopActionL@CUpnpAVControlPoint@@QAEHABVTDesC8@@H@Z @ 18 NONAME ; int CUpnpAVControlPoint::AvtStopActionL(class TDesC8 const &, int)
	?AvtTransportInfoActionL@CUpnpAVControlPoint@@QAEHABVTDesC8@@H@Z @ 19 NONAME ; int CUpnpAVControlPoint::AvtTransportInfoActionL(class TDesC8 const &, int)
	?AvtTransportSettingsActionL@CUpnpAVControlPoint@@QAEHABVTDesC8@@H@Z @ 20 NONAME ; int CUpnpAVControlPoint::AvtTransportSettingsActionL(class TDesC8 const &, int)
	?AvtTransportsActionL@CUpnpAVControlPoint@@QAEHABVTDesC8@@H@Z @ 21 NONAME ; int CUpnpAVControlPoint::AvtTransportsActionL(class TDesC8 const &, int)
	?CdsBrowseActionL@CUpnpAVControlPoint@@QAEHABVTDesC8@@000HH0@Z @ 22 NONAME ; int CUpnpAVControlPoint::CdsBrowseActionL(class TDesC8 const &, class TDesC8 const &, class TDesC8 const &, class TDesC8 const &, int, int, class TDesC8 const &)
	?CdsCreateObjectActionL@CUpnpAVControlPoint@@QAEHABVTDesC8@@00@Z @ 23 NONAME ; int CUpnpAVControlPoint::CdsCreateObjectActionL(class TDesC8 const &, class TDesC8 const &, class TDesC8 const &)
	?CdsCreateReferenceActionL@CUpnpAVControlPoint@@QAEHABVTDesC8@@00@Z @ 24 NONAME ; int CUpnpAVControlPoint::CdsCreateReferenceActionL(class TDesC8 const &, class TDesC8 const &, class TDesC8 const &)
	?CdsDeleteResourceActionL@CUpnpAVControlPoint@@QAEHABVTDesC8@@0@Z @ 25 NONAME ; int CUpnpAVControlPoint::CdsDeleteResourceActionL(class TDesC8 const &, class TDesC8 const &)
	?CdsDestroyObjectActionL@CUpnpAVControlPoint@@QAEHABVTDesC8@@0@Z @ 26 NONAME ; int CUpnpAVControlPoint::CdsDestroyObjectActionL(class TDesC8 const &, class TDesC8 const &)
	?CdsExportResourceActionL@CUpnpAVControlPoint@@QAEHABVTDesC8@@00@Z @ 27 NONAME ; int CUpnpAVControlPoint::CdsExportResourceActionL(class TDesC8 const &, class TDesC8 const &, class TDesC8 const &)
	?CdsImportResourceActionL@CUpnpAVControlPoint@@QAEHABVTDesC8@@00@Z @ 28 NONAME ; int CUpnpAVControlPoint::CdsImportResourceActionL(class TDesC8 const &, class TDesC8 const &, class TDesC8 const &)
	?CdsSearchActionL@CUpnpAVControlPoint@@QAEHABVTDesC8@@000HH0@Z @ 29 NONAME ; int CUpnpAVControlPoint::CdsSearchActionL(class TDesC8 const &, class TDesC8 const &, class TDesC8 const &, class TDesC8 const &, int, int, class TDesC8 const &)
	?CdsSearchCapabilitiesActionL@CUpnpAVControlPoint@@QAEHABVTDesC8@@@Z @ 30 NONAME ; int CUpnpAVControlPoint::CdsSearchCapabilitiesActionL(class TDesC8 const &)
	?CdsSortCapabilitiesActionL@CUpnpAVControlPoint@@QAEHABVTDesC8@@@Z @ 31 NONAME ; int CUpnpAVControlPoint::CdsSortCapabilitiesActionL(class TDesC8 const &)
	?CdsStopTransferActionL@CUpnpAVControlPoint@@QAEHABVTDesC8@@H@Z @ 32 NONAME ; int CUpnpAVControlPoint::CdsStopTransferActionL(class TDesC8 const &, int)
	?CdsSystemUpdateIdActionL@CUpnpAVControlPoint@@QAEHABVTDesC8@@@Z @ 33 NONAME ; int CUpnpAVControlPoint::CdsSystemUpdateIdActionL(class TDesC8 const &)
	?CdsTransferProgressActionL@CUpnpAVControlPoint@@QAEHABVTDesC8@@H@Z @ 34 NONAME ; int CUpnpAVControlPoint::CdsTransferProgressActionL(class TDesC8 const &, int)
	?CdsUpdateObjectActionL@CUpnpAVControlPoint@@QAEHABVTDesC8@@000@Z @ 35 NONAME ; int CUpnpAVControlPoint::CdsUpdateObjectActionL(class TDesC8 const &, class TDesC8 const &, class TDesC8 const &, class TDesC8 const &)
	?CmConnectionCompleteActionL@CUpnpAVControlPoint@@QAEHABVTDesC8@@H@Z @ 36 NONAME ; int CUpnpAVControlPoint::CmConnectionCompleteActionL(class TDesC8 const &, int)
	?CmCurrentConnectionInfoActionL@CUpnpAVControlPoint@@QAEHABVTDesC8@@H@Z @ 37 NONAME ; int CUpnpAVControlPoint::CmCurrentConnectionInfoActionL(class TDesC8 const &, int)
	?CmCurrentConnectionsActionL@CUpnpAVControlPoint@@QAEHABVTDesC8@@@Z @ 38 NONAME ; int CUpnpAVControlPoint::CmCurrentConnectionsActionL(class TDesC8 const &)
	?CmPrepareConnectionActionL@CUpnpAVControlPoint@@QAEHABVTDesC8@@00H0@Z @ 39 NONAME ; int CUpnpAVControlPoint::CmPrepareConnectionActionL(class TDesC8 const &, class TDesC8 const &, class TDesC8 const &, int, class TDesC8 const &)
	?CmProtocolInfoActionL@CUpnpAVControlPoint@@QAEHABVTDesC8@@@Z @ 40 NONAME ; int CUpnpAVControlPoint::CmProtocolInfoActionL(class TDesC8 const &)
	?ConstructL@CUpnpAVControlPoint@@IAEXXZ @ 41 NONAME ; void CUpnpAVControlPoint::ConstructL(void)
	?DeviceDisappearedL@CUpnpAVControlPoint@@MAEXPAVCUpnpDevice@@@Z @ 42 NONAME ; void CUpnpAVControlPoint::DeviceDisappearedL(class CUpnpDevice *)
	?DeviceDiscoveredL@CUpnpAVControlPoint@@MAEXPAVCUpnpDevice@@@Z @ 43 NONAME ; void CUpnpAVControlPoint::DeviceDiscoveredL(class CUpnpDevice *)
	?HttpResponseReceivedL@CUpnpAVControlPoint@@MAEXPAVCUpnpHttpMessage@@@Z @ 44 NONAME ; void CUpnpAVControlPoint::HttpResponseReceivedL(class CUpnpHttpMessage *)
	?InitializeCdsActionFactoryL@CUpnpAVControlPoint@@IAEXXZ @ 45 NONAME ; void CUpnpAVControlPoint::InitializeCdsActionFactoryL(void)
	?NewL@CUpnpAVControlPoint@@SAPAV1@AAVMUpnpAVControlPointObserver@@@Z @ 46 NONAME ; class CUpnpAVControlPoint * CUpnpAVControlPoint::NewL(class MUpnpAVControlPointObserver &)
	?RcGetMuteActionL@CUpnpAVControlPoint@@QAEHABVTDesC8@@H0@Z @ 47 NONAME ; int CUpnpAVControlPoint::RcGetMuteActionL(class TDesC8 const &, int, class TDesC8 const &)
	?RcGetVolumetActionL@CUpnpAVControlPoint@@QAEHABVTDesC8@@H0@Z @ 48 NONAME ; int CUpnpAVControlPoint::RcGetVolumetActionL(class TDesC8 const &, int, class TDesC8 const &)
	?RcSetMuteActionL@CUpnpAVControlPoint@@QAEHABVTDesC8@@H00@Z @ 49 NONAME ; int CUpnpAVControlPoint::RcSetMuteActionL(class TDesC8 const &, int, class TDesC8 const &, class TDesC8 const &)
	?RcSetVolumetActionL@CUpnpAVControlPoint@@QAEHABVTDesC8@@H0H@Z @ 50 NONAME ; int CUpnpAVControlPoint::RcSetVolumetActionL(class TDesC8 const &, int, class TDesC8 const &, int)
	?Service@CUpnpAVControlPoint@@QAEPAVCUpnpService@@PAVCUpnpDevice@@ABVTDesC8@@@Z @ 51 NONAME ; class CUpnpService * CUpnpAVControlPoint::Service(class CUpnpDevice *, class TDesC8 const &)
	?StateUpdatedL@CUpnpAVControlPoint@@MAEXPAVCUpnpService@@@Z @ 52 NONAME ; void CUpnpAVControlPoint::StateUpdatedL(class CUpnpService *)
	?NetworkEvent@CUpnpAVControlPoint@@UAEXPAVCUpnpNetworkEventBase@@@Z @ 53 NONAME ; void CUpnpAVControlPoint::NetworkEvent(class CUpnpNetworkEventBase *)

