EXPORTS
	_ZN13CUpnpMetadata10SetArtistLERK6TDesC8 @ 1 NONAME
	_ZN13CUpnpMetadata11SetCreatorLERK6TDesC8 @ 2 NONAME
	_ZN13CUpnpMetadata3IdLEv @ 3 NONAME
	_ZN13CUpnpMetadata4NewLER23RUpnpAVCPEngineMSClient @ 4 NONAME
	_ZN13CUpnpMetadata6AlbumLEv @ 5 NONAME
	_ZN13CUpnpMetadata6AsXmlLEv @ 6 NONAME
	_ZN13CUpnpMetadata6ClassLEv @ 7 NONAME
	_ZN13CUpnpMetadata6FetchLERK7TDesC16 @ 8 NONAME
	_ZN13CUpnpMetadata6FetchLERK7TDesC16R14TRequestStatus @ 9 NONAME
	_ZN13CUpnpMetadata6GenreLEv @ 10 NONAME
	_ZN13CUpnpMetadata6TitleLEv @ 11 NONAME
	_ZN13CUpnpMetadata7ArtistLEv @ 12 NONAME
	_ZN13CUpnpMetadata7CommitLER14TRequestStatus @ 13 NONAME
	_ZN13CUpnpMetadata7CommitLEv @ 14 NONAME
	_ZN13CUpnpMetadata8CreatorLEv @ 15 NONAME
	_ZN13CUpnpMetadata9SetAlbumLERK6TDesC8 @ 16 NONAME
	_ZN13CUpnpMetadata9SetClassLERK6TDesC8 @ 17 NONAME
	_ZN13CUpnpMetadata9SetGenreLERK6TDesC8 @ 18 NONAME
	_ZN13CUpnpMetadata9SetTitleLERK6TDesC8 @ 19 NONAME
	_ZN21RUpnpAVCPEngineClient7ConnectEv @ 20 NONAME
	_ZN23RUpnpAVCPEngineMSClient14GetDeviceListLER6RArrayI9TAVDeviceE @ 21 NONAME
	_ZN23RUpnpAVCPEngineMSClientC1Ev @ 22 NONAME
	_ZN23RUpnpAVCPEngineMSClientC2Ev @ 23 NONAME
	_ZN24RUpnpAVCPEngineRFSClient11CreateFileLERK6TDesC8RK7TDesC16 @ 24 NONAME
	_ZN24RUpnpAVCPEngineRFSClient11DeleteFileLERK6TDesC8RK7TDesC16 @ 25 NONAME
	_ZN24RUpnpAVCPEngineRFSClient13GetDirectoryLERK6TDesC8RK7TDesC16R13RPointerArrayI11CRsfwDirEntE @ 26 NONAME
	_ZN24RUpnpAVCPEngineRFSClient14MakeDirectoryLERK6TDesC8RK7TDesC16 @ 27 NONAME
	_ZN24RUpnpAVCPEngineRFSClient16DeleteDirectoryLERK6TDesC8RK7TDesC16 @ 28 NONAME
	_ZN24RUpnpAVCPEngineRFSClient17GetFileAttributeLERK6TDesC8RK7TDesC16RP15CRsfwDirEntAttr @ 29 NONAME
	_ZN24RUpnpAVCPEngineRFSClient22GetDirectoryAttributeLERK6TDesC8RK7TDesC16RP15CRsfwDirEntAttr @ 30 NONAME
	_ZN24RUpnpAVCPEngineRFSClient8GetFileLERK6TDesC8RK7TDesC16S5_iijRi @ 31 NONAME
	_ZN24RUpnpAVCPEngineRFSClient8PutFileLERK6TDesC8RK7TDesC16S5_ @ 32 NONAME
	_ZN24RUpnpAVCPEngineRFSClientC1Ev @ 33 NONAME
	_ZN24RUpnpAVCPEngineRFSClientC2Ev @ 34 NONAME
	_ZTI13CUpnpMetadata @ 35 NONAME ; #<TI>#
	_ZTI21RUpnpAVCPEngineClient @ 36 NONAME ; #<TI>#
	_ZTV13CUpnpMetadata @ 37 NONAME ; #<VT>#
	_ZTV21RUpnpAVCPEngineClient @ 38 NONAME ; #<VT>#

