EXPORTS
	_ZN3DRM18CDrmAutomatedUsage13SetAutomatedLER5RFileN13ContentAccess7TIntentENS_17TDrmAutomatedTypeENS_24TDrmAutomatedServiceTypeE @ 1 NONAME
	_ZN3DRM18CDrmAutomatedUsage13SetAutomatedLERKN13ContentAccess5CDataENS1_7TIntentENS_17TDrmAutomatedTypeENS_24TDrmAutomatedServiceTypeE @ 2 NONAME
	_ZN3DRM18CDrmAutomatedUsage15CancelOperationEi @ 3 NONAME
	_ZN3DRM18CDrmAutomatedUsage16CanSetAutomatedLER5RFileN13ContentAccess7TIntentENS_17TDrmAutomatedTypeE @ 4 NONAME
	_ZN3DRM18CDrmAutomatedUsage16CanSetAutomatedLERKN13ContentAccess5CDataENS1_7TIntentENS_17TDrmAutomatedTypeE @ 5 NONAME
	_ZN3DRM18CDrmAutomatedUsage16RemoveAutomatedLER5RFileN13ContentAccess7TIntentENS_17TDrmAutomatedTypeENS_24TDrmAutomatedServiceTypeE @ 6 NONAME
	_ZN3DRM18CDrmAutomatedUsage16RemoveAutomatedLERK7TDesC16N13ContentAccess7TIntentENS_17TDrmAutomatedTypeENS_24TDrmAutomatedServiceTypeE @ 7 NONAME
	_ZN3DRM18CDrmAutomatedUsage16RemoveAutomatedLERKN13ContentAccess5CDataENS1_7TIntentENS_17TDrmAutomatedTypeENS_24TDrmAutomatedServiceTypeE @ 8 NONAME
	_ZN3DRM18CDrmAutomatedUsage18SetAutomatedAsyncLER5RFileN13ContentAccess7TIntentENS_17TDrmAutomatedTypeERNS_17MDrmAsyncObserverENS_24TDrmAutomatedServiceTypeE @ 9 NONAME
	_ZN3DRM18CDrmAutomatedUsage18SetAutomatedAsyncLERKN13ContentAccess5CDataENS1_7TIntentENS_17TDrmAutomatedTypeERNS_17MDrmAsyncObserverENS_24TDrmAutomatedServiceTypeE @ 10 NONAME
	_ZN3DRM18CDrmAutomatedUsage21RemoveAutomatedAsyncLER5RFileN13ContentAccess7TIntentENS_17TDrmAutomatedTypeERNS_17MDrmAsyncObserverENS_24TDrmAutomatedServiceTypeE @ 11 NONAME
	_ZN3DRM18CDrmAutomatedUsage21RemoveAutomatedAsyncLERK7TDesC16N13ContentAccess7TIntentENS_17TDrmAutomatedTypeERNS_17MDrmAsyncObserverENS_24TDrmAutomatedServiceTypeE @ 12 NONAME
	_ZN3DRM18CDrmAutomatedUsage21RemoveAutomatedAsyncLERKN13ContentAccess5CDataENS1_7TIntentENS_17TDrmAutomatedTypeERNS_17MDrmAsyncObserverENS_24TDrmAutomatedServiceTypeE @ 13 NONAME
	_ZN3DRM18CDrmAutomatedUsage22RegisterEventObserverLERNS_26MDrmAutomatedUsageObserverE @ 14 NONAME
	_ZN3DRM18CDrmAutomatedUsage24UnregisterEventObserverLERNS_26MDrmAutomatedUsageObserverE @ 15 NONAME
	_ZN3DRM18CDrmAutomatedUsage4NewLEP7CCoeEnv @ 16 NONAME
	_ZN3DRM18CDrmAutomatedUsage5NewLCEP7CCoeEnv @ 17 NONAME
	_ZN3DRM31CDrmAutomatedUsageErrorHandling12HandleErrorLER5RFileN13ContentAccess7TIntentEiPNS_23MDrmHandleErrorObserverE @ 18 NONAME
	_ZN3DRM31CDrmAutomatedUsageErrorHandling12HandleErrorLERN13ContentAccess5CDataENS1_7TIntentEiPNS_23MDrmHandleErrorObserverE @ 19 NONAME
	_ZN3DRM31CDrmAutomatedUsageErrorHandling17HandleErrorAsyncLER5RFileN13ContentAccess7TIntentEiRNS_23MDrmHandleErrorObserverE @ 20 NONAME
	_ZN3DRM31CDrmAutomatedUsageErrorHandling17HandleErrorAsyncLERN13ContentAccess5CDataENS1_7TIntentEiRNS_23MDrmHandleErrorObserverE @ 21 NONAME
	_ZN3DRM31CDrmAutomatedUsageErrorHandling4NewLEPNS_22CDrmAutomatedUsageImplE @ 22 NONAME
	_ZN3DRM31CDrmAutomatedUsageErrorHandling5NewLCEPNS_22CDrmAutomatedUsageImplE @ 23 NONAME
	_ZNK3DRM18CDrmAutomatedUsage10GetUtilityEv @ 24 NONAME
	_ZNK3DRM18CDrmAutomatedUsage15GetErrorHandlerEv @ 25 NONAME
	_ZThn4_N3DRM31CDrmAutomatedUsageErrorHandling12HandleErrorLER5RFileN13ContentAccess7TIntentEiPNS_23MDrmHandleErrorObserverE @ 26 NONAME ; #<thunk>#
	_ZThn4_N3DRM31CDrmAutomatedUsageErrorHandling12HandleErrorLERN13ContentAccess5CDataENS1_7TIntentEiPNS_23MDrmHandleErrorObserverE @ 27 NONAME ; #<thunk>#
	_ZThn4_N3DRM31CDrmAutomatedUsageErrorHandling17HandleErrorAsyncLER5RFileN13ContentAccess7TIntentEiRNS_23MDrmHandleErrorObserverE @ 28 NONAME ; #<thunk>#
	_ZThn4_N3DRM31CDrmAutomatedUsageErrorHandling17HandleErrorAsyncLERN13ContentAccess5CDataENS1_7TIntentEiRNS_23MDrmHandleErrorObserverE @ 29 NONAME ; #<thunk>#

