EXPORTS
	_ZN3DRM22CDrmAutomatedUsageImpl12HandleErrorLER5RFileN13ContentAccess7TIntentEiPNS_23MDrmHandleErrorObserverE @ 1 NONAME
	_ZN3DRM22CDrmAutomatedUsageImpl12HandleErrorLERN13ContentAccess5CDataENS1_7TIntentEiPNS_23MDrmHandleErrorObserverE @ 2 NONAME
	_ZN3DRM22CDrmAutomatedUsageImpl13SetAutomatedLER5RFileN13ContentAccess7TIntentENS_17TDrmAutomatedTypeENS_24TDrmAutomatedServiceTypeE @ 3 NONAME
	_ZN3DRM22CDrmAutomatedUsageImpl13SetAutomatedLERKN13ContentAccess5CDataENS1_7TIntentENS_17TDrmAutomatedTypeENS_24TDrmAutomatedServiceTypeE @ 4 NONAME
	_ZN3DRM22CDrmAutomatedUsageImpl15CancelOperationEi @ 5 NONAME
	_ZN3DRM22CDrmAutomatedUsageImpl16CanSetAutomatedLER5RFileN13ContentAccess7TIntentENS_17TDrmAutomatedTypeE @ 6 NONAME
	_ZN3DRM22CDrmAutomatedUsageImpl16CanSetAutomatedLERKN13ContentAccess5CDataENS1_7TIntentENS_17TDrmAutomatedTypeE @ 7 NONAME
	_ZN3DRM22CDrmAutomatedUsageImpl16RemoveAutomatedLER5RFileN13ContentAccess7TIntentENS_17TDrmAutomatedTypeENS_24TDrmAutomatedServiceTypeE @ 8 NONAME
	_ZN3DRM22CDrmAutomatedUsageImpl16RemoveAutomatedLERK7TDesC16N13ContentAccess7TIntentENS_17TDrmAutomatedTypeENS_24TDrmAutomatedServiceTypeE @ 9 NONAME
	_ZN3DRM22CDrmAutomatedUsageImpl16RemoveAutomatedLERKN13ContentAccess5CDataENS1_7TIntentENS_17TDrmAutomatedTypeENS_24TDrmAutomatedServiceTypeE @ 10 NONAME
	_ZN3DRM22CDrmAutomatedUsageImpl17HandleErrorAsyncLER5RFileN13ContentAccess7TIntentEiRNS_23MDrmHandleErrorObserverE @ 11 NONAME
	_ZN3DRM22CDrmAutomatedUsageImpl17HandleErrorAsyncLERN13ContentAccess5CDataENS1_7TIntentEiRNS_23MDrmHandleErrorObserverE @ 12 NONAME
	_ZN3DRM22CDrmAutomatedUsageImpl18SetAutomatedAsyncLER5RFileN13ContentAccess7TIntentENS_17TDrmAutomatedTypeERNS_17MDrmAsyncObserverENS_24TDrmAutomatedServiceTypeE @ 13 NONAME
	_ZN3DRM22CDrmAutomatedUsageImpl18SetAutomatedAsyncLERKN13ContentAccess5CDataENS1_7TIntentENS_17TDrmAutomatedTypeERNS_17MDrmAsyncObserverENS_24TDrmAutomatedServiceTypeE @ 14 NONAME
	_ZN3DRM22CDrmAutomatedUsageImpl21RemoveAutomatedAsyncLER5RFileN13ContentAccess7TIntentENS_17TDrmAutomatedTypeERNS_17MDrmAsyncObserverENS_24TDrmAutomatedServiceTypeE @ 15 NONAME
	_ZN3DRM22CDrmAutomatedUsageImpl21RemoveAutomatedAsyncLERK7TDesC16N13ContentAccess7TIntentENS_17TDrmAutomatedTypeERNS_17MDrmAsyncObserverENS_24TDrmAutomatedServiceTypeE @ 16 NONAME
	_ZN3DRM22CDrmAutomatedUsageImpl21RemoveAutomatedAsyncLERKN13ContentAccess5CDataENS1_7TIntentENS_17TDrmAutomatedTypeERNS_17MDrmAsyncObserverENS_24TDrmAutomatedServiceTypeE @ 17 NONAME
	_ZN3DRM22CDrmAutomatedUsageImpl22RegisterEventObserverLERNS_26MDrmAutomatedUsageObserverE @ 18 NONAME
	_ZN3DRM22CDrmAutomatedUsageImpl24UnregisterEventObserverLERNS_26MDrmAutomatedUsageObserverE @ 19 NONAME
	_ZN3DRM22CDrmAutomatedUsageImpl4NewLEP7CCoeEnvPNS_11CDrmUtilityE @ 20 NONAME
	_ZN3DRM22CDrmAutomatedUsageImpl5NewLCEP7CCoeEnvPNS_11CDrmUtilityE @ 21 NONAME

