EXPORTS
	_ZN3DRM14CDrmUiHandling10HandleUrlLER5RFileNS_13TDrmUiUrlTypeE @ 1 NONAME
	_ZN3DRM14CDrmUiHandling10HandleUrlLERN13ContentAccess5CDataENS_13TDrmUiUrlTypeE @ 2 NONAME
	_ZN3DRM14CDrmUiHandling14AvailableUrlsLER5RFileRNS_13TDrmUiUrlTypeE @ 3 NONAME
	_ZN3DRM14CDrmUiHandling14AvailableUrlsLERN13ContentAccess5CDataERNS_13TDrmUiUrlTypeE @ 4 NONAME
	_ZN3DRM14CDrmUiHandling15CancelOperationEi @ 5 NONAME
	_ZN3DRM14CDrmUiHandling15HandleUrlAsyncLER5RFileNS_13TDrmUiUrlTypeERNS_17MDrmAsyncObserverE @ 6 NONAME
	_ZN3DRM14CDrmUiHandling15HandleUrlAsyncLERN13ContentAccess5CDataENS_13TDrmUiUrlTypeERNS_17MDrmAsyncObserverE @ 7 NONAME
	_ZN3DRM14CDrmUiHandling16ShowDetailsViewLER5RFile @ 8 NONAME
	_ZN3DRM14CDrmUiHandling16ShowDetailsViewLERN13ContentAccess5CDataE @ 9 NONAME
	_ZN3DRM14CDrmUiHandling18CheckRightsAmountLER5RFileN13ContentAccess7TIntentEPNS_25MDrmUiCheckRightsObserverE @ 10 NONAME
	_ZN3DRM14CDrmUiHandling18CheckRightsAmountLERN13ContentAccess5CDataENS1_7TIntentEPNS_25MDrmUiCheckRightsObserverE @ 11 NONAME
	_ZN3DRM14CDrmUiHandling19AvailableUrlsAsyncLER5RFileRNS_13TDrmUiUrlTypeERNS_17MDrmAsyncObserverE @ 12 NONAME
	_ZN3DRM14CDrmUiHandling19AvailableUrlsAsyncLERN13ContentAccess5CDataERNS_13TDrmUiUrlTypeERNS_17MDrmAsyncObserverE @ 13 NONAME
	_ZN3DRM14CDrmUiHandling21ShowDetailsViewAsyncLER5RFileRNS_17MDrmAsyncObserverE @ 14 NONAME
	_ZN3DRM14CDrmUiHandling21ShowDetailsViewAsyncLERN13ContentAccess5CDataERNS_17MDrmAsyncObserverE @ 15 NONAME
	_ZN3DRM14CDrmUiHandling23CheckRightsAmountAsyncLER5RFileN13ContentAccess7TIntentERNS_25MDrmUiCheckRightsObserverE @ 16 NONAME
	_ZN3DRM14CDrmUiHandling23CheckRightsAmountAsyncLERN13ContentAccess5CDataENS1_7TIntentERNS_25MDrmUiCheckRightsObserverE @ 17 NONAME
	_ZN3DRM14CDrmUiHandling4NewLEP7CCoeEnv @ 18 NONAME
	_ZN3DRM14CDrmUiHandling5NewLCEP7CCoeEnv @ 19 NONAME
	_ZN3DRM19CDrmUiErrorHandling12HandleErrorLER5RFileN13ContentAccess7TIntentEiPNS_23MDrmHandleErrorObserverE @ 20 NONAME
	_ZN3DRM19CDrmUiErrorHandling12HandleErrorLERN13ContentAccess5CDataENS1_7TIntentEiPNS_23MDrmHandleErrorObserverE @ 21 NONAME
	_ZN3DRM19CDrmUiErrorHandling17HandleErrorAsyncLER5RFileN13ContentAccess7TIntentEiRNS_23MDrmHandleErrorObserverE @ 22 NONAME
	_ZN3DRM19CDrmUiErrorHandling17HandleErrorAsyncLERN13ContentAccess5CDataENS1_7TIntentEiRNS_23MDrmHandleErrorObserverE @ 23 NONAME
	_ZN3DRM19CDrmUiErrorHandling4NewLEPNS_18CDrmUiHandlingImplE @ 24 NONAME
	_ZN3DRM19CDrmUiErrorHandling5NewLCEPNS_18CDrmUiHandlingImplE @ 25 NONAME
	_ZNK3DRM14CDrmUiHandling10GetUtilityEv @ 26 NONAME
	_ZNK3DRM14CDrmUiHandling15GetErrorHandlerEv @ 27 NONAME
	_ZThn4_N3DRM19CDrmUiErrorHandling12HandleErrorLER5RFileN13ContentAccess7TIntentEiPNS_23MDrmHandleErrorObserverE @ 28 NONAME ; #<thunk>#
	_ZThn4_N3DRM19CDrmUiErrorHandling12HandleErrorLERN13ContentAccess5CDataENS1_7TIntentEiPNS_23MDrmHandleErrorObserverE @ 29 NONAME ; #<thunk>#
	_ZThn4_N3DRM19CDrmUiErrorHandling17HandleErrorAsyncLER5RFileN13ContentAccess7TIntentEiRNS_23MDrmHandleErrorObserverE @ 30 NONAME ; #<thunk>#
	_ZThn4_N3DRM19CDrmUiErrorHandling17HandleErrorAsyncLERN13ContentAccess5CDataENS1_7TIntentEiRNS_23MDrmHandleErrorObserverE @ 31 NONAME ; #<thunk>#

