EXPORTS
	_ZN3DRM13CDrmUtilityUI12DisplayNoteLER7TDesC16iRKS1_i @ 1 NONAME
	_ZN3DRM13CDrmUtilityUI12DisplayNoteLEi @ 2 NONAME
	_ZN3DRM13CDrmUtilityUI12DisplayNoteLEiRK7TDesC16 @ 3 NONAME
	_ZN3DRM13CDrmUtilityUI12DisplayNoteLEii @ 4 NONAME
	_ZN3DRM13CDrmUtilityUI13DisplayQueryLER7TDesC16i @ 5 NONAME
	_ZN3DRM13CDrmUtilityUI13DisplayQueryLEiRK7TDesC16 @ 6 NONAME
	_ZN3DRM13CDrmUtilityUI13DisplayQueryLEiRK7TDesC16iii @ 7 NONAME
	_ZN3DRM13CDrmUtilityUI13DisplayQueryLEii @ 8 NONAME
	_ZN3DRM13CDrmUtilityUI18SetAutomatedQueryLEP14CDRMConstraint @ 9 NONAME
	_ZN3DRM13CDrmUtilityUI19DisplayQueryWithIdLEii @ 10 NONAME
	_ZN3DRM13CDrmUtilityUI21ShowFutureRightsNoteLEP14CDRMConstraint @ 11 NONAME
	_ZN3DRM13CDrmUtilityUI24DisplayQueryWithIdValueLEiiRK7TDesC16 @ 12 NONAME
	_ZN3DRM13CDrmUtilityUI30DisplayPopupWindowsForPreviewLERN13ContentAccess5CDataEii @ 13 NONAME
	_ZN3DRM13CDrmUtilityUI4NewLEP7CCoeEnv @ 14 NONAME
	_ZN3DRM13CDrmUtilityUI5NewLCEP7CCoeEnv @ 15 NONAME
	_ZN3DRM16CDrmUtilityWMDrm10GetWrapperEv @ 16 NONAME
	_ZN3DRM16CDrmUtilityWMDrm4NewLEP7CCoeEnv @ 17 NONAME
	_ZN3DRM16CDrmUtilityWMDrm5NewLCEP7CCoeEnv @ 18 NONAME
	_ZN3DRM17CDrmUtilityCommon19GetOmaRightsStatusLERP6HBufC8N13ContentAccess7TIntentEP14CDRMConstraint @ 19 NONAME
	_ZN3DRM17CDrmUtilityCommon4NewLEv @ 20 NONAME
	_ZN3DRM17CDrmUtilityCommon5NewLCEv @ 21 NONAME

