EXPORTS
	_ZN3DRM18CDrmUiHandlingImpl10HandleUrlLER5RFileNS_13TDrmUiUrlTypeE @ 1 NONAME
	_ZN3DRM18CDrmUiHandlingImpl10HandleUrlLERN13ContentAccess5CDataENS_13TDrmUiUrlTypeE @ 2 NONAME
	_ZN3DRM18CDrmUiHandlingImpl12HandleErrorLER5RFileN13ContentAccess7TIntentEiPNS_23MDrmHandleErrorObserverE @ 3 NONAME
	_ZN3DRM18CDrmUiHandlingImpl12HandleErrorLERN13ContentAccess5CDataENS1_7TIntentEiPNS_23MDrmHandleErrorObserverE @ 4 NONAME
	_ZN3DRM18CDrmUiHandlingImpl14AvailableUrlsLER5RFileRNS_13TDrmUiUrlTypeE @ 5 NONAME
	_ZN3DRM18CDrmUiHandlingImpl14AvailableUrlsLERN13ContentAccess5CDataERNS_13TDrmUiUrlTypeE @ 6 NONAME
	_ZN3DRM18CDrmUiHandlingImpl15CancelOperationEi @ 7 NONAME
	_ZN3DRM18CDrmUiHandlingImpl15HandleUrlAsyncLER5RFileNS_13TDrmUiUrlTypeERNS_17MDrmAsyncObserverE @ 8 NONAME
	_ZN3DRM18CDrmUiHandlingImpl15HandleUrlAsyncLERN13ContentAccess5CDataENS_13TDrmUiUrlTypeERNS_17MDrmAsyncObserverE @ 9 NONAME
	_ZN3DRM18CDrmUiHandlingImpl16ShowDetailsViewLER5RFile @ 10 NONAME
	_ZN3DRM18CDrmUiHandlingImpl16ShowDetailsViewLERN13ContentAccess5CDataE @ 11 NONAME
	_ZN3DRM18CDrmUiHandlingImpl17HandleErrorAsyncLER5RFileN13ContentAccess7TIntentEiRNS_23MDrmHandleErrorObserverE @ 12 NONAME
	_ZN3DRM18CDrmUiHandlingImpl17HandleErrorAsyncLERN13ContentAccess5CDataENS1_7TIntentEiRNS_23MDrmHandleErrorObserverE @ 13 NONAME
	_ZN3DRM18CDrmUiHandlingImpl18CheckRightsAmountLER5RFileN13ContentAccess7TIntentEPNS_25MDrmUiCheckRightsObserverE @ 14 NONAME
	_ZN3DRM18CDrmUiHandlingImpl18CheckRightsAmountLERN13ContentAccess5CDataENS1_7TIntentEPNS_25MDrmUiCheckRightsObserverE @ 15 NONAME
	_ZN3DRM18CDrmUiHandlingImpl19AvailableUrlsAsyncLER5RFileRNS_13TDrmUiUrlTypeERNS_17MDrmAsyncObserverE @ 16 NONAME
	_ZN3DRM18CDrmUiHandlingImpl19AvailableUrlsAsyncLERN13ContentAccess5CDataERNS_13TDrmUiUrlTypeERNS_17MDrmAsyncObserverE @ 17 NONAME
	_ZN3DRM18CDrmUiHandlingImpl21ShowDetailsViewAsyncLER5RFileRNS_17MDrmAsyncObserverE @ 18 NONAME
	_ZN3DRM18CDrmUiHandlingImpl21ShowDetailsViewAsyncLERN13ContentAccess5CDataERNS_17MDrmAsyncObserverE @ 19 NONAME
	_ZN3DRM18CDrmUiHandlingImpl23CheckRightsAmountAsyncLER5RFileN13ContentAccess7TIntentERNS_25MDrmUiCheckRightsObserverE @ 20 NONAME
	_ZN3DRM18CDrmUiHandlingImpl23CheckRightsAmountAsyncLERN13ContentAccess5CDataENS1_7TIntentERNS_25MDrmUiCheckRightsObserverE @ 21 NONAME
	_ZN3DRM18CDrmUiHandlingImpl4NewLEPNS_11CDrmUtilityEP7CCoeEnv @ 22 NONAME
	_ZN3DRM18CDrmUiHandlingImpl5NewLCEPNS_11CDrmUtilityEP7CCoeEnv @ 23 NONAME

