EXPORTS
	??0CExportBufferBase@@QAE@H@Z @ 1 NONAME ; public: __thiscall CExportBufferBase::CExportBufferBase(int)
	??0CFileImportBuffer@@QAE@VRFile@@H@Z @ 2 NONAME ; public: __thiscall CFileImportBuffer::CFileImportBuffer(class RFile,int)
	??0CImportBufferBase@@QAE@H@Z @ 3 NONAME ; public: __thiscall CImportBufferBase::CImportBufferBase(int)
	??0TLanguageInfo@@QAE@W4TLanguage@@V?$TBuf@$0DC@@@@Z @ 4 NONAME ; public: __thiscall TLanguageInfo::TLanguageInfo(enum TLanguage,class TBuf<50>)
	??1CCnaConvInfoFileWriter@@UAE@XZ @ 5 NONAME ABSENT ; public: virtual __thiscall CCnaConvInfoFileWriter::~CCnaConvInfoFileWriter(void)
	??1CCnaConverter@@UAE@XZ @ 6 NONAME ; public: virtual __thiscall CCnaConverter::~CCnaConverter(void)
	??1CCnaConverterList@@UAE@XZ @ 7 NONAME ; public: virtual __thiscall CCnaConverterList::~CCnaConverterList(void)
	??1CCnaScanningConverterFinder@@UAE@XZ @ 8 NONAME ABSENT ; public: virtual __thiscall CCnaScanningConverterFinder::~CCnaScanningConverterFinder(void)
	??1CExportBufferBase@@UAE@XZ @ 9 NONAME ; public: virtual __thiscall CExportBufferBase::~CExportBufferBase(void)
	??1CImportBufferBase@@UAE@XZ @ 10 NONAME ; public: virtual __thiscall CImportBufferBase::~CImportBufferBase(void)
	??1CMimeInfo@@UAE@XZ @ 11 NONAME ; public: virtual __thiscall CMimeInfo::~CMimeInfo(void)
	?AddConverterL@CCnaConvInfoFileWriter@@QAEXABVCCnaConverter@@@Z @ 12 NONAME ABSENT ; public: void __thiscall CCnaConvInfoFileWriter::AddConverterL(class CCnaConverter const &)
	?AddLanguageL@CMimeInfo@@QAEXVTLanguageInfo@@@Z @ 13 NONAME ; public: void __thiscall CMimeInfo::AddLanguageL(class TLanguageInfo)
	?AddMimeFromL@CCnaConverter@@QAEXPBVCMimeInfo@@@Z @ 14 NONAME ABSENT ; public: void __thiscall CCnaConverter::AddMimeFromL(class CMimeInfo const *)
	?AddMimeToL@CCnaConverter@@QAEXPBVCMimeInfo@@@Z @ 15 NONAME ABSENT ; public: void __thiscall CCnaConverter::AddMimeToL(class CMimeInfo const *)
	?AtL@CCnaConvInfoFileReader@@QAEPAVCCnaConverter@@H@Z @ 16 NONAME ABSENT ; public: class CCnaConverter * __thiscall CCnaConvInfoFileReader::AtL(int)
	?CancelConvert@CConverterBase@@UAEXXZ @ 17 NONAME ; public: virtual void __thiscall CConverterBase::CancelConvert(void)
	?Capabilities@CConverterBase@@UAEHXZ @ 18 NONAME ; public: virtual int __thiscall CConverterBase::Capabilities(void)
	?CommitExportBufferL@CExportDynamicBuffer@@UAEXXZ @ 19 NONAME ; public: virtual void __thiscall CExportDynamicBuffer::CommitExportBufferL(void)
	?ConstructL@CExportBufferBase@@QAEXXZ @ 20 NONAME ; public: void __thiscall CExportBufferBase::ConstructL(void)
	?ConstructL@CExportDynamicBuffer@@QAEXXZ @ 21 NONAME ; public: void __thiscall CExportDynamicBuffer::ConstructL(void)
	?ConstructL@CImportBufferBase@@QAEXXZ @ 22 NONAME ; public: void __thiscall CImportBufferBase::ConstructL(void)
	?ConvFromL@CCnaConverterList@@QAE?AVTUid@@ABVTDataType@@@Z @ 23 NONAME ; public: class TUid  __thiscall CCnaConverterList::ConvFromL(class TDataType const &)
	?ConvFromListL@CCnaConverterList@@QAEXABVTDataType@@PAV?$CArrayFix@USConverterInfo@@@@@Z @ 24 NONAME ; public: void __thiscall CCnaConverterList::ConvFromListL(class TDataType const &,class CArrayFix<struct SConverterInfo> *)
	?ConvToL@CCnaConverterList@@QAE?AVTUid@@ABVTDataType@@@Z @ 25 NONAME ; public: class TUid  __thiscall CCnaConverterList::ConvToL(class TDataType const &)
	?ConvToListL@CCnaConverterList@@QAEXABVTDataType@@PAV?$CArrayFix@USConverterInfo@@@@@Z @ 26 NONAME ; public: void __thiscall CCnaConverterList::ConvToListL(class TDataType const &,class CArrayFix<struct SConverterInfo> *)
	?ConvertAL@CConverterBase@@UAEXABV?$TBuf@$0BAA@@@0PAVMConverterUiObserver@@@Z @ 27 NONAME ; public: virtual void __thiscall CConverterBase::ConvertAL(class TBuf<256> const &,class TBuf<256> const &,class MConverterUiObserver *)
	?ConvertL@CConverterBase@@UAEXABV?$TBuf@$0BAA@@@0PAVMConverterUiObserver@@@Z @ 28 NONAME ; public: virtual void __thiscall CConverterBase::ConvertL(class TBuf<256> const &,class TBuf<256> const &,class MConverterUiObserver *)
	?ConvertObjectAL@CConverterBase@@UAEXAAVRReadStream@@AAVRWriteStream@@PAVMConverterUiObserver@@@Z @ 29 NONAME ; public: virtual void __thiscall CConverterBase::ConvertObjectAL(class RReadStream &,class RWriteStream &,class MConverterUiObserver *)
	?ConvertObjectL@CConverterBase@@UAEXAAVRReadStream@@AAVRWriteStream@@PAVMConverterUiObserver@@@Z @ 30 NONAME ; public: virtual void __thiscall CConverterBase::ConvertObjectL(class RReadStream &,class RWriteStream &,class MConverterUiObserver *)
	?ConverterL@CCnaConverterList@@QAE?AVTUid@@ABVTDataType@@0@Z @ 31 NONAME ; public: class TUid  __thiscall CCnaConverterList::ConverterL(class TDataType const &,class TDataType const &)
	?Count@CCnaConvInfoFileReader@@QAEHXZ @ 32 NONAME ABSENT ; public: int __thiscall CCnaConvInfoFileReader::Count(void)
	?CountL@CCnaConverterList@@QAEHXZ @ 33 NONAME ; public: int __thiscall CCnaConverterList::CountL(void)
	?CountFrom@CCnaConverter@@QBEHXZ @ 34 NONAME ; public: int __thiscall CCnaConverter::CountFrom(void)const 
	?CountTo@CCnaConverter@@QBEHXZ @ 35 NONAME ; public: int __thiscall CCnaConverter::CountTo(void)const 
	?DoConvertL@CConverterBase@@UAEHXZ @ 36 NONAME ; public: virtual int __thiscall CConverterBase::DoConvertL(void)
	?ExternalizeL@CCnaConverter@@QBEXAAVRWriteStream@@@Z @ 37 NONAME ABSENT ; public: void __thiscall CCnaConverter::ExternalizeL(class RWriteStream &)const 
	?FillImportBuf@CFileImportBuffer@@MAEHXZ @ 38 NONAME ; protected: virtual int __thiscall CFileImportBuffer::FillImportBuf(void)
	?FinalizeExport@CExportBufferBase@@QAEXXZ @ 39 NONAME ; public: void __thiscall CExportBufferBase::FinalizeExport(void)
	?EmbeddedObjectL@CConverterBase@@UAEPAV1@AAVTDataType@@@Z @ 40 NONAME ; public: virtual class CConverterBase * __thiscall CConverterBase::EmbeddedObject(class TDataType &)
	?InsertL@CExportBufferBase@@QAEXG@Z @ 41 NONAME ; public: void __thiscall CExportBufferBase::InsertL(unsigned short)
	?InternalizeL@CCnaConverter@@QAEXAAVRReadStream@@@Z @ 42 NONAME ABSENT ; public: void __thiscall CCnaConverter::InternalizeL(class RReadStream &)
	?MaxSize@CImportBufferBase@@IAEHXZ @ 43 NONAME ; protected: int __thiscall CImportBufferBase::MaxSize(void)
	?MimeFrom@CCnaConverter@@QBE?AVTDataType@@H@Z @ 44 NONAME ; public: class TDataType  __thiscall CCnaConverter::MimeFrom(int)const 
	?MimeFrom@CCnaConverter@@QBEHABVTDataType@@@Z @ 45 NONAME ; public: int __thiscall CCnaConverter::MimeFrom(class TDataType const &)const 
	?MimeFromText@CCnaConverter@@QBE?AV?$TBuf@$0DC@@@ABVTDataType@@@Z @ 46 NONAME ; public: class TBuf<50>  __thiscall CCnaConverter::MimeFromText(class TDataType const &)const 
	?MimeFromText@CCnaConverter@@QBE?AV?$TBuf@$0DC@@@H@Z @ 47 NONAME ; public: class TBuf<50>  __thiscall CCnaConverter::MimeFromText(int)const 
	?MimeTo@CCnaConverter@@QBE?AVTDataType@@H@Z @ 48 NONAME ; public: class TDataType  __thiscall CCnaConverter::MimeTo(int)const 
	?MimeTo@CCnaConverter@@QBEHABVTDataType@@@Z @ 49 NONAME ; public: int __thiscall CCnaConverter::MimeTo(class TDataType const &)const 
	?MimeToText@CCnaConverter@@QBE?AV?$TBuf@$0DC@@@ABVTDataType@@@Z @ 50 NONAME ; public: class TBuf<50>  __thiscall CCnaConverter::MimeToText(class TDataType const &)const 
	?MimeToText@CCnaConverter@@QBE?AV?$TBuf@$0DC@@@H@Z @ 51 NONAME ; public: class TBuf<50>  __thiscall CCnaConverter::MimeToText(int)const 
	?NewConverterL@CCnaConverterList@@QAEPAVCConverterBase@@VTUid@@@Z @ 52 NONAME ; public: class CConverterBase * __thiscall CCnaConverterList::NewConverterL(class TUid)
	?NewL@CCnaConvInfoFileReader@@SAPAV1@ABVTDesC16@@VTUid@@@Z @ 53 NONAME ABSENT ; public: static class CCnaConvInfoFileReader * __cdecl CCnaConvInfoFileReader::NewL(class TDesC16 const &,class TUid)
	?NewL@CCnaConvInfoFileWriter@@SAPAV1@ABVTDesC16@@VTUid@@@Z @ 54 NONAME ABSENT ; public: static class CCnaConvInfoFileWriter * __cdecl CCnaConvInfoFileWriter::NewL(class TDesC16 const &,class TUid)
	?NewL@CCnaConverter@@SAPAV1@ABV1@@Z @ 55 NONAME ; public: static class CCnaConverter * __cdecl CCnaConverter::NewL(class CCnaConverter const &)
	?NewL@CCnaConverter@@SAPAV1@VTUid@@@Z @ 56 NONAME ; public: static class CCnaConverter * __cdecl CCnaConverter::NewL(class TUid)
	?NewL@CCnaConverterList@@SAPAV1@XZ @ 57 NONAME ; public: static class CCnaConverterList * __cdecl CCnaConverterList::NewL(void)
	?NewL@CCnaScanningConverterFinder@@SAPAV1@AAVRFs@@@Z @ 58 NONAME ABSENT ; public: static class CCnaScanningConverterFinder * __cdecl CCnaScanningConverterFinder::NewL(class RFs &)
	?NewL@CExportDynamicBuffer@@SAPAV1@HAAVCBufBase@@@Z @ 59 NONAME ; public: static class CExportDynamicBuffer * __cdecl CExportDynamicBuffer::NewL(int,class CBufBase &)
	?NewLC@CCnaConvInfoFileReader@@SAPAV1@ABVTDesC16@@VTUid@@@Z @ 60 NONAME ABSENT ; public: static class CCnaConvInfoFileReader * __cdecl CCnaConvInfoFileReader::NewLC(class TDesC16 const &,class TUid)
	?NewLC@CCnaConvInfoFileWriter@@SAPAV1@ABVTDesC16@@VTUid@@@Z @ 61 NONAME ABSENT ; public: static class CCnaConvInfoFileWriter * __cdecl CCnaConvInfoFileWriter::NewLC(class TDesC16 const &,class TUid)
	?NewLC@CCnaConverter@@SAPAV1@ABV1@@Z @ 62 NONAME ; public: static class CCnaConverter * __cdecl CCnaConverter::NewLC(class CCnaConverter const &)
	?NewLC@CCnaConverter@@SAPAV1@VTUid@@@Z @ 63 NONAME ; public: static class CCnaConverter * __cdecl CCnaConverter::NewLC(class TUid)
	?NewLC@CCnaConverterList@@SAPAV1@XZ @ 64 NONAME ; public: static class CCnaConverterList * __cdecl CCnaConverterList::NewLC(void)
	?NewLC@CCnaScanningConverterFinder@@SAPAV1@AAVRFs@@@Z @ 65 NONAME ABSENT ; public: static class CCnaScanningConverterFinder * __cdecl CCnaScanningConverterFinder::NewLC(class RFs &)
	?NewLC@CMimeInfo@@SAPAV1@AAVTDataType@@@Z @ 66 NONAME ; public: static class CMimeInfo * __cdecl CMimeInfo::NewLC(class TDataType &)
	?GetEmbeddedFileName@CConverterBase@@UAEHAAV?$TBuf@$0BAA@@@@Z @ 67 NONAME ; public: virtual int __thiscall CConverterBase::GetEmbeddedFileName(class TBuf<256> &)
	?ReadL@CImportBufferBase@@QAEHAAE@Z @ 68 NONAME ; public: int __thiscall CImportBufferBase::ReadL(unsigned char &)
	?Release@CCnaConverterList@@QAEXXZ @ 69 NONAME ; public: void __thiscall CCnaConverterList::Release(void)
	?ResetExportBuffer@CExportBufferBase@@QAEXXZ @ 70 NONAME ; public: void __thiscall CExportBufferBase::ResetExportBuffer(void)
	?ResetImportBuffer@CImportBufferBase@@QAEXXZ @ 71 NONAME ; public: void __thiscall CImportBufferBase::ResetImportBuffer(void)
	?ResetReadPtr@CImportBufferBase@@QAEXXZ @ 72 NONAME ; public: void __thiscall CImportBufferBase::ResetReadPtr(void)
	?ResetWritePtr@CExportBufferBase@@QAEXXZ @ 73 NONAME ; public: void __thiscall CExportBufferBase::ResetWritePtr(void)
	?RestoreL@CCnaConvInfoFileReader@@QAEXXZ @ 74 NONAME ABSENT ; public: void __thiscall CCnaConvInfoFileReader::RestoreL(void)
	?SeekL@CFileImportBuffer@@UAEHW4TSeek@@H@Z @ 75 NONAME ; public: virtual int __thiscall CFileImportBuffer::SeekL(enum TSeek,int)
	?SeekL@CImportBufferBase@@UAEHW4TSeek@@H@Z @ 76 NONAME ; public: virtual int __thiscall CImportBufferBase::SeekL(enum TSeek,int)
	?SetLength@CImportBufferBase@@IAEXH@Z @ 77 NONAME ; protected: void __thiscall CImportBufferBase::SetLength(int)
	?SetUid@CCnaConverter@@QAEXVTUid@@@Z @ 78 NONAME ; public: void __thiscall CCnaConverter::SetUid(class TUid)
	?StoreL@CCnaConvInfoFileWriter@@QBEXXZ @ 79 NONAME ABSENT ; public: void __thiscall CCnaConvInfoFileWriter::StoreL(void)const 
	?UpdateL@CCnaConverterList@@QAEXXZ @ 80 NONAME ; public: void __thiscall CCnaConverterList::UpdateL(void)
	?MimeTypeFrom@CCnaConverterList@@QBEHAAVTDataType@@ABUSConverterInfo@@@Z @ 81 NONAME ; public: int __thiscall CCnaConverterList::MimeTypeFrom(class TDataType &,struct SConverterInfo const &)const 
	?MimeTypeTo@CCnaConverterList@@QBEHAAVTDataType@@ABUSConverterInfo@@@Z @ 82 NONAME ; public: int __thiscall CCnaConverterList::MimeTypeTo(class TDataType &,struct SConverterInfo const &)const 
	?Reserved1_Conv_Obs@MConverterUiObserver@@UAEXXZ @ 83 NONAME ; public: virtual void __thiscall MConverterUiObserver::Reserved1_Conv_Obs(void)
	?ExtendedInterfaceL@CConverterBase@@UAEXVTUid@@AAPAVCBase@@@Z @ 84 NONAME ; public: virtual void __thiscall CConverterBase::ExtendedInterfaceL(class TUid,class CBase * &)
	??1CCnaConvInfoFileReader@@UAE@XZ @ 85 NONAME ABSENT ; public: virtual __thiscall CCnaConvInfoFileReader::~CCnaConvInfoFileReader(void)
	??1CConverterBase2@@UAE@XZ @ 86 NONAME ; CConverterBase2::~CConverterBase2(void)
	?AtL@CCnaConvInfoFileReader2@@QAEPAVCCnaConverter@@H@Z @ 87 NONAME ; class CCnaConverter * CCnaConvInfoFileReader2::AtL(int)
	?CancelConvert@CConverterBase2@@UAEXXZ @ 88 NONAME ; void CConverterBase2::CancelConvert(void)
	?Capabilities@CConverterBase2@@UAEHXZ @ 89 NONAME ; int CConverterBase2::Capabilities(void)
	?ConvertAL@CConverterBase2@@UAEXABV?$TBuf@$0BAA@@@0PAVMConverterUiObserver@@@Z @ 90 NONAME ; void CConverterBase2::ConvertAL(class TBuf<256> const &, class TBuf<256> const &, class MConverterUiObserver *)
	?ConvertL@CConverterBase2@@UAEXABV?$TBuf@$0BAA@@@0PAVMConverterUiObserver@@@Z @ 91 NONAME ; void CConverterBase2::ConvertL(class TBuf<256> const &, class TBuf<256> const &, class MConverterUiObserver *)
	?ConvertObjectAL@CConverterBase2@@UAEXAAVRReadStream@@AAVRWriteStream@@PAVMConverterUiObserver@@@Z @ 92 NONAME ; void CConverterBase2::ConvertObjectAL(class RReadStream &, class RWriteStream &, class MConverterUiObserver *)
	?ConvertObjectL@CConverterBase2@@UAEXAAVRReadStream@@AAVRWriteStream@@PAVMConverterUiObserver@@@Z @ 93 NONAME ; void CConverterBase2::ConvertObjectL(class RReadStream &, class RWriteStream &, class MConverterUiObserver *)
	?Count@CCnaConvInfoFileReader2@@QAEHXZ @ 94 NONAME ; int CCnaConvInfoFileReader2::Count(void)
	?DoConvertL@CConverterBase2@@UAEHXZ @ 95 NONAME ; int CConverterBase2::DoConvertL(void)
	?EmbeddedObjectL@CConverterBase2@@UAEPAVCConverterBase@@AAVTDataType@@@Z @ 96 NONAME ; class CConverterBase * CConverterBase2::EmbeddedObjectL(class TDataType &)
	?ExtendedInterfaceL@CConverterBase2@@UAEXVTUid@@AAPAVCBase@@@Z @ 97 NONAME ; void CConverterBase2::ExtendedInterfaceL(class TUid, class CBase * &)
	?GetEmbeddedFileName@CConverterBase2@@UAEHAAV?$TBuf@$0BAA@@@@Z @ 98 NONAME ; int CConverterBase2::GetEmbeddedFileName(class TBuf<256> &)
	?NewL@CCnaConvInfoFileReader2@@SAPAV1@ABVTDesC16@@@Z @ 99 NONAME ; class CCnaConvInfoFileReader2 * CCnaConvInfoFileReader2::NewL(class TDesC16 const &)
	?NewLC@CCnaConvInfoFileReader2@@SAPAV1@ABVTDesC16@@@Z @ 100 NONAME ; class CCnaConvInfoFileReader2 * CCnaConvInfoFileReader2::NewLC(class TDesC16 const &)
	?Reserved_1@CConverterBase2@@UAEXXZ @ 101 NONAME ; void CConverterBase2::Reserved_1(void)
	?Reserved_2@CConverterBase2@@UAEXXZ @ 102 NONAME ; void CConverterBase2::Reserved_2(void)
	?RestoreL@CCnaConvInfoFileReader2@@QAEXXZ @ 103 NONAME ; void CCnaConvInfoFileReader2::RestoreL(void)
	?KEnableAllSplCharForQpCnv@@3HB @ 104 NONAME ; int const KEnableAllSplCharForQpCnv

