EXPORTS
	?NewLC@CThumbnailObjectSource@@SAPAV1@ABVTDesC16@@0@Z @ 1 NONAME ; class CThumbnailObjectSource * CThumbnailObjectSource::NewLC(class TDesC16 const &, class TDesC16 const &)
	?NewL@CThumbnailObjectSource@@SAPAV1@ABVRFile64@@ABVTDesC16@@@Z @ 2 NONAME ; class CThumbnailObjectSource * CThumbnailObjectSource::NewL(class RFile64 const &, class TDesC16 const &)
	?NewL@CThumbnailManager@@SAPAV1@AAVMThumbnailManagerObserver@@@Z @ 3 NONAME ; class CThumbnailManager * CThumbnailManager::NewL(class MThumbnailManagerObserver &)
	?NewLC@CThumbnailObjectSource@@SAPAV1@ABVTDesC16@@K0@Z @ 4 NONAME ; class CThumbnailObjectSource * CThumbnailObjectSource::NewLC(class TDesC16 const &, unsigned long, class TDesC16 const &)
	?NewLC@CThumbnailObjectSource@@SAPAV1@ABVRFile64@@ABVTDesC16@@@Z @ 5 NONAME ; class CThumbnailObjectSource * CThumbnailObjectSource::NewLC(class RFile64 const &, class TDesC16 const &)
	?NewL@CThumbnailObjectSource@@SAPAV1@PAVTDesC8@@AAVTDesC16@@ABV3@@Z @ 6 NONAME ; class CThumbnailObjectSource * CThumbnailObjectSource::NewL(class TDesC8 *, class TDesC16 &, class TDesC16 const &)
	?NewL@CThumbnailObjectSource@@SAPAV1@PAVCFbsBitmap@@ABVTDesC16@@@Z @ 7 NONAME ; class CThumbnailObjectSource * CThumbnailObjectSource::NewL(class CFbsBitmap *, class TDesC16 const &)
	?NewLC@CThumbnailObjectSource@@SAPAV1@PAVCFbsBitmap@@ABVTDesC16@@@Z @ 8 NONAME ; class CThumbnailObjectSource * CThumbnailObjectSource::NewLC(class CFbsBitmap *, class TDesC16 const &)
	?NewL@CThumbnailObjectSource@@SAPAV1@ABVTDesC16@@0@Z @ 9 NONAME ; class CThumbnailObjectSource * CThumbnailObjectSource::NewL(class TDesC16 const &, class TDesC16 const &)
	?NewLC@CThumbnailObjectSource@@SAPAV1@PAVTDesC8@@AAVTDesC16@@ABV3@@Z @ 10 NONAME ; class CThumbnailObjectSource * CThumbnailObjectSource::NewLC(class TDesC8 *, class TDesC16 &, class TDesC16 const &)
	?NewL@CThumbnailObjectSource@@SAPAV1@ABVTDesC16@@K0@Z @ 11 NONAME ; class CThumbnailObjectSource * CThumbnailObjectSource::NewL(class TDesC16 const &, unsigned long, class TDesC16 const &)
	?NewLC@CThumbnailManager@@SAPAV1@AAVMThumbnailManagerObserver@@@Z @ 12 NONAME ; class CThumbnailManager * CThumbnailManager::NewLC(class MThumbnailManagerObserver &)
	?Buffer@CThumbnailObjectSource@@QAEPAVTDesC8@@XZ @ 13 NONAME ; class TDesC8 * CThumbnailObjectSource::Buffer(void)
	?FileHandle@CThumbnailObjectSource@@QAEAAVRFile64@@XZ @ 14 NONAME ; class RFile64 & CThumbnailObjectSource::FileHandle(void)
	?GetBufferOwnership@CThumbnailObjectSource@@QAEPAVTDesC8@@XZ @ 15 NONAME ; class TDesC8 * CThumbnailObjectSource::GetBufferOwnership(void)
	?Id@CThumbnailObjectSource@@QAEKXZ @ 16 NONAME ; unsigned long CThumbnailObjectSource::Id(void)
	?MimeType@CThumbnailObjectSource@@QAEABVTDesC8@@XZ @ 17 NONAME ; class TDesC8 const & CThumbnailObjectSource::MimeType(void)
	?Uri@CThumbnailObjectSource@@QAEABVTDesC16@@XZ @ 18 NONAME ; class TDesC16 const & CThumbnailObjectSource::Uri(void)
	?Bitmap@CThumbnailObjectSource@@QAEPAVCFbsBitmap@@XZ @ 19 NONAME ; class CFbsBitmap * CThumbnailObjectSource::Bitmap(void)
	?GetBitmapOwnership@CThumbnailObjectSource@@QAEPAVCFbsBitmap@@XZ @ 20 NONAME ; class CFbsBitmap * CThumbnailObjectSource::GetBitmapOwnership(void)
	?NewLC@CThumbnailObjectSource@@SAPAV1@ABVTDesC16@@00@Z @ 21 NONAME ; class CThumbnailObjectSource * CThumbnailObjectSource::NewLC(class TDesC16 const &, class TDesC16 const &, class TDesC16 const &)
	?TargetUri@CThumbnailObjectSource@@QAEABVTDesC16@@XZ @ 22 NONAME ; class TDesC16 const & CThumbnailObjectSource::TargetUri(void)
	?NewL@CThumbnailObjectSource@@SAPAV1@ABVTDesC16@@00@Z @ 23 NONAME ; class CThumbnailObjectSource * CThumbnailObjectSource::NewL(class TDesC16 const &, class TDesC16 const &, class TDesC16 const &)
	
