EXPORTS
	??0TXIMPTestStatusEventSnapshot@@QAE@HHH@Z @ 1 NONAME ; TXIMPTestStatusEventSnapshot::TXIMPTestStatusEventSnapshot(int, int, int)
	??0TXIMPTestStatusEventSnapshot@@QAE@XZ @ 2 NONAME ; TXIMPTestStatusEventSnapshot::TXIMPTestStatusEventSnapshot(void)
	?AcceptedEventTypes@CXIMPTestStatusEventListener@@QAEAAV?$RArray@J@@XZ @ 3 NONAME ; class RArray<long> & CXIMPTestStatusEventListener::AcceptedEventTypes(void)
	?AppendToTraitsL@CXIMPTestContextWrapper@@QAEXW4TXIMPTestStatusEventTemplate@@@Z @ 4 NONAME ; void CXIMPTestContextWrapper::AppendToTraitsL(enum TXIMPTestStatusEventTemplate)
	?AssertAddPresentityGroupMemberCalled@CXIMPTestMessenger@@QAEXH@Z @ 5 NONAME ; void CXIMPTestMessenger::AssertAddPresentityGroupMemberCalled(int)
	?AssertCloseSessionCalled@CXIMPTestMessenger@@QAEXH@Z @ 6 NONAME ; void CXIMPTestMessenger::AssertCloseSessionCalled(int)
	?AssertCreatePresentityGroupCalled@CXIMPTestMessenger@@QAEXH@Z @ 7 NONAME ; void CXIMPTestMessenger::AssertCreatePresentityGroupCalled(int)
	?AssertEquality@XIMPTestPresenceDataUtils@@SAXAAVMPresenceInfo@@0@Z @ 8 NONAME ; void XIMPTestPresenceDataUtils::AssertEquality(class MPresenceInfo &, class MPresenceInfo &)
	?AssertOpenSessionCalled@CXIMPTestMessenger@@QAEXH@Z @ 9 NONAME ; void CXIMPTestMessenger::AssertOpenSessionCalled(int)
	?AssertPluginDied@CXIMPTestMessenger@@QAEXH@Z @ 10 NONAME ; void CXIMPTestMessenger::AssertPluginDied(int)
	?AssertRemovePresentityGroupMemberCalled@CXIMPTestMessenger@@QAEXH@Z @ 11 NONAME ; void CXIMPTestMessenger::AssertRemovePresentityGroupMemberCalled(int)
	?AssertShareSessionCalled@CXIMPTestMessenger@@QAEXH@Z @ 12 NONAME ; void CXIMPTestMessenger::AssertShareSessionCalled(int)
	?AssertSubscribePresentityGroupContentCalled@CXIMPTestMessenger@@QAEXH@Z @ 13 NONAME ; void CXIMPTestMessenger::AssertSubscribePresentityGroupContentCalled(int)
	?AssertSubscribePresentityGroupListCalled@CXIMPTestMessenger@@QAEXH@Z @ 14 NONAME ; void CXIMPTestMessenger::AssertSubscribePresentityGroupListCalled(int)
	?AssertUnshareSessionCalled@CXIMPTestMessenger@@QAEXH@Z @ 15 NONAME ; void CXIMPTestMessenger::AssertUnshareSessionCalled(int)
	?AssertUnsubscribePresentityGroupContentCalled@CXIMPTestMessenger@@QAEXH@Z @ 16 NONAME ; void CXIMPTestMessenger::AssertUnsubscribePresentityGroupContentCalled(int)
	?AssertUnsubscribePresentityGroupListCalled@CXIMPTestMessenger@@QAEXH@Z @ 17 NONAME ; void CXIMPTestMessenger::AssertUnsubscribePresentityGroupListCalled(int)
	?AssertUpdatePresentityGroupDisplayNameCalled@CXIMPTestMessenger@@QAEXH@Z @ 18 NONAME ; void CXIMPTestMessenger::AssertUpdatePresentityGroupDisplayNameCalled(int)
	?AssertUpdatePresentityGroupMemberDisplayNameCalled@CXIMPTestMessenger@@QAEXH@Z @ 19 NONAME ; void CXIMPTestMessenger::AssertUpdatePresentityGroupMemberDisplayNameCalled(int)
	?BindL@CXIMPTestContextWrapper@@QAEXH@Z @ 20 NONAME ; void CXIMPTestContextWrapper::BindL(int)
	?BindL@CXIMPTestContextWrapper@@QAEXVTUid@@ABVTDesC16@@11@Z @ 21 NONAME ; void CXIMPTestContextWrapper::BindL(class TUid, class TDesC16 const &, class TDesC16 const &, class TDesC16 const &)
	?BindWithSettingsL@CXIMPTestContextWrapper@@QAEXH@Z @ 22 NONAME ; void CXIMPTestContextWrapper::BindWithSettingsL(int)
	?CleanAllL@CXIMPTestFileTool@@SAXXZ @ 23 NONAME ; void CXIMPTestFileTool::CleanAllL(void)
	?ClearListener@CXIMPTestContextWrapper@@QAEXXZ @ 24 NONAME ; void CXIMPTestContextWrapper::ClearListener(void)
	?CommonAssert@CXIMPTestMessenger@@ABEXW4TXIMPTestPropertyKeys@@HABVTDesC8@@1@Z @ 25 NONAME ; void CXIMPTestMessenger::CommonAssert(enum TXIMPTestPropertyKeys, int, class TDesC8 const &, class TDesC8 const &) const
	?Contains@XIMPTestPresenceDataUtils@@QBEHAAVMPresenceInfo@@0@Z @ 26 NONAME ; int XIMPTestPresenceDataUtils::Contains(class MPresenceInfo &, class MPresenceInfo &) const
	?CreateGroupContentEventLCX@XIMPTestEventFactory@@SAPAVCPresentityGroupContentEventImp@@ABVTDesC16@@00W4TTestPGLContentArraySpecifier@1@00W4TSubscriptionState@MXIMPDataSubscriptionState@@W4TDataState@6@@Z @ 27 NONAME ; class CPresentityGroupContentEventImp * XIMPTestEventFactory::CreateGroupContentEventLCX(class TDesC16 const &, class TDesC16 const &, class TDesC16 const &, enum XIMPTestEventFactory::TTestPGLContentArraySpecifier, class TDesC16 const &, class TDesC16 const &, enum MXIMPDataSubscriptionState::TSubscriptionState, enum MXIMPDataSubscriptionState::TDataState)
	?CreateGroupListEventLCX@XIMPTestEventFactory@@SAPAVCPresentityGroupListEventImp@@ABVTDesC16@@0W4TTestPGLArraySpecifier@1@00W4TSubscriptionState@MXIMPDataSubscriptionState@@W4TDataState@6@@Z @ 28 NONAME ; class CPresentityGroupListEventImp * XIMPTestEventFactory::CreateGroupListEventLCX(class TDesC16 const &, class TDesC16 const &, enum XIMPTestEventFactory::TTestPGLArraySpecifier, class TDesC16 const &, class TDesC16 const &, enum MXIMPDataSubscriptionState::TSubscriptionState, enum MXIMPDataSubscriptionState::TDataState)
	?CreateWrapperL@CXIMPTestContextWrapperMgr@@QAEXH@Z @ 29 NONAME ; void CXIMPTestContextWrapperMgr::CreateWrapperL(int)
	?DeletePresenceContext@CXIMPTestContextWrapper@@QAEXXZ @ 30 NONAME ; void CXIMPTestContextWrapper::DeletePresenceContext(void)
	?DeletePubSubKeys@CXIMPTestMessenger@@QAEXXZ @ 31 NONAME ; void CXIMPTestMessenger::DeletePubSubKeys(void)
	?Equals@TXIMPTestStatusEventSnapshot@@QBEHABV1@@Z @ 32 NONAME ; int TXIMPTestStatusEventSnapshot::Equals(class TXIMPTestStatusEventSnapshot const &) const
	?Equals@XIMPTestPresenceDataUtils@@QBEHAAVCPresenceInfoImp@@0@Z @ 33 NONAME ; int XIMPTestPresenceDataUtils::Equals(class CPresenceInfoImp &, class CPresenceInfoImp &) const
	?ExpectL@CXIMPTestListener@@QAEXPAVCXIMPApiObjBase@@@Z @ 34 NONAME ; void CXIMPTestListener::ExpectL(class CXIMPApiObjBase *)
	?ExternalizeL@CXIMPTestFileSrvMsg@@QBEXAAVRWriteStream@@@Z @ 35 NONAME ; void CXIMPTestFileSrvMsg::ExternalizeL(class RWriteStream &) const
	?FileTool@CXIMPTestContextWrapper@@QBEAAVCXIMPTestFileTool@@XZ @ 36 NONAME ; class CXIMPTestFileTool & CXIMPTestContextWrapper::FileTool(void) const
	?GenerateIdentityLC@XIMPTestPresenceDataUtils@@SAPAVCXIMPIdentityImp@@PBVTDesC8@@W4TPresenceDataGroup@1@@Z @ 37 NONAME ; class CXIMPIdentityImp * XIMPTestPresenceDataUtils::GenerateIdentityLC(class TDesC8 const *, enum XIMPTestPresenceDataUtils::TPresenceDataGroup)
	?GenerateInfoFilterLC@XIMPTestPresenceDataUtils@@SAPAVCPresenceInfoFilterImp@@PBVTDesC8@@W4TPresenceDataGroup@1@@Z @ 38 NONAME ; class CPresenceInfoFilterImp * XIMPTestPresenceDataUtils::GenerateInfoFilterLC(class TDesC8 const *, enum XIMPTestPresenceDataUtils::TPresenceDataGroup)
	?GenerateInfoLC@XIMPTestPresenceDataUtils@@SAPAVCPresenceInfoImp@@PBVTDesC8@@W4TPresenceDataGroup@1@@Z @ 39 NONAME ; class CPresenceInfoImp * XIMPTestPresenceDataUtils::GenerateInfoLC(class TDesC8 const *, enum XIMPTestPresenceDataUtils::TPresenceDataGroup)
	?GetBoolean@CXIMPTestMessenger@@QBEHW4TXIMPTestPropertyKeys@@@Z @ 40 NONAME ; int CXIMPTestMessenger::GetBoolean(enum TXIMPTestPropertyKeys) const
	?GetClient@CXIMPTestContextWrapper@@QAEPAVMXIMPClient@@XZ @ 41 NONAME ; class MXIMPClient * CXIMPTestContextWrapper::GetClient(void)
	?GetContext@CXIMPTestContextWrapper@@QAEPAVMXIMPContext@@XZ @ 42 NONAME ; class MXIMPContext * CXIMPTestContextWrapper::GetContext(void)
	?GetError@CXIMPTestMessenger@@QAEHXZ @ 43 NONAME ; int CXIMPTestMessenger::GetError(void)
	?GetEventListener@CXIMPTestContextWrapper@@QAEPAVCXIMPTestStatusEventListener@@XZ @ 44 NONAME ; class CXIMPTestStatusEventListener * CXIMPTestContextWrapper::GetEventListener(void)
	?GetEventTemplateL@CXIMPTestStatusEventListener@@QAEXAAV?$RArray@VTXIMPTestStatusEventSnapshot@@@@W4TXIMPTestStatusEventTemplate@@@Z @ 45 NONAME ; void CXIMPTestStatusEventListener::GetEventTemplateL(class RArray<class TXIMPTestStatusEventSnapshot> &, enum TXIMPTestStatusEventTemplate)
	?GetLeave@CXIMPTestMessenger@@QAEHXZ @ 46 NONAME ; int CXIMPTestMessenger::GetLeave(void)
	?GetMessenger@CXIMPTestContextWrapper@@QAEPAVCXIMPTestMessenger@@XZ @ 47 NONAME ; class CXIMPTestMessenger * CXIMPTestContextWrapper::GetMessenger(void)
	?GetPluginIndex@CXIMPTestMessenger@@SAHXZ @ 48 NONAME ; int CXIMPTestMessenger::GetPluginIndex(void)
	?GetPresenceFeatures@CXIMPTestContextWrapper@@QAEPAVMPresenceFeatures@@XZ @ 49 NONAME ; class MPresenceFeatures * CXIMPTestContextWrapper::GetPresenceFeatures(void)
	?GetReqCompleteParams@CXIMPTestMessenger@@QAEPAVMXIMPRestrictedObjectCollection@@XZ @ 50 NONAME ; class MXIMPRestrictedObjectCollection * CXIMPTestMessenger::GetReqCompleteParams(void)
	?GetReqCompletionErrL@CXIMPTestStatusEventListener@@QBEHABVTXIMPRequestId@@@Z @ 51 NONAME ; int CXIMPTestStatusEventListener::GetReqCompletionErrL(class TXIMPRequestId const &) const
	?GetStatusTraits@CXIMPTestContextWrapper@@QAEPAV?$RArray@VTXIMPTestStatusEventSnapshot@@@@XZ @ 52 NONAME ; class RArray<class TXIMPTestStatusEventSnapshot> * CXIMPTestContextWrapper::GetStatusTraits(void)
	?GetValueFor@CXIMPTestMessenger@@QBEHW4TXIMPTestPropertyKeys@@@Z @ 53 NONAME ; int CXIMPTestMessenger::GetValueFor(enum TXIMPTestPropertyKeys) const
	?GetWrapperL@CXIMPTestContextWrapperMgr@@QAEPAVCXIMPTestContextWrapper@@H@Z @ 54 NONAME ; class CXIMPTestContextWrapper * CXIMPTestContextWrapperMgr::GetWrapperL(int)
	?HandleLeaveL@CXIMPTestMessenger@@QAEXXZ @ 55 NONAME ; void CXIMPTestMessenger::HandleLeaveL(void)
	?InsertPrefixL@XIMPTestPresenceDataUtils@@SAXPBVTDesC8@@AAVRBuf8@@@Z @ 56 NONAME ; void XIMPTestPresenceDataUtils::InsertPrefixL(class TDesC8 const *, class RBuf8 &)
	?InstanceId@CXIMPTestContextWrapper@@QBEABVTDesC16@@XZ @ 57 NONAME ; class TDesC16 const & CXIMPTestContextWrapper::InstanceId(void) const
	?InstanceId@CXIMPTestFileTool@@QBEABVTDesC16@@XZ @ 58 NONAME ; class TDesC16 const & CXIMPTestFileTool::InstanceId(void) const
	?InternalizeL@CXIMPTestFileSrvMsg@@QAEXAAVRReadStream@@@Z @ 59 NONAME ; void CXIMPTestFileSrvMsg::InternalizeL(class RReadStream &)
	?NewForAdaptationSideL@CXIMPTestMessenger@@SAPAV1@H@Z @ 60 NONAME ; class CXIMPTestMessenger * CXIMPTestMessenger::NewForAdaptationSideL(int)
	?NewForClientSideL@CXIMPTestMessenger@@SAPAV1@H@Z @ 61 NONAME ; class CXIMPTestMessenger * CXIMPTestMessenger::NewForClientSideL(int)
	?NewL@CXIMPTestContextWrapper@@SAPAV1@HPAVMXIMPClient@@@Z @ 62 NONAME ; class CXIMPTestContextWrapper * CXIMPTestContextWrapper::NewL(int, class MXIMPClient *)
	?NewL@CXIMPTestContextWrapperMgr@@SAPAV1@XZ @ 63 NONAME ; class CXIMPTestContextWrapperMgr * CXIMPTestContextWrapperMgr::NewL(void)
	?NewL@CXIMPTestFileSrvMsg@@SAPAV1@HABVTDesC8@@@Z @ 64 NONAME ; class CXIMPTestFileSrvMsg * CXIMPTestFileSrvMsg::NewL(int, class TDesC8 const &)
	?NewL@CXIMPTestFileTool@@SAPAV1@KABVTDesC16@@@Z @ 65 NONAME ; class CXIMPTestFileTool * CXIMPTestFileTool::NewL(unsigned long, class TDesC16 const &)
	?NewL@CXIMPTestFileTool@@SAPAV1@KH@Z @ 66 NONAME ; class CXIMPTestFileTool * CXIMPTestFileTool::NewL(unsigned long, int)
	?NewL@CXIMPTestGeneralWaiter@@SAPAV1@PAVT_MWaitObserver@@@Z @ 67 NONAME ; class CXIMPTestGeneralWaiter * CXIMPTestGeneralWaiter::NewL(class T_MWaitObserver *)
	?NewL@CXIMPTestListener@@SAPAV1@PAVMXIMPContext@@@Z @ 68 NONAME ; class CXIMPTestListener * CXIMPTestListener::NewL(class MXIMPContext *)
	?NewL@CXIMPTestStatusEventListener@@SAPAV1@HPAVMXIMPContext@@@Z @ 69 NONAME ; class CXIMPTestStatusEventListener * CXIMPTestStatusEventListener::NewL(int, class MXIMPContext *)
	?NewL@CXIMPTestWaitHelper@@SAPAV1@XZ @ 70 NONAME ; class CXIMPTestWaitHelper * CXIMPTestWaitHelper::NewL(void)
	?NewLC@CXIMPTestFileSrvMsg@@SAPAV1@XZ @ 71 NONAME ; class CXIMPTestFileSrvMsg * CXIMPTestFileSrvMsg::NewLC(void)
	?NumObjectsL@CXIMPTestFileTool@@QAEHXZ @ 72 NONAME ; int CXIMPTestFileTool::NumObjectsL(void)
	?NumSrvMsgL@CXIMPTestFileTool@@QAEHXZ @ 73 NONAME ; int CXIMPTestFileTool::NumSrvMsgL(void)
	?PayloadL@CXIMPTestFileSrvMsg@@QAEAAVTDesC8@@XZ @ 74 NONAME ; class TDesC8 & CXIMPTestFileSrvMsg::PayloadL(void)
	?PluginRestoreLC@CXIMPTestFileTool@@QAEPAVCXIMPApiEventBase@@H@Z @ 75 NONAME ; class CXIMPApiEventBase * CXIMPTestFileTool::PluginRestoreLC(int)
	?PluginStoreL@CXIMPTestFileTool@@QAEXABVTDesC8@@@Z @ 76 NONAME ; void CXIMPTestFileTool::PluginStoreL(class TDesC8 const &)
	?PrepareL@CXIMPTestFileTool@@QAEXXZ @ 77 NONAME ; void CXIMPTestFileTool::PrepareL(void)
	?ReRegisterEventFilterL@CXIMPTestStatusEventListener@@QAEXXZ @ 78 NONAME ; void CXIMPTestStatusEventListener::ReRegisterEventFilterL(void)
	?Reset@CXIMPTestListener@@QAEXXZ @ 79 NONAME ; void CXIMPTestListener::Reset(void)
	?ResetEventStack@CXIMPTestStatusEventListener@@QAEXXZ @ 80 NONAME ; void CXIMPTestStatusEventListener::ResetEventStack(void)
	?ResetEventTypeStack@CXIMPTestStatusEventListener@@QAEXXZ @ 81 NONAME ; void CXIMPTestStatusEventListener::ResetEventTypeStack(void)
	?ResetListener@CXIMPTestContextWrapper@@QAEXXZ @ 82 NONAME ; void CXIMPTestContextWrapper::ResetListener(void)
	?ResetPubSub@CXIMPTestMessenger@@QAEXXZ @ 83 NONAME ; void CXIMPTestMessenger::ResetPubSub(void)
	?SetBoolean@CXIMPTestMessenger@@QAEXW4TXIMPTestPropertyKeys@@@Z @ 84 NONAME ; void CXIMPTestMessenger::SetBoolean(enum TXIMPTestPropertyKeys)
	?SetError@CXIMPTestMessenger@@QAEXH@Z @ 85 NONAME ; void CXIMPTestMessenger::SetError(int)
	?SetEventObserver@CXIMPTestListener@@QAEXPAVMXIMPContextObserver@@@Z @ 86 NONAME ; void CXIMPTestListener::SetEventObserver(class MXIMPContextObserver *)
	?SetEventObserver@CXIMPTestStatusEventListener@@QAEXPAVMXIMPContextObserver@@@Z @ 87 NONAME ; void CXIMPTestStatusEventListener::SetEventObserver(class MXIMPContextObserver *)
	?SetEventSourceL@CXIMPTestListener@@QAEXPAVMXIMPContext@@@Z @ 88 NONAME ; void CXIMPTestListener::SetEventSourceL(class MXIMPContext *)
	?SetEventSourceL@CXIMPTestStatusEventListener@@QAEXPAVMXIMPContext@@@Z @ 89 NONAME ; void CXIMPTestStatusEventListener::SetEventSourceL(class MXIMPContext *)
	?SetLeave@CXIMPTestMessenger@@QAEXH@Z @ 90 NONAME ; void CXIMPTestMessenger::SetLeave(int)
	?SetNoError@CXIMPTestMessenger@@QAEXXZ @ 91 NONAME ; void CXIMPTestMessenger::SetNoError(void)
	?SetPluginIndex@CXIMPTestMessenger@@QAEXH@Z @ 92 NONAME ; void CXIMPTestMessenger::SetPluginIndex(int)
	?SetReqCompleteParams@CXIMPTestMessenger@@QAEXPAVMXIMPRestrictedObjectCollection@@@Z @ 93 NONAME ; void CXIMPTestMessenger::SetReqCompleteParams(class MXIMPRestrictedObjectCollection *)
	?SetValueFor@CXIMPTestMessenger@@QAEXW4TXIMPTestPropertyKeys@@H@Z @ 94 NONAME ; void CXIMPTestMessenger::SetValueFor(enum TXIMPTestPropertyKeys, int)
	?SetupEmptyListener@CXIMPTestContextWrapper@@QAEXXZ @ 95 NONAME ; void CXIMPTestContextWrapper::SetupEmptyListener(void)
	?SetupListenerL@CXIMPTestContextWrapper@@QAEXW4TXIMPTestStatusEventTemplate@@@Z @ 96 NONAME ; void CXIMPTestContextWrapper::SetupListenerL(enum TXIMPTestStatusEventTemplate)
	?SetupListenerReqCompleteL@CXIMPTestContextWrapper@@QAEXW4TXIMPTestStatusEventTemplate@@PAV?$RArray@J@@@Z @ 97 NONAME ; void CXIMPTestContextWrapper::SetupListenerReqCompleteL(enum TXIMPTestStatusEventTemplate, class RArray<long> *)
	?SrvMsgId@CXIMPTestFileSrvMsg@@QAEHXZ @ 98 NONAME ; int CXIMPTestFileSrvMsg::SrvMsgId(void)
	?SrvMsgRestoreLC@CXIMPTestFileTool@@QAEPAVCXIMPTestFileSrvMsg@@H@Z @ 99 NONAME ; class CXIMPTestFileSrvMsg * CXIMPTestFileTool::SrvMsgRestoreLC(int)
	?SrvMsgStoreL@CXIMPTestFileTool@@QAEXPAVCXIMPTestFileSrvMsg@@@Z @ 100 NONAME ; void CXIMPTestFileTool::SrvMsgStoreL(class CXIMPTestFileSrvMsg *)
	?UnbindL@CXIMPTestContextWrapper@@QAEXXZ @ 101 NONAME ; void CXIMPTestContextWrapper::UnbindL(void)
	?VerifyEventStackL@CXIMPTestContextWrapper@@QAEXABVTPtrC8@@@Z @ 102 NONAME ; void CXIMPTestContextWrapper::VerifyEventStackL(class TPtrC8 const &)
	?VerifyEventStackL@CXIMPTestStatusEventListener@@QBEXABV?$TArray@VTXIMPTestStatusEventSnapshot@@@@ABVTDesC8@@@Z @ 103 NONAME ; void CXIMPTestStatusEventListener::VerifyEventStackL(class TArray<class TXIMPTestStatusEventSnapshot> const &, class TDesC8 const &) const
	?WaitAndAssertL@CXIMPTestListener@@QAEHXZ @ 104 NONAME ; int CXIMPTestListener::WaitAndAssertL(void)
	?WaitAnyEvent@CXIMPTestContextWrapper@@QAEXXZ @ 105 NONAME ; void CXIMPTestContextWrapper::WaitAnyEvent(void)
	?WaitAnyEvent@CXIMPTestStatusEventListener@@QAEXXZ @ 106 NONAME ; void CXIMPTestStatusEventListener::WaitAnyEvent(void)
	?WaitForL@CXIMPTestGeneralWaiter@@QAEXH@Z @ 107 NONAME ; void CXIMPTestGeneralWaiter::WaitForL(int)
	?WaitForL@CXIMPTestWaitHelper@@QAEXH@Z @ 108 NONAME ; void CXIMPTestWaitHelper::WaitForL(int)
	?WaitRequestAndStackEvents@CXIMPTestContextWrapper@@QAEXVTXIMPRequestId@@@Z @ 109 NONAME ; void CXIMPTestContextWrapper::WaitRequestAndStackEvents(class TXIMPRequestId)
	?WaitRequestAndStackEvents@CXIMPTestStatusEventListener@@QAEXABVTXIMPRequestId@@H@Z @ 110 NONAME ; void CXIMPTestStatusEventListener::WaitRequestAndStackEvents(class TXIMPRequestId const &, int)
	?WrapperCount@CXIMPTestContextWrapperMgr@@QBEHXZ @ 111 NONAME ; int CXIMPTestContextWrapperMgr::WrapperCount(void) const

