EXPORTS
	_ZN10CFlexTimer10ConstructLEv @ 1 NONAME
	_ZN10CFlexTimer2AtERK5TTime @ 2 NONAME
	_ZN10CFlexTimer5AfterE25TTimeIntervalMicroSeconds @ 3 NONAME
	_ZN10CFlexTimer5AfterE27TTimeIntervalMicroSeconds32 @ 4 NONAME
	_ZN10CFlexTimer5AtUTCERK5TTime @ 5 NONAME
	_ZN10CFlexTimer8DoCancelEv @ 6 NONAME
	_ZN10CFlexTimer9ConfigureE25TTimeIntervalMicroSeconds @ 7 NONAME
	_ZN10CFlexTimer9ConfigureE27TTimeIntervalMicroSeconds32 @ 8 NONAME
	_ZN10CFlexTimerC2Ei @ 9 NONAME
	_ZN10CFlexTimerD0Ev @ 10 NONAME
	_ZN10CFlexTimerD1Ev @ 11 NONAME
	_ZN10CFlexTimerD2Ev @ 12 NONAME
	_ZN10RFlexTimer10AfterTicksER14TRequestStatusi @ 13 NONAME
	_ZN10RFlexTimer2AtER14TRequestStatusRK5TTime @ 14 NONAME
	_ZN10RFlexTimer5AfterER14TRequestStatus25TTimeIntervalMicroSeconds @ 15 NONAME
	_ZN10RFlexTimer5AfterER14TRequestStatus27TTimeIntervalMicroSeconds32 @ 16 NONAME
	_ZN10RFlexTimer5AtUTCER14TRequestStatusRK5TTime @ 17 NONAME
	_ZN10RFlexTimer6CancelEv @ 18 NONAME
	_ZN10RFlexTimer7ConnectEv @ 19 NONAME
	_ZN10RFlexTimer9ConfigureE25TTimeIntervalMicroSeconds @ 20 NONAME
	_ZN10RFlexTimer9ConfigureE27TTimeIntervalMicroSeconds32 @ 21 NONAME
	_ZN10RFlexTimerC1Ev @ 22 NONAME
	_ZN10RFlexTimerC2Ev @ 23 NONAME
	_ZN10RFlexTimerD1Ev @ 24 NONAME
	_ZN10RFlexTimerD2Ev @ 25 NONAME
	_ZN13CFlexPeriodic10ConstructLEv @ 26 NONAME
	_ZN13CFlexPeriodic4NewLEi @ 27 NONAME
	_ZN13CFlexPeriodic5StartE25TTimeIntervalMicroSecondsS0_9TCallBackS1_ @ 28 NONAME
	_ZN13CFlexPeriodic5StartE27TTimeIntervalMicroSeconds32S0_9TCallBackS1_ @ 29 NONAME
	_ZN13CFlexPeriodic9ConfigureE25TTimeIntervalMicroSecondsS0_ @ 30 NONAME
	_ZN13CFlexPeriodic9ConfigureE27TTimeIntervalMicroSeconds32S0_ @ 31 NONAME
	_ZN13CFlexPeriodicC1Ei @ 32 NONAME
	_ZN13CFlexPeriodicC2Ei @ 33 NONAME
	_ZN13CFlexPeriodicD0Ev @ 34 NONAME
	_ZN13CFlexPeriodicD1Ev @ 35 NONAME
	_ZN13CFlexPeriodicD2Ev @ 36 NONAME
	_ZTI10CFlexTimer @ 37 NONAME
	_ZTI13CFlexPeriodic @ 38 NONAME
	_ZTV10CFlexTimer @ 39 NONAME
	_ZTV13CFlexPeriodic @ 40 NONAME

