EXPORTS
	_ZN11RCaIdsArray12InternalizeLER11RReadStream @ 1 NONAME
	_ZN13CCaInnerEntry12InternalizeLER11RReadStream @ 2 NONAME
	_ZN13CCaInnerEntry12SetIconDataLERK7TDesC16S2_S2_ @ 3 NONAME
	_ZN13CCaInnerEntry13AddAttributeLERK7TDesC16S2_ @ 4 NONAME
	_ZN13CCaInnerEntry13FindAttributeERK7TDesC16R6TDes16 @ 5 NONAME
	_ZN13CCaInnerEntry13FindAttributeERK7TDesC16R7TPtrC16 @ 6 NONAME
	_ZN13CCaInnerEntry15SetDescriptionLERK7TDesC16i @ 7 NONAME
	_ZN13CCaInnerEntry16RemoveAttributeLERK7TDesC16 @ 8 NONAME
	_ZN13CCaInnerEntry17SetEntryTypeNameLERK7TDesC16 @ 9 NONAME
	_ZN13CCaInnerEntry4NewLEv @ 10 NONAME
	_ZN13CCaInnerEntry5NewLCEv @ 11 NONAME
	_ZN13CCaInnerEntry5SetIdEj @ 12 NONAME
	_ZN13CCaInnerEntry6SetUidEl @ 13 NONAME
	_ZN13CCaInnerEntry7SetRoleEj @ 14 NONAME
	_ZN13CCaInnerEntry8SetFlagsEj @ 15 NONAME
	_ZN13CCaInnerEntry8SetTextLERK7TDesC16i @ 16 NONAME
	_ZN13CCaInnerEntry9SetIconIdEi @ 17 NONAME
	_ZN13CCaInnerQuery10SetChildIdEi @ 18 NONAME
	_ZN13CCaInnerQuery10SetFlagsOnEj @ 19 NONAME
	_ZN13CCaInnerQuery11SetFlagsOffEj @ 20 NONAME
	_ZN13CCaInnerQuery11SetParentIdEi @ 21 NONAME
	_ZN13CCaInnerQuery12InternalizeLER11RReadStream @ 22 NONAME
	_ZN13CCaInnerQuery13AddAttributeLERK7TDesC16S2_ @ 23 NONAME
	_ZN13CCaInnerQuery17SetEntryTypeNamesEP16CDesC16ArrayFlat @ 24 NONAME
	_ZN13CCaInnerQuery4NewLEv @ 25 NONAME
	_ZN13CCaInnerQuery5NewLCEv @ 26 NONAME
	_ZN13CCaInnerQuery6SetUidEj @ 27 NONAME
	_ZN13CCaInnerQuery7SetIdsLERK6RArrayIiE @ 28 NONAME
	_ZN13CCaInnerQuery7SetRoleEi @ 29 NONAME
	_ZN13CCaInnerQuery7SetSortENS_14TSortAttributeE @ 30 NONAME
	_ZN13CCaInnerQuery8SetCountEj @ 31 NONAME
	_ZN15RCaEntriesArray12InternalizeLER11RReadStream @ 32 NONAME
	_ZN17CCaEntryAttribute4NewLERK7TDesC16 @ 33 NONAME
	_ZN17CCaEntryAttribute5NewLCERK7TDesC16 @ 34 NONAME
	_ZN17CCaEntryAttribute9SetValueLERK7TDesC16 @ 35 NONAME
	_ZN17RCaEntryAttrArray15RemoveAttributeERK7TDesC16 @ 36 NONAME
	_ZN20CCaLocalizationEntry12SetStringIdLERK7TDesC16 @ 37 NONAME
	_ZN20CCaLocalizationEntry13SetTableNameLERK7TDesC16 @ 38 NONAME
	_ZN20CCaLocalizationEntry14SetQmFilenameLERK7TDesC16 @ 39 NONAME
	_ZN20CCaLocalizationEntry17SetAttributeNameLERK7TDesC16 @ 40 NONAME
	_ZN20CCaLocalizationEntry19SetLocalizedStringLERK7TDesC16 @ 41 NONAME
	_ZN20CCaLocalizationEntry4NewLEv @ 42 NONAME
	_ZN20CCaLocalizationEntry5NewLCEv @ 43 NONAME
	_ZN20CCaLocalizationEntry8SetRowIdEj @ 44 NONAME
	_ZN20CCaLocalizationEntry9SetTextIdEj @ 45 NONAME
	_ZN22CCaInnerNotifierFilter11SetParentIdEi @ 46 NONAME
	_ZN22CCaInnerNotifierFilter12InternalizeLER11RReadStream @ 47 NONAME
	_ZN22CCaInnerNotifierFilter12SetEntryRoleE10TEntryRole @ 48 NONAME
	_ZN22CCaInnerNotifierFilter12SetTypeNamesEP16CDesC16ArrayFlat @ 49 NONAME
	_ZN22CCaInnerNotifierFilter4NewLENS_13TNotifierTypeE @ 50 NONAME
	_ZN22CCaInnerNotifierFilter5NewLCENS_13TNotifierTypeE @ 51 NONAME
	_ZN22CCaInnerNotifierFilter7SetIdsLERK6RArrayIiE @ 52 NONAME
	_ZN23CCaInnerIconDescription10SetSkinIdLERK7TDesC16 @ 53 NONAME
	_ZN23CCaInnerIconDescription12SetFileNameLERK7TDesC16 @ 54 NONAME
	_ZN23CCaInnerIconDescription17SetApplicationIdLERK7TDesC16 @ 55 NONAME
	_ZN23CCaInnerIconDescription4NewLEv @ 56 NONAME
	_ZN23CCaInnerIconDescription5NewLCEv @ 57 NONAME
	_ZN23CCaInnerIconDescription5SetIdEi @ 58 NONAME
	_ZN9MenuUtils24InitTextResolverSymbianLERK7TDesC16 @ 59 NONAME
	_ZN9MenuUtils8GetTUintERK7TDesC16Rj @ 60 NONAME
	_ZNK11RCaIdsArray12ExternalizeLER12RWriteStream @ 61 NONAME
	_ZNK11RCaIdsArray13MarshalDataLCEv @ 62 NONAME
	_ZNK13CCaInnerEntry11isLocalizedENS_14TLocalizedTypeE @ 63 NONAME
	_ZNK13CCaInnerEntry12ExternalizeLER12RWriteStream @ 64 NONAME
	_ZNK13CCaInnerEntry13GetAttributesEv @ 65 NONAME
	_ZNK13CCaInnerEntry14GetDescriptionEv @ 66 NONAME
	_ZNK13CCaInnerEntry16GetEntryTypeNameEv @ 67 NONAME
	_ZNK13CCaInnerEntry4IconEv @ 68 NONAME
	_ZNK13CCaInnerEntry5GetIdEv @ 69 NONAME
	_ZNK13CCaInnerEntry6GetUidEv @ 70 NONAME
	_ZNK13CCaInnerEntry7GetRoleEv @ 71 NONAME
	_ZNK13CCaInnerEntry7GetTextEv @ 72 NONAME
	_ZNK13CCaInnerEntry8GetFlagsEv @ 73 NONAME
	_ZNK13CCaInnerEntry9GetIconIdEv @ 74 NONAME
	_ZNK13CCaInnerQuery10GetChildIdEv @ 75 NONAME
	_ZNK13CCaInnerQuery10GetFlagsOnEv @ 76 NONAME
	_ZNK13CCaInnerQuery11GetFlagsOffEv @ 77 NONAME
	_ZNK13CCaInnerQuery11GetParentIdEv @ 78 NONAME
	_ZNK13CCaInnerQuery12ExternalizeLER12RWriteStream @ 79 NONAME
	_ZNK13CCaInnerQuery13GetAttributesEv @ 80 NONAME
	_ZNK13CCaInnerQuery17GetEntryTypeNamesEv @ 81 NONAME
	_ZNK13CCaInnerQuery6GetIdsEv @ 82 NONAME
	_ZNK13CCaInnerQuery6GetUidEv @ 83 NONAME
	_ZNK13CCaInnerQuery7GetRoleEv @ 84 NONAME
	_ZNK13CCaInnerQuery7GetSortEv @ 85 NONAME
	_ZNK13CCaInnerQuery8GetCountEv @ 86 NONAME
	_ZNK15RCaEntriesArray12ExternalizeLER12RWriteStream @ 87 NONAME
	_ZNK17RCaEntryAttrArray4FindERK7TDesC16R6TDes16 @ 88 NONAME
	_ZNK17RCaEntryAttrArray4FindERK7TDesC16R7TPtrC16 @ 89 NONAME
	_ZNK17RCaEntryAttrArray5ExistERK7TDesC16 @ 90 NONAME
	_ZNK20CCaLocalizationEntry11GetStringIdEv @ 91 NONAME
	_ZNK20CCaLocalizationEntry12GetTableNameEv @ 92 NONAME
	_ZNK20CCaLocalizationEntry13GetQmFilenameEv @ 93 NONAME
	_ZNK20CCaLocalizationEntry16GetAttributeNameEv @ 94 NONAME
	_ZNK20CCaLocalizationEntry18GetLocalizedStringEv @ 95 NONAME
	_ZNK20CCaLocalizationEntry8GetRowIdEv @ 96 NONAME
	_ZNK20CCaLocalizationEntry9GetTextIdEv @ 97 NONAME
	_ZNK22CCaInnerNotifierFilter11GetParentIdEv @ 98 NONAME
	_ZNK22CCaInnerNotifierFilter12ExternalizeLER12RWriteStream @ 99 NONAME
	_ZNK22CCaInnerNotifierFilter12GetEntryRoleEv @ 100 NONAME
	_ZNK22CCaInnerNotifierFilter12GetTypeNamesEv @ 101 NONAME
	_ZNK22CCaInnerNotifierFilter15GetNotifierTypeEv @ 102 NONAME
	_ZNK22CCaInnerNotifierFilter6GetIdsEv @ 103 NONAME

