EXPORTS
	_ZN15EapQtPluginInfoC1ERK17EapQtPluginHandleRK7QStringi @ 1 NONAME
	_ZN15EapQtPluginInfoC1ERKS_ @ 2 NONAME
	_ZN15EapQtPluginInfoC2ERK17EapQtPluginHandleRK7QStringi @ 3 NONAME
	_ZN15EapQtPluginInfoC2ERKS_ @ 4 NONAME
	_ZN15EapQtPluginInfoD1Ev @ 5 NONAME
	_ZN15EapQtPluginInfoD2Ev @ 6 NONAME
	_ZN15EapQtPluginInfoaSERKS_ @ 7 NONAME
	_ZN17EapQtPluginHandleC1ENS_6PluginE @ 8 NONAME
	_ZN17EapQtPluginHandleC1ERK20EapQtExpandedEapType @ 9 NONAME
	_ZN17EapQtPluginHandleC1ERK20EapQtExpandedEapTypei @ 10 NONAME
	_ZN17EapQtPluginHandleC1ERKS_ @ 11 NONAME
	_ZN17EapQtPluginHandleC1Ev @ 12 NONAME
	_ZN17EapQtPluginHandleC2ENS_6PluginE @ 13 NONAME
	_ZN17EapQtPluginHandleC2ERK20EapQtExpandedEapType @ 14 NONAME
	_ZN17EapQtPluginHandleC2ERK20EapQtExpandedEapTypei @ 15 NONAME
	_ZN17EapQtPluginHandleC2ERKS_ @ 16 NONAME
	_ZN17EapQtPluginHandleC2Ev @ 17 NONAME
	_ZN17EapQtPluginHandleD1Ev @ 18 NONAME
	_ZN17EapQtPluginHandleD2Ev @ 19 NONAME
	_ZN17EapQtPluginHandleaSERKS_ @ 20 NONAME
	_ZN20EapQtExpandedEapTypeC1ENS_4TypeE @ 21 NONAME
	_ZN20EapQtExpandedEapTypeC1ERK10QByteArray @ 22 NONAME
	_ZN20EapQtExpandedEapTypeC1ERKS_ @ 23 NONAME
	_ZN20EapQtExpandedEapTypeC1Ev @ 24 NONAME
	_ZN20EapQtExpandedEapTypeC2ENS_4TypeE @ 25 NONAME
	_ZN20EapQtExpandedEapTypeC2ERK10QByteArray @ 26 NONAME
	_ZN20EapQtExpandedEapTypeC2ERKS_ @ 27 NONAME
	_ZN20EapQtExpandedEapTypeC2Ev @ 28 NONAME
	_ZN20EapQtExpandedEapTypeD1Ev @ 29 NONAME
	_ZN20EapQtExpandedEapTypeD2Ev @ 30 NONAME
	_ZN20EapQtExpandedEapTypeaSERKS_ @ 31 NONAME
	_ZNK15EapQtPluginInfo11orderNumberEv @ 32 NONAME
	_ZNK15EapQtPluginInfo12pluginHandleEv @ 33 NONAME
	_ZNK15EapQtPluginInfo14localizationIdEv @ 34 NONAME
	_ZNK17EapQtPluginHandle25protocolImplementationUidEv @ 35 NONAME
	_ZNK17EapQtPluginHandle4typeEv @ 36 NONAME
	_ZNK17EapQtPluginHandle8pluginIdEv @ 37 NONAME
	_ZNK17EapQtPluginHandleeqERKS_ @ 38 NONAME
	_ZNK17EapQtPluginHandleneERKS_ @ 39 NONAME
	_ZNK20EapQtExpandedEapType15eapExpandedDataEv @ 40 NONAME
	_ZNK20EapQtExpandedEapType4typeEv @ 41 NONAME
	_ZNK20EapQtExpandedEapTypeeqERKS_ @ 42 NONAME
	_ZNK20EapQtExpandedEapTypeneERKS_ @ 43 NONAME

