EXPORTS
	_ZN15CCFContextQuery4NewLERK7TDesC16S2_ @ 1 NONAME
	_ZN15CCFContextQuery4NewLEv @ 2 NONAME
	_ZN15CCFContextQuery5NewLCERK7TDesC16S2_ @ 3 NONAME
	_ZN15CCFContextQuery5NewLCEv @ 4 NONAME
	_ZN15CCFKeyValuePair4NewLEP7HBufC16S1_ @ 5 NONAME
	_ZN15CCFKeyValuePair4NewLERK7TDesC16S2_ @ 6 NONAME
	_ZN15CCFKeyValuePair5NewLCEP7HBufC16S1_ @ 7 NONAME
	_ZN15CCFKeyValuePair5NewLCERK7TDesC16S2_ @ 8 NONAME
	_ZN15CCFKeyValuePairD0Ev @ 9 NONAME
	_ZN15CCFKeyValuePairD1Ev @ 10 NONAME
	_ZN15CCFKeyValuePairD2Ev @ 11 NONAME
	_ZN16CCFContextObject4NewLERK7TDesC16S2_S2_ @ 12 NONAME
	_ZN16CCFContextObject4NewLEv @ 13 NONAME
	_ZN16CCFContextObject5NewLCERK7TDesC16S2_S2_ @ 14 NONAME
	_ZN16CCFContextObject5NewLCEv @ 15 NONAME
	_ZN19CCFActionIndication4NewLEv @ 16 NONAME
	_ZN19CCFActionIndication5NewLCEv @ 17 NONAME
	_ZN19CCFContextQueryImpl12ExternalizeLER12RWriteStream @ 18 NONAME
	_ZN19CCFContextQueryImpl12InternalizeLER11RReadStream @ 19 NONAME
	_ZN19CCFContextQueryImpl12MatchesQueryERK15CCFContextQueryRK7TDesC16S5_i @ 20 NONAME
	_ZN19CCFContextQueryImpl4NewLERK7TDesC16S2_ @ 21 NONAME
	_ZN19CCFContextQueryImpl5NewLCERK7TDesC16S2_ @ 22 NONAME
	_ZN19CCFContextQueryImpl6IsSameERK15CCFContextQueryS2_ @ 23 NONAME
	_ZN20CCFContextIndication4NewLERK4TUid @ 24 NONAME
	_ZN20CCFContextIndication5NewLCERK4TUid @ 25 NONAME
	_ZN20CCFContextObjectImpl12ExternalizeLER12RWriteStream @ 26 NONAME
	_ZN20CCFContextObjectImpl12InternalizeLER11RReadStream @ 27 NONAME
	_ZN20CCFContextObjectImpl13CompareByTypeERK16CCFContextObjectS2_ @ 28 NONAME
	_ZN20CCFContextObjectImpl22CompareByTypeAndSourceERK16CCFContextObjectS2_ @ 29 NONAME
	_ZN20CCFContextObjectImpl23CompareByTimeDescendingERK16CCFContextObjectS2_ @ 30 NONAME
	_ZN20CCFContextObjectImpl4NewLERK7TDesC16S2_S2_ @ 31 NONAME
	_ZN20CCFContextObjectImpl4NewLEv @ 32 NONAME
	_ZN20CCFContextObjectImpl5NewLCERK7TDesC16S2_S2_ @ 33 NONAME
	_ZN20CCFContextObjectImpl5NewLCEv @ 34 NONAME
	_ZN20CCFContextObjectImpl6IsSameERK16CCFContextObjectS2_ @ 35 NONAME
	_ZN21CCFActionSubscription4NewLEv @ 36 NONAME
	_ZN21CCFActionSubscription5NewLCEv @ 37 NONAME
	_ZN22CCFContextSubscription4NewLEv @ 38 NONAME
	_ZN22CCFContextSubscription5NewLCEv @ 39 NONAME
	_ZN23CCFActionIndicationImpl12ExternalizeLER12RWriteStream @ 40 NONAME
	_ZN23CCFActionIndicationImpl12InternalizeLER11RReadStream @ 41 NONAME
	_ZN23CCFActionIndicationImpl4NewLEv @ 42 NONAME
	_ZN23CCFActionIndicationImpl5NewLCEv @ 43 NONAME
	_ZN24CCFContextIndicationImpl11SetContextLERK16CCFContextObject @ 44 NONAME
	_ZN24CCFContextIndicationImpl12ExternalizeLER12RWriteStream @ 45 NONAME
	_ZN24CCFContextIndicationImpl12InternalizeLER11RReadStream @ 46 NONAME
	_ZN24CCFContextIndicationImpl4NewLER11RReadStream @ 47 NONAME
	_ZN24CCFContextIndicationImpl4NewLERK4TUid @ 48 NONAME
	_ZN24CCFContextIndicationImpl5NewLCER11RReadStream @ 49 NONAME
	_ZN24CCFContextIndicationImpl5NewLCERK4TUid @ 50 NONAME
	_ZN25CCFActionSubscriptionImpl11SetListenerEP29MCFActionSubscriptionListener @ 51 NONAME
	_ZN25CCFActionSubscriptionImpl12ExternalizeLER12RWriteStream @ 52 NONAME
	_ZN25CCFActionSubscriptionImpl12InternalizeLER11RReadStream @ 53 NONAME
	_ZN25CCFActionSubscriptionImpl4NewLEv @ 54 NONAME
	_ZN25CCFActionSubscriptionImpl5NewLCEv @ 55 NONAME
	_ZN26CCFContextSubscriptionImpl12ExternalizeLER12RWriteStream @ 56 NONAME
	_ZN26CCFContextSubscriptionImpl12InternalizeLER11RReadStream @ 57 NONAME
	_ZN26CCFContextSubscriptionImpl23SetSubscriptionListenerER30MCFContextSubscriptionListener @ 58 NONAME
	_ZN26CCFContextSubscriptionImpl4NewLER11RReadStream @ 59 NONAME
	_ZN26CCFContextSubscriptionImpl4NewLEv @ 60 NONAME
	_ZN26CCFContextSubscriptionImpl5NewLCER11RReadStream @ 61 NONAME
	_ZN26CCFContextSubscriptionImpl5NewLCEv @ 62 NONAME
	_ZNK15CCFKeyValuePair3KeyEv @ 63 NONAME
	_ZNK15CCFKeyValuePair5ValueEv @ 64 NONAME
	_ZNK19CCFContextQueryImpl4SizeEv @ 65 NONAME
	_ZNK19CCFContextQueryImpl7MatchesERK7TDesC16S2_ @ 66 NONAME
	_ZNK20CCFContextObjectImpl12CompareValueERK16CCFContextObject @ 67 NONAME
	_ZNK20CCFContextObjectImpl4SizeEv @ 68 NONAME
	_ZNK23CCFActionIndicationImpl4SizeEv @ 69 NONAME
	_ZNK24CCFContextIndicationImpl4SizeEv @ 70 NONAME
	_ZNK25CCFActionSubscriptionImpl4SizeEv @ 71 NONAME
	_ZNK25CCFActionSubscriptionImpl8ListenerEv @ 72 NONAME
	_ZNK26CCFContextSubscriptionImpl20SubscriptionListenerEv @ 73 NONAME
	_ZNK26CCFContextSubscriptionImpl22EvaluateContextChangeLERK16CCFContextObjectS2_i @ 74 NONAME
	_ZNK26CCFContextSubscriptionImpl4SizeEv @ 75 NONAME
	_ZNK26CCFContextSubscriptionImpl6IsSameERKS_ @ 76 NONAME
	_ZNK26CCFContextSubscriptionImpl7MatchesERK7TDesC16 @ 77 NONAME
	_ZNK26CCFContextSubscriptionImpl7MatchesERK7TDesC16S2_ @ 78 NONAME
	_ZTI15CCFKeyValuePair @ 79 NONAME ; #<TI>#
	_ZTV15CCFKeyValuePair @ 80 NONAME ; #<VT>#
	_ZN24CCFContextIndicationImpl13SetDataObjectEP6HBufC8 @ 81 NONAME
	_ZN24CCFContextIndicationImpl16SetDataObjectUidERK4TUid @ 82 NONAME
	_ZNK26CCFContextSubscriptionImpl22EvaluateContextChangeLERK16CCFContextObjectR20CCFContextDataObjecti @ 83 NONAME
	_ZN19CCFContextDataProxy14SetContextDataEP6HBufC8 @ 84 NONAME
	_ZN19CCFContextDataProxy17SetContextDataUidERK4TUid @ 85 NONAME
	_ZN19CCFContextDataProxy4NewLEv @ 86 NONAME
	_ZN19CCFContextDataProxy5NewLCEv @ 87 NONAME
	_ZN23CCFContextSourceCommand4NewLEv @ 88 NONAME
	_ZN23CCFContextSourceCommand5NewLCEv @ 89 NONAME
	_ZN32CCFContextSourceCommandParameter4NewLEv @ 90 NONAME
	_ZN32CCFContextSourceCommandParameter5NewLCEv @ 91 NONAME
	_ZN20CCFEComPluginManager14AddToBlackListERK4TUid @ 92 NONAME
	_ZN20CCFEComPluginManagerC1Ev @ 93 NONAME
	_ZN20CCFEComPluginManagerC2Ev @ 94 NONAME
	_ZN20CCFEComPluginManagerD0Ev @ 95 NONAME
	_ZN20CCFEComPluginManagerD1Ev @ 96 NONAME
	_ZN20CCFEComPluginManagerD2Ev @ 97 NONAME
	_ZTI20CCFEComPluginManager @ 98 NONAME ; #<TI>#
	_ZTV20CCFEComPluginManager @ 99 NONAME ; #<VT>#
	_ZN20CCFEComPluginManager17RemoveBlackListedER13RPointerArrayI26CImplementationInformationE @ 100 NONAME

